

Microchip MPLAB XC8 Assembler V2.41 build 20230208172133 
                                                                                               Tue Aug 29 23:28:35 2023

Microchip MPLAB XC8 C Compiler v2.41 (Free license) build 20230208172133 Og1 
     1                           	processor	18F46K20
     2                           	fnconf	rparam,??,?,0
     3                           	pagewidth 120
     4                           	opt	flic
     5                           	psect	smallconst,global,reloc=2,class=SMALLCONST,delta=1,noexec
     6                           	psect	nvCOMRAM,global,class=COMRAM,space=1,delta=1,lowdata,noexec
     7                           	psect	nvBANK0,global,class=BANK0,space=1,delta=1,lowdata,noexec
     8                           	psect	cinit,global,reloc=2,class=CODE,delta=1
     9                           	psect	bssCOMRAM,global,class=COMRAM,space=1,delta=1,lowdata,noexec
    10                           	psect	bssBANK0,global,class=BANK0,space=1,delta=1,lowdata,noexec
    11                           	psect	bssBANK1,global,class=BANK1,space=1,delta=1,lowdata,noexec
    12                           	psect	cstackBANK1,global,class=BANK1,space=1,delta=1,lowdata,noexec
    13                           	psect	cstackBANK0,global,class=BANK0,space=1,delta=1,lowdata,noexec
    14                           	psect	cstackCOMRAM,global,class=COMRAM,space=1,delta=1,lowdata,noexec
    15                           	psect	text0,global,reloc=2,class=CODE,delta=1
    16                           	psect	text1,global,reloc=2,class=CODE,delta=1
    17                           	psect	text2,global,reloc=2,class=CODE,delta=1
    18                           	psect	text3,global,reloc=2,class=CODE,delta=1,group=3
    19                           	psect	text4,global,reloc=2,class=CODE,delta=1,group=1
    20                           	psect	text5,global,reloc=2,class=CODE,delta=1,group=1
    21                           	psect	text6,global,reloc=2,class=CODE,delta=1,group=1
    22                           	psect	text7,global,reloc=2,class=CODE,delta=1,group=1
    23                           	psect	text8,global,reloc=2,class=CODE,delta=1,group=3
    24                           	psect	text9,global,reloc=2,class=CODE,delta=1,group=3
    25                           	psect	text10,global,reloc=2,class=CODE,delta=1,group=3
    26                           	psect	text11,global,reloc=2,class=CODE,delta=1
    27                           	psect	text12,global,reloc=2,class=CODE,delta=1
    28                           	psect	text13,global,reloc=2,class=CODE,delta=1
    29                           	psect	text14,global,reloc=2,class=CODE,delta=1
    30                           	psect	text15,global,reloc=2,class=CODE,delta=1
    31                           	psect	text16,global,reloc=2,class=CODE,delta=1
    32                           	psect	text17,global,reloc=2,class=CODE,delta=1
    33                           	psect	text18,global,reloc=2,class=CODE,delta=1
    34                           	psect	text19,global,reloc=2,class=CODE,delta=1
    35                           	psect	text20,global,reloc=2,class=CODE,delta=1
    36                           	psect	text21,global,reloc=2,class=CODE,delta=1
    37                           	psect	text22,global,reloc=2,class=CODE,delta=1
    38                           	psect	text23,global,reloc=2,class=CODE,delta=1
    39                           	psect	text24,global,reloc=2,class=CODE,delta=1,inline
    40                           	psect	text25,global,reloc=2,class=CODE,delta=1,inline
    41                           	psect	text26,global,reloc=2,class=CODE,delta=1
    42                           	psect	text27,global,reloc=2,class=CODE,delta=1
    43                           	psect	text28,global,reloc=2,class=CODE,delta=1,inline
    44                           	psect	text29,global,reloc=2,class=CODE,delta=1
    45                           	psect	text30,global,reloc=2,class=CODE,delta=1,inline
    46                           	psect	text31,global,reloc=2,class=CODE,delta=1,inline
    47                           	psect	text32,global,reloc=2,class=CODE,delta=1,inline
    48                           	psect	text33,global,reloc=2,class=CODE,delta=1
    49                           	psect	text34,global,reloc=2,class=CODE,delta=1
    50                           	psect	text35,global,reloc=2,class=CODE,delta=1
    51                           	psect	text36,global,reloc=2,class=CODE,delta=1
    52                           	psect	text37,global,reloc=2,class=CODE,delta=1
    53                           	psect	text38,global,reloc=2,class=CODE,delta=1
    54                           	psect	text39,global,reloc=2,class=CODE,delta=1
    55                           	psect	text40,global,reloc=2,class=CODE,delta=1
    56                           	psect	text41,global,reloc=2,class=CODE,delta=1
    57                           	psect	intcode,global,reloc=2,class=CODE,delta=1
    58                           	psect	text43,global,reloc=2,class=CODE,delta=1
    59                           	psect	text44,global,reloc=2,class=CODE,delta=1,inline
    60                           	psect	text45,global,reloc=2,class=CODE,delta=1,inline
    61                           	psect	text46,global,reloc=2,class=CODE,delta=1
    62                           	psect	text47,global,reloc=2,class=CODE,delta=1
    63                           	psect	text48,global,reloc=2,class=CODE,delta=1
    64                           	psect	text49,global,reloc=2,class=CODE,delta=1
    65                           	psect	text50,global,reloc=2,class=CODE,delta=1
    66                           	psect	text51,global,reloc=2,class=CODE,delta=1
    67                           	psect	text52,global,reloc=2,class=CODE,delta=1
    68                           	psect	text53,global,reloc=2,class=CODE,delta=1
    69                           	psect	text54,global,reloc=2,class=CODE,delta=1
    70                           	psect	text55,global,reloc=2,class=CODE,delta=1
    71                           	psect	text56,global,reloc=2,class=CODE,delta=1
    72                           	psect	text57,global,reloc=2,class=CODE,delta=1
    73                           	psect	text58,global,reloc=2,class=CODE,delta=1
    74                           	psect	text59,global,reloc=2,class=CODE,delta=1
    75                           	psect	text60,global,reloc=2,class=CODE,delta=1
    76                           	psect	text61,global,reloc=2,class=CODE,delta=1
    77                           	psect	text62,global,reloc=2,class=CODE,delta=1,inline
    78                           	psect	text63,global,reloc=2,class=CODE,delta=1,inline
    79                           	psect	text64,global,reloc=2,class=CODE,delta=1,inline
    80                           	psect	text65,global,reloc=2,class=CODE,delta=1,inline
    81                           	psect	text66,global,reloc=2,class=CODE,delta=1,inline
    82                           	psect	text67,global,reloc=2,class=CODE,delta=1,inline
    83                           	psect	text68,global,reloc=2,class=CODE,delta=1,inline
    84                           	psect	text69,global,reloc=2,class=CODE,delta=1
    85                           	psect	text70,global,reloc=2,class=CODE,delta=1
    86                           	psect	text71,global,reloc=2,class=CODE,delta=1
    87                           	psect	text72,global,reloc=2,class=CODE,delta=1
    88                           	psect	text73,global,reloc=2,class=CODE,delta=1
    89                           	psect	text74,global,reloc=2,class=CODE,delta=1
    90                           	psect	text75,global,reloc=2,class=CODE,delta=1
    91                           	psect	text76,global,reloc=2,class=CODE,delta=1
    92                           	psect	text77,global,reloc=2,class=CODE,delta=1
    93                           	psect	text78,global,reloc=2,class=CODE,delta=1
    94                           	psect	text79,global,reloc=2,class=CODE,delta=1,inline
    95                           	psect	text80,global,reloc=2,class=CODE,delta=1,inline
    96                           	psect	intsave_regs,global,class=BIGRAM,space=1,delta=1,noexec
    97                           	psect	text81,global,reloc=2,class=CODE,delta=1,inline
    98                           	psect	rparam,global,class=COMRAM,space=1,delta=1,noexec
    99                           	psect	temp,global,ovrld,common,class=COMRAM,space=1,delta=1
   100                           	psect	idloc,global,abs,ovrld,class=IDLOC,space=5,delta=1,noexec
   101                           	psect	config,global,abs,ovrld,class=CONFIG,space=4,delta=1,noexec
   102   000000                     
   103                           ; Generated 21/07/2023 GMT
   104                           ; 
   105                           ; Copyright © 2023, Microchip Technology Inc. and its subsidiaries ("Microchip")
   106                           ; All rights reserved.
   107                           ; 
   108                           ; This software is developed by Microchip Technology Inc. and its subsidiaries ("Microch
      +                          ip").
   109                           ; 
   110                           ; Redistribution and use in source and binary forms, with or without modification, are
   111                           ; permitted provided that the following conditions are met:
   112                           ; 
   113                           ;     1. Redistributions of source code must retain the above copyright notice, this lis
      +                          t of
   114                           ;        conditions and the following disclaimer.
   115                           ; 
   116                           ;     2. Redistributions in binary form must reproduce the above copyright notice, this 
      +                          list
   117                           ;        of conditions and the following disclaimer in the documentation and/or other
   118                           ;        materials provided with the distribution. Publication is not required when
   119                           ;        this file is used in an embedded application.
   120                           ; 
   121                           ;     3. Microchip's name may not be used to endorse or promote products derived from th
      +                          is
   122                           ;        software without specific prior written permission.
   123                           ; 
   124                           ; THIS SOFTWARE IS PROVIDED BY MICROCHIP "AS IS" AND ANY EXPRESS OR IMPLIED WARRANTIES,
   125                           ; INCLUDING, BUT NOT LIMITED TO, THE IMPLIED WARRANTIES OF MERCHANTABILITY AND FITNESS F
      +                          OR
   126                           ; PURPOSE ARE DISCLAIMED.  IN NO EVENT SHALL MICROCHIP BE LIABLE FOR ANY DIRECT, INDIREC
      +                          T,
   127                           ; INCIDENTAL, SPECIAL, EXEMPLARY, OR CONSEQUENTIAL DAMAGES (INCLUDING BUT NOT LIMITED TO
   128                           ; PROCUREMENT OF SUBSTITUTE GOODS OR SERVICES; LOSS OF USE, DATA OR PROFITS; OR BUSINESS
   129                           ; INTERRUPTION) HOWSOEVER CAUSED AND ON ANY THEORY OF LIABILITY, WHETHER IN CONTRACT, ST
      +                          RICT
   130                           ; LIABILITY, OR TORT (INCLUDING NEGLIGENCE OR OTHERWISE) ARISING IN ANY WAY OUT OF THE U
      +                          SE OF
   131                           ; THIS SOFTWARE, EVEN IF ADVISED OF THE POSSIBILITY OF SUCH DAMAGE.
   132                           ; 
   133                           ; 
   134                           ; Code-generator required, PIC18F46K20 Definitions
   135                           ; 
   136                           ; SFR Addresses
   137   000000                     
   138 ;; Function _EUSART_DefaultFramingErrorHandler is unused but had its address taken
   139   000000                     
   140 ;; Function _EUSART_DefaultOverrunErrorHandler is unused but had its address taken
   141   000000                     
   142 ;; Function _EUSART_DefaultErrorHandler is unused but had its address taken
   143   000000                     
   144                           	psect	smallconst
   145   001000                     __psmallconst:
   146                           	callstack 0
   147   001000  00                 	db	0
   148   001001                     _i2c_fsmStateTable:
   149                           	callstack 0
   150   001001  94                 	db	low _I2C_DO_IDLE
   151   001002  1F                 	db	high _I2C_DO_IDLE
   152   001003  50                 	db	low _I2C_DO_SEND_ADR_READ
   153   001004  1F                 	db	high _I2C_DO_SEND_ADR_READ
   154   001005  40                 	db	low _I2C_DO_SEND_ADR_WRITE
   155   001006  1F                 	db	high _I2C_DO_SEND_ADR_WRITE
   156   001007  6E                 	db	low _I2C_DO_TX
   157   001008  13                 	db	high _I2C_DO_TX
   158   001009  E8                 	db	low _I2C_DO_RX
   159   00100A  14                 	db	high _I2C_DO_RX
   160   00100B  88                 	db	low _I2C_DO_RCEN
   161   00100C  1F                 	db	high _I2C_DO_RCEN
   162   00100D  E6                 	db	low _I2C_DO_TX_EMPTY
   163   00100E  17                 	db	high _I2C_DO_TX_EMPTY
   164   00100F  0A                 	db	low _I2C_DO_SEND_RESTART_READ
   165   001010  20                 	db	high _I2C_DO_SEND_RESTART_READ
   166   001011  02                 	db	low _I2C_DO_SEND_RESTART_WRITE
   167   001012  20                 	db	high _I2C_DO_SEND_RESTART_WRITE
   168   001013  FA                 	db	low _I2C_DO_SEND_RESTART
   169   001014  1F                 	db	high _I2C_DO_SEND_RESTART
   170   001015  F2                 	db	low _I2C_DO_SEND_STOP
   171   001016  1F                 	db	high _I2C_DO_SEND_STOP
   172   001017  EA                 	db	low _I2C_DO_RX_ACK
   173   001018  1F                 	db	high _I2C_DO_RX_ACK
   174   001019  E2                 	db	low _I2C_DO_RX_NACK_STOP
   175   00101A  1F                 	db	high _I2C_DO_RX_NACK_STOP
   176   00101B  DA                 	db	low _I2C_DO_RX_NACK_RESTART
   177   00101C  1F                 	db	high _I2C_DO_RX_NACK_RESTART
   178   00101D  7C                 	db	low _I2C_DO_RESET
   179   00101E  1F                 	db	high _I2C_DO_RESET
   180   00101F  A0                 	db	low _I2C_DO_ADDRESS_NACK
   181   001020  1A                 	db	high _I2C_DO_ADDRESS_NACK
   182   001021                     __end_of_i2c_fsmStateTable:
   183                           	callstack 0
   184   000000                     _TRISD	set	3989
   185   000000                     _TRISC	set	3988
   186   000000                     _TRISB	set	3987
   187   000000                     _LATC	set	3979
   188   000000                     _LATB	set	3978
   189   000000                     _EEDATA	set	4008
   190   000000                     _EEADR	set	4009
   191   000000                     _EEADRH	set	4010
   192   000000                     _EECON2	set	4007
   193   000000                     _TXREG	set	4013
   194   000000                     _RCREG	set	4014
   195   000000                     _SPBRG	set	4015
   196   000000                     _TXSTA	set	4012
   197   001021                     STR_1:
   198   001021  74                 	db	116	;'t'
   199   001022  69                 	db	105	;'i'
   200   001023  6D                 	db	109	;'m'
   201   001024  65                 	db	101	;'e'
   202   001025  20                 	db	32
   203   001026  3A                 	db	58	;':'
   204   001027  20                 	db	32
   205   001028  25                 	db	37
   206   001029  78                 	db	120	;'x'
   207   00102A  3A                 	db	58	;':'
   208   00102B  25                 	db	37
   209   00102C  78                 	db	120	;'x'
   210   00102D  3A                 	db	58	;':'
   211   00102E  25                 	db	37
   212   00102F  78                 	db	120	;'x'
   213   001030  20                 	db	32
   214   001031  0D                 	db	13
   215   001032  44                 	db	68	;'D'
   216   001033  61                 	db	97	;'a'
   217   001034  74                 	db	116	;'t'
   218   001035  65                 	db	101	;'e'
   219   001036  20                 	db	32
   220   001037  3A                 	db	58	;':'
   221   001038  20                 	db	32
   222   001039  25                 	db	37
   223   00103A  78                 	db	120	;'x'
   224   00103B  3A                 	db	58	;':'
   225   00103C  25                 	db	37
   226   00103D  78                 	db	120	;'x'
   227   00103E  3A                 	db	58	;':'
   228   00103F  25                 	db	37
   229   001040  78                 	db	120	;'x'
   230   001041  00                 	db	0
   231   001042  00                 	db	0	; dummy byte at the end
   232   000000                     
   233                           	psect	nvCOMRAM
   234   000043                     __pnvCOMRAM:
   235                           	callstack 0
   236   000043                     _EUSART_FramingErrorHandler:
   237                           	callstack 0
   238   000043                     	ds	2
   239                           
   240                           	psect	nvBANK0
   241   0000FB                     __pnvBANK0:
   242                           	callstack 0
   243   0000FB                     _EUSART_ErrorHandler:
   244                           	callstack 0
   245   0000FB                     	ds	2
   246   0000FD                     _EUSART_OverrunErrorHandler:
   247                           	callstack 0
   248   0000FD                     	ds	2
   249   000000                     _SSPSTATbits	set	4039
   250   000000                     _SSPCON2bits	set	4037
   251   000000                     _SSPCON1bits	set	4038
   252   000000                     _RCSTAbits	set	4011
   253   000000                     _TXSTAbits	set	4012
   254   000000                     _WPUB	set	3964
   255   000000                     _ANSEL	set	3966
   256   000000                     _LATA	set	3977
   257   000000                     _LATD	set	3980
   258   000000                     _LATE	set	3981
   259   000000                     _PIR1bits	set	3998
   260   000000                     _RCSTA	set	4011
   261   000000                     _BAUDCON	set	4024
   262   000000                     _SSPCON2	set	4037
   263   000000                     _SSPCON1	set	4038
   264   000000                     _SSPSTAT	set	4039
   265   000000                     _RCONbits	set	4048
   266   000000                     _OSCCON	set	4051
   267   000000                     _INTCON2bits	set	4081
   268   000000                     _INTCONbits	set	4082
   269   000000                     _TABLAT	set	4085
   270   000000                     _TBLPTRL	set	4086
   271   000000                     _TBLPTRH	set	4087
   272   000000                     _TBLPTRU	set	4088
   273   000000                     _SPBRGH	set	4016
   274   000000                     _PIE2bits	set	4000
   275   000000                     _PIR2bits	set	4001
   276   000000                     _EECON1bits	set	4006
   277   000000                     _TRISA	set	3986
   278   000000                     _TRISE	set	3990
   279   000000                     _OSCTUNE	set	3995
   280   000000                     _ANSELH	set	3967
   281   000000                     _PIE1bits	set	3997
   282   000000                     _SSPBUF	set	4041
   283   000000                     _SSPADD	set	4040
   284                           
   285                           ; #config settings
   286                           
   287                           	psect	cinit
   288   001D16                     __pcinit:
   289                           	callstack 0
   290   001D16                     start_initialization:
   291                           	callstack 0
   292   001D16                     __initialization:
   293                           	callstack 0
   294                           
   295                           ; Clear objects allocated to BANK1 (50 bytes)
   296   001D16  EE01  F000         	lfsr	0,__pbssBANK1
   297   001D1A  0E32               	movlw	50
   298   001D1C                     clear_0:
   299   001D1C  6AEE               	clrf	postinc0,c
   300   001D1E  06E8               	decf	wreg,f,c
   301   001D20  E1FD               	bnz	clear_0
   302                           
   303                           ; Clear objects allocated to BANK0 (69 bytes)
   304   001D22  EE00  F0B6         	lfsr	0,__pbssBANK0
   305   001D26  0E45               	movlw	69
   306   001D28                     clear_1:
   307   001D28  6AEE               	clrf	postinc0,c
   308   001D2A  06E8               	decf	wreg,f,c
   309   001D2C  E1FD               	bnz	clear_1
   310                           
   311                           ; Clear objects allocated to COMRAM (24 bytes)
   312   001D2E  EE00  F02B         	lfsr	0,__pbssCOMRAM
   313   001D32  0E18               	movlw	24
   314   001D34                     clear_2:
   315   001D34  6AEE               	clrf	postinc0,c
   316   001D36  06E8               	decf	wreg,f,c
   317   001D38  E1FD               	bnz	clear_2
   318   001D3A                     end_of_initialization:
   319                           	callstack 0
   320   001D3A                     __end_of__initialization:
   321                           	callstack 0
   322   001D3A  9045               	bcf	int$flags,0,c	;clear compiler interrupt flag (level 1)
   323   001D3C  9245               	bcf	int$flags,1,c	;clear compiler interrupt flag (level 2)
   324   001D3E  0100               	movlb	0
   325   001D40  EF66  F00B         	goto	_main	;jump to C main() function
   326                           
   327                           	psect	bssCOMRAM
   328   00002B                     __pbssCOMRAM:
   329                           	callstack 0
   330   00002B                     rtc_get_value@F476:
   331                           	callstack 0
   332   00002B                     	ds	7
   333   000032                     _width:
   334                           	callstack 0
   335   000032                     	ds	2
   336   000034                     _prec:
   337                           	callstack 0
   338   000034                     	ds	2
   339   000036                     _MSSP_InterruptHandler:
   340                           	callstack 0
   341   000036                     	ds	2
   342   000038                     _temp_reading:
   343                           	callstack 0
   344   000038                     	ds	1
   345   000039                     _data_2:
   346                           	callstack 0
   347   000039                     	ds	1
   348   00003A                     _data_1:
   349                           	callstack 0
   350   00003A                     	ds	1
   351   00003B                     _eusartRxLastError:
   352                           	callstack 0
   353   00003B                     	ds	1
   354   00003C                     _reading:
   355                           	callstack 0
   356   00003C                     	ds	7
   357                           
   358                           	psect	bssBANK0
   359   0000B6                     __pbssBANK0:
   360                           	callstack 0
   361   0000B6                     _I2C_Status:
   362                           	callstack 0
   363   0000B6                     	ds	36
   364   0000DA                     _flags:
   365                           	callstack 0
   366   0000DA                     	ds	1
   367   0000DB                     _dbuf:
   368                           	callstack 0
   369   0000DB                     	ds	32
   370                           
   371                           	psect	bssBANK1
   372   000100                     __pbssBANK1:
   373                           	callstack 0
   374   000100                     _bufferWrite:
   375                           	callstack 0
   376   000100                     	ds	50
   377                           
   378                           	psect	cstackBANK1
   379   000132                     __pcstackBANK1:
   380                           	callstack 0
   381   000132                     ??_main:
   382                           
   383                           ; 1 bytes @ 0x0
   384   000132                     	ds	2
   385                           
   386                           	psect	cstackBANK0
   387   000060                     __pcstackBANK0:
   388                           	callstack 0
   389   000060                     ?_rtc_get_value:
   390                           	callstack 0
   391   000060                     pad@fp:
   392                           	callstack 0
   393                           
   394                           ; 2 bytes @ 0x0
   395   000060                     	ds	2
   396   000062                     pad@buf:
   397                           	callstack 0
   398                           
   399                           ; 2 bytes @ 0x2
   400   000062                     	ds	2
   401   000064                     pad@p:
   402                           	callstack 0
   403                           
   404                           ; 2 bytes @ 0x4
   405   000064                     	ds	2
   406   000066                     pad@i:
   407                           	callstack 0
   408                           
   409                           ; 2 bytes @ 0x6
   410   000066                     	ds	1
   411   000067                     rtc_get_value@adress:
   412                           	callstack 0
   413                           
   414                           ; 1 bytes @ 0x7
   415   000067                     	ds	1
   416   000068                     pad@w:
   417                           	callstack 0
   418   000068                     rtc_get_value@rtc_get_value_local:
   419                           	callstack 0
   420                           
   421                           ; 7 bytes @ 0x8
   422   000068                     	ds	2
   423   00006A                     xtoa@fp:
   424                           	callstack 0
   425                           
   426                           ; 2 bytes @ 0xA
   427   00006A                     	ds	2
   428   00006C                     xtoa@d:
   429                           	callstack 0
   430                           
   431                           ; 2 bytes @ 0xC
   432   00006C                     	ds	2
   433   00006E                     ??_xtoa:
   434                           
   435                           ; 1 bytes @ 0xE
   436   00006E                     	ds	3
   437   000071                     xtoa@w:
   438                           	callstack 0
   439                           
   440                           ; 2 bytes @ 0x11
   441   000071                     	ds	2
   442   000073                     _xtoa$2290:
   443                           	callstack 0
   444                           
   445                           ; 2 bytes @ 0x13
   446   000073                     	ds	2
   447   000075                     xtoa@p:
   448                           	callstack 0
   449                           
   450                           ; 2 bytes @ 0x15
   451   000075                     	ds	2
   452   000077                     xtoa@i:
   453                           	callstack 0
   454                           
   455                           ; 2 bytes @ 0x17
   456   000077                     	ds	2
   457   000079                     xtoa@c:
   458                           	callstack 0
   459                           
   460                           ; 1 bytes @ 0x19
   461   000079                     	ds	1
   462   00007A                     vfpfcnvrt@fp:
   463                           	callstack 0
   464                           
   465                           ; 2 bytes @ 0x1A
   466   00007A                     	ds	2
   467   00007C                     vfpfcnvrt@fmt:
   468                           	callstack 0
   469                           
   470                           ; 2 bytes @ 0x1C
   471   00007C                     	ds	2
   472   00007E                     vfpfcnvrt@ap:
   473                           	callstack 0
   474                           
   475                           ; 2 bytes @ 0x1E
   476   00007E                     	ds	2
   477   000080                     ??_vfpfcnvrt:
   478                           
   479                           ; 1 bytes @ 0x20
   480   000080                     	ds	2
   481   000082                     vfpfcnvrt@convarg:
   482                           	callstack 0
   483                           
   484                           ; 4 bytes @ 0x22
   485   000082                     	ds	4
   486   000086                     vfpfcnvrt@cp:
   487                           	callstack 0
   488                           
   489                           ; 2 bytes @ 0x26
   490   000086                     	ds	2
   491   000088                     ?_vfprintf:
   492                           	callstack 0
   493   000088                     vfprintf@fp:
   494                           	callstack 0
   495                           
   496                           ; 2 bytes @ 0x28
   497   000088                     	ds	2
   498   00008A                     vfprintf@fmt:
   499                           	callstack 0
   500                           
   501                           ; 2 bytes @ 0x2A
   502   00008A                     	ds	2
   503   00008C                     vfprintf@ap:
   504                           	callstack 0
   505                           
   506                           ; 2 bytes @ 0x2C
   507   00008C                     	ds	2
   508   00008E                     vfprintf@cfmt:
   509                           	callstack 0
   510                           
   511                           ; 2 bytes @ 0x2E
   512   00008E                     	ds	2
   513   000090                     ?_sprintf:
   514                           	callstack 0
   515   000090                     sprintf@s:
   516                           	callstack 0
   517                           
   518                           ; 2 bytes @ 0x30
   519   000090                     	ds	2
   520   000092                     sprintf@fmt:
   521                           	callstack 0
   522                           
   523                           ; 2 bytes @ 0x32
   524   000092                     	ds	14
   525   0000A0                     sprintf@ap:
   526                           	callstack 0
   527                           
   528                           ; 2 bytes @ 0x40
   529   0000A0                     	ds	2
   530   0000A2                     sprintf@f:
   531                           	callstack 0
   532                           
   533                           ; 12 bytes @ 0x42
   534   0000A2                     	ds	12
   535   0000AE                     print_rtc_data_time@ptr:
   536                           	callstack 0
   537                           
   538                           ; 2 bytes @ 0x4E
   539   0000AE                     	ds	2
   540   0000B0                     ??_print_rtc_data_time:
   541                           
   542                           ; 1 bytes @ 0x50
   543   0000B0                     	ds	6
   544                           
   545                           	psect	cstackCOMRAM
   546   000001                     __pcstackCOMRAM:
   547                           	callstack 0
   548   000001                     I2C_MasterSendTxData@data:
   549                           	callstack 0
   550   000001                     i2I2C_SetBuffer@buffer:
   551                           	callstack 0
   552   000001                     i2I2C_SetCallback@cb:
   553                           	callstack 0
   554                           
   555                           ; 2 bytes @ 0x0
   556   000001                     	ds	1
   557   000002                     
   558                           ; 1 bytes @ 0x1
   559   000002                     	ds	1
   560   000003                     i2I2C_SetBuffer@bufferSize:
   561                           	callstack 0
   562   000003                     i2I2C_SetCallback@ptr:
   563                           	callstack 0
   564                           
   565                           ; 2 bytes @ 0x2
   566   000003                     	ds	2
   567   000005                     i2I2C_SetCallback@idx:
   568                           	callstack 0
   569                           
   570                           ; 1 bytes @ 0x4
   571   000005                     	ds	1
   572   000006                     i2I2C_SetDataCompleteCallback@cb:
   573                           	callstack 0
   574                           
   575                           ; 2 bytes @ 0x5
   576   000006                     	ds	2
   577   000008                     i2I2C_SetDataCompleteCallback@ptr:
   578                           	callstack 0
   579                           
   580                           ; 2 bytes @ 0x7
   581   000008                     	ds	2
   582   00000A                     rd1RegCompleteHandler@ptr:
   583                           	callstack 0
   584   00000A                     rd2RegCompleteHandler@ptr:
   585                           	callstack 0
   586   00000A                     wr1RegCompleteHandler@ptr:
   587                           	callstack 0
   588   00000A                     wr2RegCompleteHandler@ptr:
   589                           	callstack 0
   590   00000A                     rdBlkRegCompleteHandler@ptr:
   591                           	callstack 0
   592   00000A                     I2C_CallbackReturnReset@funPtr:
   593                           	callstack 0
   594                           
   595                           ; 2 bytes @ 0x9
   596   00000A                     	ds	2
   597   00000C                     ??_I2C_DO_TX:
   598   00000C                     ??_I2C_DO_RX:
   599   00000C                     ??_I2C_DO_TX_EMPTY:
   600   00000C                     ??_I2C_DO_ADDRESS_NACK:
   601   00000C                     
   602                           ; 1 bytes @ 0xB
   603   00000C                     	ds	2
   604   00000E                     ??_I2C_MasterFsm:
   605                           
   606                           ; 1 bytes @ 0xD
   607   00000E                     	ds	2
   608   000010                     ??_INTERRUPT_InterruptManager:
   609                           
   610                           ; 1 bytes @ 0xF
   611   000010                     	ds	10
   612   00001A                     EUSART_Write@txData:
   613                           	callstack 0
   614   00001A                     I2C_Close@returnValue:
   615                           	callstack 0
   616   00001A                     I2C_MasterOperation@read:
   617                           	callstack 0
   618   00001A                     EUSART_SetFramingErrorHandler@interruptHandler:
   619                           	callstack 0
   620   00001A                     EUSART_SetOverrunErrorHandler@interruptHandler:
   621                           	callstack 0
   622   00001A                     EUSART_SetErrorHandler@interruptHandler:
   623                           	callstack 0
   624   00001A                     I2C_SetBuffer@buffer:
   625                           	callstack 0
   626   00001A                     I2C_SetInterruptHandler@InterruptHandler:
   627                           	callstack 0
   628   00001A                     I2C_SetCallback@cb:
   629                           	callstack 0
   630   00001A                     fputc@c:
   631                           	callstack 0
   632                           
   633                           ; 2 bytes @ 0x19
   634   00001A                     	ds	1
   635   00001B                     I2C_MasterOperation@returnValue:
   636                           	callstack 0
   637   00001B                     EUSART_Write_string@data:
   638                           	callstack 0
   639                           
   640                           ; 2 bytes @ 0x1A
   641   00001B                     	ds	1
   642   00001C                     I2C_Open@address:
   643                           	callstack 0
   644   00001C                     I2C_SetBuffer@bufferSize:
   645                           	callstack 0
   646   00001C                     I2C_SetCallback@ptr:
   647                           	callstack 0
   648   00001C                     fputc@fp:
   649                           	callstack 0
   650                           
   651                           ; 2 bytes @ 0x1B
   652   00001C                     	ds	1
   653   00001D                     EUSART_Write_string@i:
   654                           	callstack 0
   655   00001D                     I2C_Open@returnValue:
   656                           	callstack 0
   657                           
   658                           ; 1 bytes @ 0x1C
   659   00001D                     	ds	1
   660   00001E                     ??_fputc:
   661   00001E                     I2C_SetCallback@idx:
   662                           	callstack 0
   663                           
   664                           ; 1 bytes @ 0x1D
   665   00001E                     	ds	1
   666   00001F                     I2C_SetDataCompleteCallback@cb:
   667                           	callstack 0
   668   00001F                     I2C_SetAddressNackCallback@cb:
   669                           	callstack 0
   670                           
   671                           ; 2 bytes @ 0x1E
   672   00001F                     	ds	2
   673   000021                     I2C_SetDataCompleteCallback@ptr:
   674                           	callstack 0
   675   000021                     I2C_SetAddressNackCallback@ptr:
   676                           	callstack 0
   677                           
   678                           ; 2 bytes @ 0x20
   679   000021                     	ds	2
   680   000023                     I2C_Read1ByteRegister@reg:
   681                           	callstack 0
   682   000023                     I2C_Write1ByteRegister@reg:
   683                           	callstack 0
   684   000023                     fputs@s:
   685                           	callstack 0
   686                           
   687                           ; 2 bytes @ 0x22
   688   000023                     	ds	1
   689   000024                     I2C_Read1ByteRegister@address:
   690                           	callstack 0
   691   000024                     I2C_Write1ByteRegister@data:
   692                           	callstack 0
   693                           
   694                           ; 1 bytes @ 0x23
   695   000024                     	ds	1
   696   000025                     I2C_Read1ByteRegister@returnValue:
   697                           	callstack 0
   698   000025                     I2C_Write1ByteRegister@address:
   699                           	callstack 0
   700   000025                     fputs@fp:
   701                           	callstack 0
   702                           
   703                           ; 2 bytes @ 0x24
   704   000025                     	ds	1
   705   000026                     eeprom_24C01C_write_byte@byte_address:
   706                           	callstack 0
   707   000026                     eeprom_24C01C_read_byte@byte_address:
   708                           	callstack 0
   709   000026                     Temp_sensor_TC74_Read@reg:
   710                           	callstack 0
   711                           
   712                           ; 1 bytes @ 0x25
   713   000026                     	ds	1
   714   000027                     eeprom_24C01C_write_byte@data:
   715                           	callstack 0
   716   000027                     eeprom_24C01C_read_byte@eeprom_id:
   717                           	callstack 0
   718   000027                     Temp_sensor_TC74_Read@address:
   719                           	callstack 0
   720   000027                     fputs@c:
   721                           	callstack 0
   722                           
   723                           ; 1 bytes @ 0x26
   724   000027                     	ds	1
   725   000028                     eeprom_24C01C_write_byte@eeprom_id:
   726                           	callstack 0
   727   000028                     fputs@i:
   728                           	callstack 0
   729                           
   730                           ; 2 bytes @ 0x27
   731   000028                     	ds	2
   732   00002A                     ??_pad:
   733                           
   734                           ; 1 bytes @ 0x29
   735   00002A                     	ds	1
   736   00002B                     
   737                           ; 1 bytes @ 0x2A
   738 ;;
   739 ;;Main: autosize = 0, tempsize = 2, incstack = 0, save=0
   740 ;;
   741 ;; *************** function _main *****************
   742 ;; Defined at:
   743 ;;		line 14 in file "main.c"
   744 ;; Parameters:    Size  Location     Type
   745 ;;		None
   746 ;; Auto vars:     Size  Location     Type
   747 ;;		None
   748 ;; Return value:  Size  Location     Type
   749 ;;                  1    wreg      void 
   750 ;; Registers used:
   751 ;;		wreg, fsr0l, fsr0h, fsr1l, fsr1h, fsr2l, fsr2h, status,2, status,0, tblptrl, tblptrh, tblptru, prodl, prodh, cstack
   752 ;; Tracked objects:
   753 ;;		On entry : 0/0
   754 ;;		On exit  : 0/0
   755 ;;		Unchanged: 0/0
   756 ;; Data sizes:     COMRAM   BANK0   BANK1   BANK2   BANK3   BANK4   BANK5   BANK6   BANK7   BANK8   BANK9  BANK10  BANK1
      +1  BANK12  BANK13  BANK14  BANK15
   757 ;;      Params:         0       0       0       0       0       0       0       0       0       0       0       0       
      +0       0       0       0       0
   758 ;;      Locals:         0       0       0       0       0       0       0       0       0       0       0       0       
      +0       0       0       0       0
   759 ;;      Temps:          0       0       2       0       0       0       0       0       0       0       0       0       
      +0       0       0       0       0
   760 ;;      Totals:         0       0       2       0       0       0       0       0       0       0       0       0       
      +0       0       0       0       0
   761 ;;Total ram usage:        2 bytes
   762 ;; Hardware stack levels required when called: 16
   763 ;; This function calls:
   764 ;;		_I2C_Write1ByteRegister
   765 ;;		_SYSTEM_Initialize
   766 ;;		_Temp_sensor_TC74_Read
   767 ;;		_eeprom_24C01C_read_byte
   768 ;;		_eeprom_24C01C_write_byte
   769 ;;		_print_rtc_data_time
   770 ;;		_rtc_get_value
   771 ;; This function is called by:
   772 ;;		Startup code after reset
   773 ;; This function uses a non-reentrant model
   774 ;;
   775                           
   776                           	psect	text0
   777   0016CC                     __ptext0:
   778                           	callstack 0
   779   0016CC                     _main:
   780                           	callstack 15
   781   0016CC                     
   782                           ;main.c: 17:     SYSTEM_Initialize();
   783   0016CC  EC81  F00F         	call	_SYSTEM_Initialize	;wreg free
   784   0016D0                     
   785                           ;main.c: 21:    (INTCONbits.GIE = 1);
   786   0016D0  8EF2               	bsf	242,7,c	;volatile
   787   0016D2                     
   788                           ;main.c: 25:     (INTCONbits.PEIE = 1);
   789   0016D2  8CF2               	bsf	242,6,c	;volatile
   790   0016D4                     
   791                           ;main.c: 27: eeprom_24C01C_write_byte(81,0x08,5);
   792   0016D4  0E08               	movlw	8
   793   0016D6  6E26               	movwf	eeprom_24C01C_write_byte@byte_address^0,c
   794   0016D8  0E05               	movlw	5
   795   0016DA  6E27               	movwf	eeprom_24C01C_write_byte@data^0,c
   796   0016DC  0E51               	movlw	81
   797   0016DE  EC45  F00F         	call	_eeprom_24C01C_write_byte
   798   0016E2                     
   799                           ;main.c: 28: eeprom_24C01C_write_byte(83,0x08,6);
   800   0016E2  0E08               	movlw	8
   801   0016E4  6E26               	movwf	eeprom_24C01C_write_byte@byte_address^0,c
   802   0016E6  0E06               	movlw	6
   803   0016E8  6E27               	movwf	eeprom_24C01C_write_byte@data^0,c
   804   0016EA  0E53               	movlw	83
   805   0016EC  EC45  F00F         	call	_eeprom_24C01C_write_byte
   806   0016F0                     
   807                           ;main.c: 29: data_1=eeprom_24C01C_read_byte(81,0x08);
   808   0016F0  0E08               	movlw	8
   809   0016F2  6E26               	movwf	eeprom_24C01C_read_byte@byte_address^0,c
   810   0016F4  0E51               	movlw	81
   811   0016F6  ECB0  F00F         	call	_eeprom_24C01C_read_byte
   812   0016FA  6E3A               	movwf	_data_1^0,c
   813   0016FC                     
   814                           ;main.c: 30: data_2=eeprom_24C01C_read_byte(83,0x08);
   815   0016FC  0E08               	movlw	8
   816   0016FE  6E26               	movwf	eeprom_24C01C_read_byte@byte_address^0,c
   817   001700  0E53               	movlw	83
   818   001702  ECB0  F00F         	call	_eeprom_24C01C_read_byte
   819   001706  6E39               	movwf	_data_2^0,c
   820   001708                     l4010:
   821                           
   822                           ;main.c: 36:     {;main.c: 38:       temp_reading= Temp_sensor_TC74_Read(79,0x00);
   823   001708  0E00               	movlw	0
   824   00170A  6E26               	movwf	Temp_sensor_TC74_Read@reg^0,c
   825   00170C  0E4F               	movlw	79
   826   00170E  ECB7  F00F         	call	_Temp_sensor_TC74_Read
   827   001712  6E38               	movwf	_temp_reading^0,c
   828   001714                     
   829                           ;main.c: 40:       I2C_Write1ByteRegister(0x28,0x00,temp_reading);
   830   001714  0E00               	movlw	0
   831   001716  6E23               	movwf	I2C_Write1ByteRegister@reg^0,c
   832   001718  C038  F024         	movff	_temp_reading,I2C_Write1ByteRegister@data
   833   00171C  0E28               	movlw	40
   834   00171E  EC19  F00D         	call	_I2C_Write1ByteRegister
   835   001722                     
   836                           ;main.c: 42:       reading =rtc_get_value(104);
   837   001722  0E68               	movlw	104
   838   001724  ECC7  F00A         	call	_rtc_get_value
   839   001728  EE20  F03C         	lfsr	2,_reading
   840   00172C  0E06               	movlw	6
   841   00172E                     u1851:
   842   00172E  CFEB FFDB          	movff	plusw0,plusw2
   843   001732  06E8               	decf	wreg,f,c
   844   001734  E2FC               	bc	u1851
   845   001736                     
   846                           ;main.c: 44:       print_rtc_data_time(&reading);
   847   001736  0E3C               	movlw	low _reading
   848   001738  0100               	movlb	0	; () banked
   849   00173A  6FAE               	movwf	print_rtc_data_time@ptr& (0+255),b
   850   00173C  0E00               	movlw	high _reading
   851   00173E  6FAF               	movwf	(print_rtc_data_time@ptr+1)& (0+255),b
   852   001740  EC19  F00A         	call	_print_rtc_data_time	;wreg free
   853   001744                     
   854                           ;main.c: 45:        _delay((unsigned long)((500)*(16000000/4000.0)));
   855   001744  0E0B               	movlw	11
   856   001746  0101               	movlb	1	; () banked
   857   001748  6F33               	movwf	(??_main+1)& (0+255),b
   858   00174A  0E26               	movlw	38
   859   00174C  6F32               	movwf	??_main& (0+255),b
   860   00174E  0E5D               	movlw	93
   861   001750                     u1867:
   862   001750  2EE8               	decfsz	wreg,f,c
   863   001752  D7FE               	bra	u1867
   864   001754  2F32               	decfsz	??_main& (0+255),f,b
   865   001756  D7FC               	bra	u1867
   866   001758  2F33               	decfsz	(??_main+1)& (0+255),f,b
   867   00175A  D7FA               	bra	u1867
   868   00175C  F000 F000          	nop2	
   869   001760  EF84  F00B         	goto	l4010
   870   001764  EF62  F000         	goto	start
   871   001768                     __end_of_main:
   872                           	callstack 0
   873                           
   874 ;; *************** function _rtc_get_value *****************
   875 ;; Defined at:
   876 ;;		line 4 in file "RTC_Module/RTC.c"
   877 ;; Parameters:    Size  Location     Type
   878 ;;  adress          1    wreg     unsigned char 
   879 ;; Auto vars:     Size  Location     Type
   880 ;;  adress          1    7[BANK0 ] unsigned char 
   881 ;;  rtc_get_valu    7    8[BANK0 ] struct .
   882 ;; Return value:  Size  Location     Type
   883 ;;                  7    0[BANK0 ] struct .
   884 ;; Registers used:
   885 ;;		wreg, fsr0l, fsr0h, fsr1l, fsr1h, fsr2l, fsr2h, status,2, status,0, prodl, prodh, cstack
   886 ;; Tracked objects:
   887 ;;		On entry : 0/0
   888 ;;		On exit  : 0/0
   889 ;;		Unchanged: 0/0
   890 ;; Data sizes:     COMRAM   BANK0   BANK1   BANK2   BANK3   BANK4   BANK5   BANK6   BANK7   BANK8   BANK9  BANK10  BANK1
      +1  BANK12  BANK13  BANK14  BANK15
   891 ;;      Params:         0       7       0       0       0       0       0       0       0       0       0       0       
      +0       0       0       0       0
   892 ;;      Locals:         0       8       0       0       0       0       0       0       0       0       0       0       
      +0       0       0       0       0
   893 ;;      Temps:          0       0       0       0       0       0       0       0       0       0       0       0       
      +0       0       0       0       0
   894 ;;      Totals:         0      15       0       0       0       0       0       0       0       0       0       0       
      +0       0       0       0       0
   895 ;;Total ram usage:       15 bytes
   896 ;; Hardware stack levels used: 1
   897 ;; Hardware stack levels required when called: 11
   898 ;; This function calls:
   899 ;;		_I2C_Read1ByteRegister
   900 ;; This function is called by:
   901 ;;		_main
   902 ;; This function uses a non-reentrant model
   903 ;;
   904                           
   905                           	psect	text1
   906   00158E                     __ptext1:
   907                           	callstack 0
   908   00158E                     _rtc_get_value:
   909                           	callstack 19
   910                           
   911                           ;incstack = 0
   912                           ;rtc_get_value@adress stored from wreg
   913   00158E  0100               	movlb	0	; () banked
   914   001590  6F67               	movwf	rtc_get_value@adress& (0+255),b
   915   001592                     
   916                           ;RTC_Module/RTC.c: 6:   rtc_get_value_t rtc_get_value_local={0};
   917   001592  EE20  F02B         	lfsr	2,rtc_get_value@F476
   918   001596  EE10  F068         	lfsr	1,rtc_get_value@rtc_get_value_local
   919   00159A  0E06               	movlw	6
   920   00159C                     u1731:
   921   00159C  CFDB FFE3          	movff	plusw2,plusw1
   922   0015A0  06E8               	decf	wreg,f,c
   923   0015A2  E2FC               	bc	u1731
   924   0015A4                     
   925                           ;RTC_Module/RTC.c: 7:   rtc_get_value_local.Seconds= I2C_Read1ByteRegister(adress,0x00);
   926   0015A4  0E00               	movlw	0
   927   0015A6  6E23               	movwf	I2C_Read1ByteRegister@reg^0,c
   928   0015A8  0100               	movlb	0	; () banked
   929   0015AA  5167               	movf	rtc_get_value@adress& (0+255),w,b
   930   0015AC  ECA7  F00C         	call	_I2C_Read1ByteRegister
   931   0015B0  0100               	movlb	0	; () banked
   932   0015B2  6F68               	movwf	rtc_get_value@rtc_get_value_local& (0+255),b
   933   0015B4                     
   934                           ; BSR set to: 0
   935                           ;RTC_Module/RTC.c: 8:   (rtc_get_value_local.Seconds) &=127;
   936   0015B4  9F68               	bcf	rtc_get_value@rtc_get_value_local& (0+255),7,b
   937   0015B6                     
   938                           ; BSR set to: 0
   939                           ;RTC_Module/RTC.c: 9:   rtc_get_value_local.Minutes= I2C_Read1ByteRegister(adress,0x01);
   940   0015B6  0E01               	movlw	1
   941   0015B8  6E23               	movwf	I2C_Read1ByteRegister@reg^0,c
   942   0015BA  5167               	movf	rtc_get_value@adress& (0+255),w,b
   943   0015BC  ECA7  F00C         	call	_I2C_Read1ByteRegister
   944   0015C0  0100               	movlb	0	; () banked
   945   0015C2  6F69               	movwf	(rtc_get_value@rtc_get_value_local+1)& (0+255),b
   946   0015C4                     
   947                           ; BSR set to: 0
   948                           ;RTC_Module/RTC.c: 10: (rtc_get_value_local.Minutes) &=127;
   949   0015C4  9F69               	bcf	(rtc_get_value@rtc_get_value_local+1)& (0+255),7,b
   950   0015C6                     
   951                           ; BSR set to: 0
   952                           ;RTC_Module/RTC.c: 11:   rtc_get_value_local.Houres= I2C_Read1ByteRegister(adress,0x02);
   953   0015C6  0E02               	movlw	2
   954   0015C8  6E23               	movwf	I2C_Read1ByteRegister@reg^0,c
   955   0015CA  5167               	movf	rtc_get_value@adress& (0+255),w,b
   956   0015CC  ECA7  F00C         	call	_I2C_Read1ByteRegister
   957   0015D0  0100               	movlb	0	; () banked
   958   0015D2  6F6A               	movwf	(rtc_get_value@rtc_get_value_local+2)& (0+255),b
   959   0015D4                     
   960                           ; BSR set to: 0
   961                           ;RTC_Module/RTC.c: 12:   (rtc_get_value_local.Houres) &=127;
   962   0015D4  9F6A               	bcf	(rtc_get_value@rtc_get_value_local+2)& (0+255),7,b
   963   0015D6                     
   964                           ; BSR set to: 0
   965                           ;RTC_Module/RTC.c: 13:   rtc_get_value_local.Day= I2C_Read1ByteRegister(adress,0x03);
   966   0015D6  0E03               	movlw	3
   967   0015D8  6E23               	movwf	I2C_Read1ByteRegister@reg^0,c
   968   0015DA  5167               	movf	rtc_get_value@adress& (0+255),w,b
   969   0015DC  ECA7  F00C         	call	_I2C_Read1ByteRegister
   970   0015E0  0100               	movlb	0	; () banked
   971   0015E2  6F6B               	movwf	(rtc_get_value@rtc_get_value_local+3)& (0+255),b
   972   0015E4                     
   973                           ; BSR set to: 0
   974                           ;RTC_Module/RTC.c: 14:   (rtc_get_value_local.Day) &=7;
   975   0015E4  0E07               	movlw	7
   976   0015E6  176B               	andwf	(rtc_get_value@rtc_get_value_local+3)& (0+255),f,b
   977   0015E8                     
   978                           ; BSR set to: 0
   979                           ;RTC_Module/RTC.c: 15:   rtc_get_value_local.Date= I2C_Read1ByteRegister(adress,0x04);
   980   0015E8  0E04               	movlw	4
   981   0015EA  6E23               	movwf	I2C_Read1ByteRegister@reg^0,c
   982   0015EC  5167               	movf	rtc_get_value@adress& (0+255),w,b
   983   0015EE  ECA7  F00C         	call	_I2C_Read1ByteRegister
   984   0015F2  0100               	movlb	0	; () banked
   985   0015F4  6F6E               	movwf	(rtc_get_value@rtc_get_value_local+6)& (0+255),b
   986   0015F6                     
   987                           ; BSR set to: 0
   988                           ;RTC_Module/RTC.c: 16:   (rtc_get_value_local.Date) &=63;
   989   0015F6  0E3F               	movlw	63
   990   0015F8  176E               	andwf	(rtc_get_value@rtc_get_value_local+6)& (0+255),f,b
   991   0015FA                     
   992                           ; BSR set to: 0
   993                           ;RTC_Module/RTC.c: 17:   rtc_get_value_local.Month= I2C_Read1ByteRegister(adress,0x05);
   994   0015FA  0E05               	movlw	5
   995   0015FC  6E23               	movwf	I2C_Read1ByteRegister@reg^0,c
   996   0015FE  5167               	movf	rtc_get_value@adress& (0+255),w,b
   997   001600  ECA7  F00C         	call	_I2C_Read1ByteRegister
   998   001604  0100               	movlb	0	; () banked
   999   001606  6F6C               	movwf	(rtc_get_value@rtc_get_value_local+4)& (0+255),b
  1000   001608                     
  1001                           ; BSR set to: 0
  1002                           ;RTC_Module/RTC.c: 18:   (rtc_get_value_local.Month) &=31;
  1003   001608  0E1F               	movlw	31
  1004   00160A  176C               	andwf	(rtc_get_value@rtc_get_value_local+4)& (0+255),f,b
  1005   00160C                     
  1006                           ; BSR set to: 0
  1007                           ;RTC_Module/RTC.c: 19:   rtc_get_value_local.Year= I2C_Read1ByteRegister(adress,0x06);
  1008   00160C  0E06               	movlw	6
  1009   00160E  6E23               	movwf	I2C_Read1ByteRegister@reg^0,c
  1010   001610  5167               	movf	rtc_get_value@adress& (0+255),w,b
  1011   001612  ECA7  F00C         	call	_I2C_Read1ByteRegister
  1012   001616  0100               	movlb	0	; () banked
  1013   001618  6F6D               	movwf	(rtc_get_value@rtc_get_value_local+5)& (0+255),b
  1014   00161A                     
  1015                           ; BSR set to: 0
  1016                           ;RTC_Module/RTC.c: 20:   return rtc_get_value_local;
  1017   00161A  EE20  F068         	lfsr	2,rtc_get_value@rtc_get_value_local
  1018   00161E  EE00  F060         	lfsr	0,?_rtc_get_value
  1019   001622  0E06               	movlw	6
  1020   001624                     u1741:
  1021   001624  CFDB FFEB          	movff	plusw2,plusw0
  1022   001628  06E8               	decf	wreg,f,c
  1023   00162A  E2FC               	bc	u1741
  1024   00162C                     
  1025                           ; BSR set to: 0
  1026   00162C  0012               	return		;funcret
  1027   00162E                     __end_of_rtc_get_value:
  1028                           	callstack 0
  1029                           
  1030 ;; *************** function _print_rtc_data_time *****************
  1031 ;; Defined at:
  1032 ;;		line 3 in file "Print_RTC/print_rtc.c"
  1033 ;; Parameters:    Size  Location     Type
  1034 ;;  ptr             2   78[BANK0 ] PTR const struct .
  1035 ;;		 -> reading(7), 
  1036 ;; Auto vars:     Size  Location     Type
  1037 ;;		None
  1038 ;; Return value:  Size  Location     Type
  1039 ;;                  1    wreg      void 
  1040 ;; Registers used:
  1041 ;;		wreg, fsr1l, fsr1h, fsr2l, fsr2h, status,2, status,0, tblptrl, tblptrh, tblptru, cstack
  1042 ;; Tracked objects:
  1043 ;;		On entry : 0/0
  1044 ;;		On exit  : 0/0
  1045 ;;		Unchanged: 0/0
  1046 ;; Data sizes:     COMRAM   BANK0   BANK1   BANK2   BANK3   BANK4   BANK5   BANK6   BANK7   BANK8   BANK9  BANK10  BANK1
      +1  BANK12  BANK13  BANK14  BANK15
  1047 ;;      Params:         0       2       0       0       0       0       0       0       0       0       0       0       
      +0       0       0       0       0
  1048 ;;      Locals:         0       0       0       0       0       0       0       0       0       0       0       0       
      +0       0       0       0       0
  1049 ;;      Temps:          0       6       0       0       0       0       0       0       0       0       0       0       
      +0       0       0       0       0
  1050 ;;      Totals:         0       8       0       0       0       0       0       0       0       0       0       0       
      +0       0       0       0       0
  1051 ;;Total ram usage:        8 bytes
  1052 ;; Hardware stack levels used: 1
  1053 ;; Hardware stack levels required when called: 15
  1054 ;; This function calls:
  1055 ;;		_EUSART_Write_string
  1056 ;;		_sprintf
  1057 ;; This function is called by:
  1058 ;;		_main
  1059 ;; This function uses a non-reentrant model
  1060 ;;
  1061                           
  1062                           	psect	text2
  1063   001432                     __ptext2:
  1064                           	callstack 0
  1065   001432                     _print_rtc_data_time:
  1066                           	callstack 15
  1067   001432                     
  1068                           ;Print_RTC/print_rtc.c: 4:     if(((void*)0)!=ptr){
  1069   001432  0100               	movlb	0	; () banked
  1070   001434  51AE               	movf	print_rtc_data_time@ptr& (0+255),w,b
  1071   001436  11AF               	iorwf	(print_rtc_data_time@ptr+1)& (0+255),w,b
  1072   001438  B4D8               	btfsc	status,2,c
  1073   00143A  EF21  F00A         	goto	u1721
  1074   00143E  EF23  F00A         	goto	u1720
  1075   001442                     u1721:
  1076   001442  EF73  F00A         	goto	l714
  1077   001446                     u1720:
  1078   001446                     
  1079                           ; BSR set to: 0
  1080                           ;Print_RTC/print_rtc.c: 5:      sprintf(bufferWrite, "time : %x:%x:%x \rDate : %x:%x:%x"
      +                          ,ptr->Seconds, ptr->Minutes, ptr->Houres,ptr->Date,ptr->Month,ptr->Year );
  1081   001446  0E00               	movlw	low _bufferWrite
  1082   001448  6F90               	movwf	sprintf@s& (0+255),b
  1083   00144A  0E01               	movlw	high _bufferWrite
  1084   00144C  6F91               	movwf	(sprintf@s+1)& (0+255),b
  1085   00144E  0E21               	movlw	low STR_1
  1086   001450  6F92               	movwf	sprintf@fmt& (0+255),b
  1087   001452  0E10               	movlw	high STR_1
  1088   001454  6F93               	movwf	(sprintf@fmt+1)& (0+255),b
  1089   001456  C0AE  FFD9         	movff	print_rtc_data_time@ptr,fsr2l
  1090   00145A  C0AF  FFDA         	movff	print_rtc_data_time@ptr+1,fsr2h
  1091   00145E  50DF               	movf	indf2,w,c
  1092   001460  6FB0               	movwf	??_print_rtc_data_time& (0+255),b
  1093   001462  51B0               	movf	??_print_rtc_data_time& (0+255),w,b
  1094   001464  6F94               	movwf	(?_sprintf+4)& (0+255),b
  1095   001466  6B95               	clrf	(?_sprintf+5)& (0+255),b
  1096   001468  EE20 F001          	lfsr	2,1
  1097   00146C  51AE               	movf	print_rtc_data_time@ptr& (0+255),w,b
  1098   00146E  26D9               	addwf	fsr2l,f,c
  1099   001470  51AF               	movf	(print_rtc_data_time@ptr+1)& (0+255),w,b
  1100   001472  22DA               	addwfc	fsr2h,f,c
  1101   001474  50DF               	movf	indf2,w,c
  1102   001476  6FB1               	movwf	(??_print_rtc_data_time+1)& (0+255),b
  1103   001478  51B1               	movf	(??_print_rtc_data_time+1)& (0+255),w,b
  1104   00147A  6F96               	movwf	(?_sprintf+6)& (0+255),b
  1105   00147C  6B97               	clrf	(?_sprintf+7)& (0+255),b
  1106   00147E  EE20 F002          	lfsr	2,2
  1107   001482  51AE               	movf	print_rtc_data_time@ptr& (0+255),w,b
  1108   001484  26D9               	addwf	fsr2l,f,c
  1109   001486  51AF               	movf	(print_rtc_data_time@ptr+1)& (0+255),w,b
  1110   001488  22DA               	addwfc	fsr2h,f,c
  1111   00148A  50DF               	movf	indf2,w,c
  1112   00148C  6FB2               	movwf	(??_print_rtc_data_time+2)& (0+255),b
  1113   00148E  51B2               	movf	(??_print_rtc_data_time+2)& (0+255),w,b
  1114   001490  6F98               	movwf	(?_sprintf+8)& (0+255),b
  1115   001492  6B99               	clrf	(?_sprintf+9)& (0+255),b
  1116   001494  EE20 F006          	lfsr	2,6
  1117   001498  51AE               	movf	print_rtc_data_time@ptr& (0+255),w,b
  1118   00149A  26D9               	addwf	fsr2l,f,c
  1119   00149C  51AF               	movf	(print_rtc_data_time@ptr+1)& (0+255),w,b
  1120   00149E  22DA               	addwfc	fsr2h,f,c
  1121   0014A0  50DF               	movf	indf2,w,c
  1122   0014A2  6FB3               	movwf	(??_print_rtc_data_time+3)& (0+255),b
  1123   0014A4  51B3               	movf	(??_print_rtc_data_time+3)& (0+255),w,b
  1124   0014A6  6F9A               	movwf	(?_sprintf+10)& (0+255),b
  1125   0014A8  6B9B               	clrf	(?_sprintf+11)& (0+255),b
  1126   0014AA  EE20 F004          	lfsr	2,4
  1127   0014AE  51AE               	movf	print_rtc_data_time@ptr& (0+255),w,b
  1128   0014B0  26D9               	addwf	fsr2l,f,c
  1129   0014B2  51AF               	movf	(print_rtc_data_time@ptr+1)& (0+255),w,b
  1130   0014B4  22DA               	addwfc	fsr2h,f,c
  1131   0014B6  50DF               	movf	indf2,w,c
  1132   0014B8  6FB4               	movwf	(??_print_rtc_data_time+4)& (0+255),b
  1133   0014BA  51B4               	movf	(??_print_rtc_data_time+4)& (0+255),w,b
  1134   0014BC  6F9C               	movwf	(?_sprintf+12)& (0+255),b
  1135   0014BE  6B9D               	clrf	(?_sprintf+13)& (0+255),b
  1136   0014C0  EE20 F005          	lfsr	2,5
  1137   0014C4  51AE               	movf	print_rtc_data_time@ptr& (0+255),w,b
  1138   0014C6  26D9               	addwf	fsr2l,f,c
  1139   0014C8  51AF               	movf	(print_rtc_data_time@ptr+1)& (0+255),w,b
  1140   0014CA  22DA               	addwfc	fsr2h,f,c
  1141   0014CC  50DF               	movf	indf2,w,c
  1142   0014CE  6FB5               	movwf	(??_print_rtc_data_time+5)& (0+255),b
  1143   0014D0  51B5               	movf	(??_print_rtc_data_time+5)& (0+255),w,b
  1144   0014D2  6F9E               	movwf	(?_sprintf+14)& (0+255),b
  1145   0014D4  6B9F               	clrf	(?_sprintf+15)& (0+255),b
  1146   0014D6  ECAD  F00D         	call	_sprintf	;wreg free
  1147   0014DA                     
  1148                           ;Print_RTC/print_rtc.c: 6:      EUSART_Write_string(bufferWrite);
  1149   0014DA  0E00               	movlw	low _bufferWrite
  1150   0014DC  6E1B               	movwf	EUSART_Write_string@data^0,c
  1151   0014DE  0E01               	movlw	high _bufferWrite
  1152   0014E0  6E1C               	movwf	(EUSART_Write_string@data+1)^0,c
  1153   0014E2  EC56  F00E         	call	_EUSART_Write_string	;wreg free
  1154   0014E6                     l714:
  1155   0014E6  0012               	return		;funcret
  1156   0014E8                     __end_of_print_rtc_data_time:
  1157                           	callstack 0
  1158                           
  1159 ;; *************** function _sprintf *****************
  1160 ;; Defined at:
  1161 ;;		line 9 in file "E:\Program Files\Microchip\xc8\v2.41\pic\sources\c99\common\nf_sprintf.c"
  1162 ;; Parameters:    Size  Location     Type
  1163 ;;  s               2   48[BANK0 ] PTR unsigned char 
  1164 ;;		 -> bufferWrite(50), 
  1165 ;;  fmt             2   50[BANK0 ] PTR const unsigned char 
  1166 ;;		 -> STR_1(33), 
  1167 ;; Auto vars:     Size  Location     Type
  1168 ;;  f              12   66[BANK0 ] struct _IO_FILE
  1169 ;;  ap              2   64[BANK0 ] PTR void [1]
  1170 ;;		 -> ?_sprintf(2), 
  1171 ;;  ret             2    0        int 
  1172 ;; Return value:  Size  Location     Type
  1173 ;;                  2   48[BANK0 ] int 
  1174 ;; Registers used:
  1175 ;;		wreg, fsr1l, fsr1h, fsr2l, fsr2h, status,2, status,0, tblptrl, tblptrh, tblptru, cstack
  1176 ;; Tracked objects:
  1177 ;;		On entry : 0/0
  1178 ;;		On exit  : 0/0
  1179 ;;		Unchanged: 0/0
  1180 ;; Data sizes:     COMRAM   BANK0   BANK1   BANK2   BANK3   BANK4   BANK5   BANK6   BANK7   BANK8   BANK9  BANK10  BANK1
      +1  BANK12  BANK13  BANK14  BANK15
  1181 ;;      Params:         0      16       0       0       0       0       0       0       0       0       0       0       
      +0       0       0       0       0
  1182 ;;      Locals:         0      14       0       0       0       0       0       0       0       0       0       0       
      +0       0       0       0       0
  1183 ;;      Temps:          0       0       0       0       0       0       0       0       0       0       0       0       
      +0       0       0       0       0
  1184 ;;      Totals:         0      30       0       0       0       0       0       0       0       0       0       0       
      +0       0       0       0       0
  1185 ;;Total ram usage:       30 bytes
  1186 ;; Hardware stack levels used: 1
  1187 ;; Hardware stack levels required when called: 14
  1188 ;; This function calls:
  1189 ;;		_vfprintf
  1190 ;; This function is called by:
  1191 ;;		_print_rtc_data_time
  1192 ;; This function uses a non-reentrant model
  1193 ;;
  1194                           
  1195                           	psect	text3
  1196   001B5A                     __ptext3:
  1197                           	callstack 0
  1198   001B5A                     _sprintf:
  1199                           	callstack 15
  1200   001B5A  0E94               	movlw	low (?_sprintf+4)
  1201   001B5C  0100               	movlb	0	; () banked
  1202   001B5E  6FA0               	movwf	sprintf@ap& (0+255),b
  1203   001B60  0E00               	movlw	high (?_sprintf+4)
  1204   001B62  6FA1               	movwf	(sprintf@ap+1)& (0+255),b
  1205   001B64  C090  F0A2         	movff	sprintf@s,sprintf@f
  1206   001B68  C091  F0A3         	movff	sprintf@s+1,sprintf@f+1
  1207   001B6C                     
  1208                           ; BSR set to: 0
  1209   001B6C  0E00               	movlw	0
  1210   001B6E  6FA6               	movwf	(sprintf@f+4)& (0+255),b
  1211   001B70  0E00               	movlw	0
  1212   001B72  6FA5               	movwf	(sprintf@f+3)& (0+255),b
  1213   001B74                     
  1214                           ; BSR set to: 0
  1215   001B74  0E00               	movlw	0
  1216   001B76  6FAD               	movwf	(sprintf@f+11)& (0+255),b
  1217   001B78  0E00               	movlw	0
  1218   001B7A  6FAC               	movwf	(sprintf@f+10)& (0+255),b
  1219   001B7C                     
  1220                           ; BSR set to: 0
  1221   001B7C  0EA2               	movlw	low sprintf@f
  1222   001B7E  6F88               	movwf	vfprintf@fp& (0+255),b
  1223   001B80  0E00               	movlw	high sprintf@f
  1224   001B82  6F89               	movwf	(vfprintf@fp+1)& (0+255),b
  1225   001B84  C092  F08A         	movff	sprintf@fmt,vfprintf@fmt
  1226   001B88  C093  F08B         	movff	sprintf@fmt+1,vfprintf@fmt+1
  1227   001B8C  0EA0               	movlw	low sprintf@ap
  1228   001B8E  6F8C               	movwf	vfprintf@ap& (0+255),b
  1229   001B90  0E00               	movlw	high sprintf@ap
  1230   001B92  6F8D               	movwf	(vfprintf@ap+1)& (0+255),b
  1231   001B94  EC83  F00D         	call	_vfprintf	;wreg free
  1232   001B98  0100               	movlb	0	; () banked
  1233   001B9A  51A5               	movf	(sprintf@f+3)& (0+255),w,b
  1234   001B9C  2590               	addwf	sprintf@s& (0+255),w,b
  1235   001B9E  6ED9               	movwf	fsr2l,c
  1236   001BA0  51A6               	movf	(sprintf@f+4)& (0+255),w,b
  1237   001BA2  2191               	addwfc	(sprintf@s+1)& (0+255),w,b
  1238   001BA4  6EDA               	movwf	fsr2h,c
  1239   001BA6  6ADF               	clrf	indf2,c
  1240   001BA8                     
  1241                           ; BSR set to: 0
  1242   001BA8  0012               	return		;funcret
  1243   001BAA                     __end_of_sprintf:
  1244                           	callstack 0
  1245                           
  1246 ;; *************** function _vfprintf *****************
  1247 ;; Defined at:
  1248 ;;		line 1546 in file "E:\Program Files\Microchip\xc8\v2.41\pic\sources\c99\common\doprnt.c"
  1249 ;; Parameters:    Size  Location     Type
  1250 ;;  fp              2   40[BANK0 ] PTR struct _IO_FILE
  1251 ;;		 -> sprintf@f(12), 
  1252 ;;  fmt             2   42[BANK0 ] PTR const unsigned char 
  1253 ;;		 -> STR_1(33), 
  1254 ;;  ap              2   44[BANK0 ] PTR PTR void 
  1255 ;;		 -> sprintf@ap(2), 
  1256 ;; Auto vars:     Size  Location     Type
  1257 ;;  cfmt            2   46[BANK0 ] PTR unsigned char 
  1258 ;;		 -> STR_1(33), 
  1259 ;; Return value:  Size  Location     Type
  1260 ;;                  2   40[BANK0 ] int 
  1261 ;; Registers used:
  1262 ;;		wreg, fsr1l, fsr1h, fsr2l, fsr2h, status,2, status,0, tblptrl, tblptrh, tblptru, cstack
  1263 ;; Tracked objects:
  1264 ;;		On entry : 0/0
  1265 ;;		On exit  : 0/0
  1266 ;;		Unchanged: 0/0
  1267 ;; Data sizes:     COMRAM   BANK0   BANK1   BANK2   BANK3   BANK4   BANK5   BANK6   BANK7   BANK8   BANK9  BANK10  BANK1
      +1  BANK12  BANK13  BANK14  BANK15
  1268 ;;      Params:         0       6       0       0       0       0       0       0       0       0       0       0       
      +0       0       0       0       0
  1269 ;;      Locals:         0       2       0       0       0       0       0       0       0       0       0       0       
      +0       0       0       0       0
  1270 ;;      Temps:          0       0       0       0       0       0       0       0       0       0       0       0       
      +0       0       0       0       0
  1271 ;;      Totals:         0       8       0       0       0       0       0       0       0       0       0       0       
      +0       0       0       0       0
  1272 ;;Total ram usage:        8 bytes
  1273 ;; Hardware stack levels used: 1
  1274 ;; Hardware stack levels required when called: 13
  1275 ;; This function calls:
  1276 ;;		_vfpfcnvrt
  1277 ;; This function is called by:
  1278 ;;		_sprintf
  1279 ;; This function uses a non-reentrant model
  1280 ;;
  1281                           
  1282                           	psect	text4
  1283   001B06                     __ptext4:
  1284                           	callstack 0
  1285   001B06                     _vfprintf:
  1286                           	callstack 15
  1287   001B06                     
  1288                           ;E:\Program Files\Microchip\xc8\v2.41\pic\sources\c99\common\doprnt.c: 1546: int vfprint
      +                          f(FILE *fp, const char *fmt, va_list ap);E:\Program Files\Microchip\xc8\v2.41\pic\source
      +                          s\c99\common\doprnt.c: 1547: {;E:\Program Files\Microchip\xc8\v2.41\pic\sources\c99\comm
      +                          on\doprnt.c: 1549:     char *cfmt;;E:\Program Files\Microchip\xc8\v2.41\pic\sources\c99\
      +                          common\doprnt.c: 1551:     cfmt = (char *)fmt;
  1289   001B06  C08A  F08E         	movff	vfprintf@fmt,vfprintf@cfmt
  1290   001B0A  C08B  F08F         	movff	vfprintf@fmt+1,vfprintf@cfmt+1
  1291                           
  1292                           ;E:\Program Files\Microchip\xc8\v2.41\pic\sources\c99\common\doprnt.c: 1555:     while (
      +                          *cfmt) {
  1293   001B0E  EF98  F00D         	goto	l3816
  1294   001B12                     l3814:
  1295                           
  1296                           ;E:\Program Files\Microchip\xc8\v2.41\pic\sources\c99\common\doprnt.c: 1559:    vfpfcnvr
      +                          t(fp, &cfmt, ap);
  1297   001B12  C088  F07A         	movff	vfprintf@fp,vfpfcnvrt@fp
  1298   001B16  C089  F07B         	movff	vfprintf@fp+1,vfpfcnvrt@fp+1
  1299   001B1A  0E8E               	movlw	low vfprintf@cfmt
  1300   001B1C  0100               	movlb	0	; () banked
  1301   001B1E  6F7C               	movwf	vfpfcnvrt@fmt& (0+255),b
  1302   001B20  0E00               	movlw	high vfprintf@cfmt
  1303   001B22  6F7D               	movwf	(vfpfcnvrt@fmt+1)& (0+255),b
  1304   001B24  C08C  F07E         	movff	vfprintf@ap,vfpfcnvrt@ap
  1305   001B28  C08D  F07F         	movff	vfprintf@ap+1,vfpfcnvrt@ap+1
  1306   001B2C  EC22  F008         	call	_vfpfcnvrt	;wreg free
  1307   001B30                     l3816:
  1308                           
  1309                           ;E:\Program Files\Microchip\xc8\v2.41\pic\sources\c99\common\doprnt.c: 1555:     while (
      +                          *cfmt) {
  1310   001B30  C08E  FFF6         	movff	vfprintf@cfmt,tblptrl
  1311   001B34  C08F  FFF7         	movff	vfprintf@cfmt+1,tblptrh
  1312   001B38                     	if	1	;Program memory is < 0x10000, tblptru is always zero
  1313   001B38  6AF8               	clrf	tblptru,c
  1314   001B3A                     	endif
  1315   001B3A                     	if	0	;tblptru may be non-zero
  1316   001B3A                     	endif
  1317   001B3A  0008               	tblrd		*
  1318   001B3C  50F5               	movf	tablat,w,c
  1319   001B3E  0900               	iorlw	0
  1320   001B40  A4D8               	btfss	status,2,c
  1321   001B42  EFA5  F00D         	goto	u1671
  1322   001B46  EFA7  F00D         	goto	u1670
  1323   001B4A                     u1671:
  1324   001B4A  EF89  F00D         	goto	l3814
  1325   001B4E                     u1670:
  1326   001B4E                     
  1327                           ;E:\Program Files\Microchip\xc8\v2.41\pic\sources\c99\common\doprnt.c: 1564:  return 0;
  1328   001B4E  0E00               	movlw	0
  1329   001B50  0100               	movlb	0	; () banked
  1330   001B52  6F89               	movwf	(?_vfprintf+1)& (0+255),b
  1331   001B54  0E00               	movlw	0
  1332   001B56  6F88               	movwf	?_vfprintf& (0+255),b
  1333   001B58                     
  1334                           ; BSR set to: 0
  1335   001B58  0012               	return		;funcret
  1336   001B5A                     __end_of_vfprintf:
  1337                           	callstack 0
  1338                           
  1339 ;; *************** function _vfpfcnvrt *****************
  1340 ;; Defined at:
  1341 ;;		line 1048 in file "E:\Program Files\Microchip\xc8\v2.41\pic\sources\c99\common\doprnt.c"
  1342 ;; Parameters:    Size  Location     Type
  1343 ;;  fp              2   26[BANK0 ] PTR struct _IO_FILE
  1344 ;;		 -> sprintf@f(12), 
  1345 ;;  fmt             2   28[BANK0 ] PTR PTR unsigned char 
  1346 ;;		 -> vfprintf@cfmt(2), 
  1347 ;;  ap              2   30[BANK0 ] PTR PTR void 
  1348 ;;		 -> sprintf@ap(2), 
  1349 ;; Auto vars:     Size  Location     Type
  1350 ;;  convarg         4   34[BANK0 ] struct .
  1351 ;;  cp              2   38[BANK0 ] PTR unsigned char 
  1352 ;;		 -> STR_1(33), 
  1353 ;;  i               2    0        int 
  1354 ;;  done            2    0        int 
  1355 ;;  c               1    0        unsigned char 
  1356 ;; Return value:  Size  Location     Type
  1357 ;;                  1    wreg      void 
  1358 ;; Registers used:
  1359 ;;		wreg, fsr1l, fsr1h, fsr2l, fsr2h, status,2, status,0, tblptrl, tblptrh, tblptru, cstack
  1360 ;; Tracked objects:
  1361 ;;		On entry : 0/0
  1362 ;;		On exit  : 0/0
  1363 ;;		Unchanged: 0/0
  1364 ;; Data sizes:     COMRAM   BANK0   BANK1   BANK2   BANK3   BANK4   BANK5   BANK6   BANK7   BANK8   BANK9  BANK10  BANK1
      +1  BANK12  BANK13  BANK14  BANK15
  1365 ;;      Params:         0       6       0       0       0       0       0       0       0       0       0       0       
      +0       0       0       0       0
  1366 ;;      Locals:         0       6       0       0       0       0       0       0       0       0       0       0       
      +0       0       0       0       0
  1367 ;;      Temps:          0       2       0       0       0       0       0       0       0       0       0       0       
      +0       0       0       0       0
  1368 ;;      Totals:         0      14       0       0       0       0       0       0       0       0       0       0       
      +0       0       0       0       0
  1369 ;;Total ram usage:       14 bytes
  1370 ;; Hardware stack levels used: 1
  1371 ;; Hardware stack levels required when called: 12
  1372 ;; This function calls:
  1373 ;;		_fputc
  1374 ;;		_xtoa
  1375 ;; This function is called by:
  1376 ;;		_vfprintf
  1377 ;; This function uses a non-reentrant model
  1378 ;;
  1379                           
  1380                           	psect	text5
  1381   001044                     __ptext5:
  1382                           	callstack 0
  1383   001044                     _vfpfcnvrt:
  1384                           	callstack 15
  1385   001044                     
  1386                           ;E:\Program Files\Microchip\xc8\v2.41\pic\sources\c99\common\doprnt.c: 1048: vfpfcnvrt(F
      +                          ILE *fp, char *fmt[], va_list ap);E:\Program Files\Microchip\xc8\v2.41\pic\sources\c99\c
      +                          ommon\doprnt.c: 1049: {;E:\Program Files\Microchip\xc8\v2.41\pic\sources\c99\common\dopr
      +                          nt.c: 1050:     char c, *cp;;E:\Program Files\Microchip\xc8\v2.41\pic\sources\c99\common
      +                          \doprnt.c: 1051:     int done, i;;E:\Program Files\Microchip\xc8\v2.41\pic\sources\c99\c
      +                          ommon\doprnt.c: 1059:  } convarg;;E:\Program Files\Microchip\xc8\v2.41\pic\sources\c99\c
      +                          ommon\doprnt.c: 1062:     if ((*fmt)[0] == '%') {
  1387   001044  C07C  FFD9         	movff	vfpfcnvrt@fmt,fsr2l
  1388   001048  C07D  FFDA         	movff	vfpfcnvrt@fmt+1,fsr2h
  1389   00104C  CFDE FFF6          	movff	postinc2,tblptrl
  1390   001050  CFDD FFF7          	movff	postdec2,tblptrh
  1391   001054                     	if	1	;Program memory is < 0x10000, tblptru is always zero
  1392   001054  6AF8               	clrf	tblptru,c
  1393   001056                     	endif
  1394   001056                     	if	0	;tblptru may be non-zero
  1395   001056                     	endif
  1396   001056  0008               	tblrd		*
  1397   001058  50F5               	movf	tablat,w,c
  1398   00105A  0A25               	xorlw	37
  1399   00105C  A4D8               	btfss	status,2,c
  1400   00105E  EF33  F008         	goto	u1621
  1401   001062  EF35  F008         	goto	u1620
  1402   001066                     u1621:
  1403   001066  EFAC  F008         	goto	l3720
  1404   00106A                     u1620:
  1405   00106A                     
  1406                           ;E:\Program Files\Microchip\xc8\v2.41\pic\sources\c99\common\doprnt.c: 1063:         ++*
      +                          fmt;
  1407   00106A  C07C  FFD9         	movff	vfpfcnvrt@fmt,fsr2l
  1408   00106E  C07D  FFDA         	movff	vfpfcnvrt@fmt+1,fsr2h
  1409   001072  2ADE               	incf	postinc2,f,c
  1410   001074  0E00               	movlw	0
  1411   001076  22DD               	addwfc	postdec2,f,c
  1412   001078                     
  1413                           ;E:\Program Files\Microchip\xc8\v2.41\pic\sources\c99\common\doprnt.c: 1065:         fla
      +                          gs = width = 0;
  1414   001078  0E00               	movlw	0
  1415   00107A  6E33               	movwf	(_width+1)^0,c
  1416   00107C  0E00               	movlw	0
  1417   00107E  6E32               	movwf	_width^0,c
  1418   001080  C032  F0DA         	movff	_width,_flags
  1419   001084                     
  1420                           ;E:\Program Files\Microchip\xc8\v2.41\pic\sources\c99\common\doprnt.c: 1066:         pre
      +                          c = -1;
  1421   001084  6834               	setf	_prec^0,c
  1422   001086  6835               	setf	(_prec+1)^0,c
  1423   001088                     
  1424                           ;E:\Program Files\Microchip\xc8\v2.41\pic\sources\c99\common\doprnt.c: 1265:   if (0
  1425   001088  C07C  FFD9         	movff	vfpfcnvrt@fmt,fsr2l
  1426   00108C  C07D  FFDA         	movff	vfpfcnvrt@fmt+1,fsr2h
  1427   001090  CFDE F086          	movff	postinc2,vfpfcnvrt@cp
  1428   001094  CFDD F087          	movff	postdec2,vfpfcnvrt@cp+1
  1429   001098  C086  FFF6         	movff	vfpfcnvrt@cp,tblptrl
  1430   00109C  C087  FFF7         	movff	vfpfcnvrt@cp+1,tblptrh
  1431   0010A0                     	if	1	;Program memory is < 0x10000, tblptru is always zero
  1432   0010A0  6AF8               	clrf	tblptru,c
  1433   0010A2                     	endif
  1434   0010A2                     	if	0	;tblptru may be non-zero
  1435   0010A2                     	endif
  1436   0010A2  0008               	tblrd		*
  1437   0010A4  50F5               	movf	tablat,w,c
  1438   0010A6  0A78               	xorlw	120
  1439   0010A8  A4D8               	btfss	status,2,c
  1440   0010AA  EF59  F008         	goto	u1631
  1441   0010AE  EF5B  F008         	goto	u1630
  1442   0010B2                     u1631:
  1443   0010B2  EFA3  F008         	goto	l3716
  1444   0010B6                     u1630:
  1445   0010B6                     
  1446                           ;E:\Program Files\Microchip\xc8\v2.41\pic\sources\c99\common\doprnt.c: 1278:     ) {;E:\
      +                          Program Files\Microchip\xc8\v2.41\pic\sources\c99\common\doprnt.c: 1321:    convarg.uint
      +                           = (vfpf_uint_t)(unsigned int)(*(unsigned int *)__va_arg(*(unsigned int **)ap, (unsigned
      +                           int)0));
  1447   0010B6  C07E  FFD9         	movff	vfpfcnvrt@ap,fsr2l
  1448   0010BA  C07F  FFDA         	movff	vfpfcnvrt@ap+1,fsr2h
  1449   0010BE  CFDF F080          	movff	indf2,??_vfpfcnvrt
  1450   0010C2  0E02               	movlw	2
  1451   0010C4  26DE               	addwf	postinc2,f,c
  1452   0010C6  CFDF F081          	movff	indf2,??_vfpfcnvrt+1
  1453   0010CA  0E00               	movlw	0
  1454   0010CC  22DD               	addwfc	postdec2,f,c
  1455   0010CE  C080  FFD9         	movff	??_vfpfcnvrt,fsr2l
  1456   0010D2  C081  FFDA         	movff	??_vfpfcnvrt+1,fsr2h
  1457   0010D6  CFDE F082          	movff	postinc2,vfpfcnvrt@convarg
  1458   0010DA  CFDD F083          	movff	postdec2,vfpfcnvrt@convarg+1
  1459                           
  1460                           ;E:\Program Files\Microchip\xc8\v2.41\pic\sources\c99\common\doprnt.c: 1323:    *fmt = c
      +                          p+1;
  1461   0010DE  0E01               	movlw	1
  1462   0010E0  0100               	movlb	0	; () banked
  1463   0010E2  2586               	addwf	vfpfcnvrt@cp& (0+255),w,b
  1464   0010E4  6F80               	movwf	??_vfpfcnvrt& (0+255),b
  1465   0010E6  0E00               	movlw	0
  1466   0010E8  2187               	addwfc	(vfpfcnvrt@cp+1)& (0+255),w,b
  1467   0010EA  6F81               	movwf	(??_vfpfcnvrt+1)& (0+255),b
  1468   0010EC  C07C  FFD9         	movff	vfpfcnvrt@fmt,fsr2l
  1469   0010F0  C07D  FFDA         	movff	vfpfcnvrt@fmt+1,fsr2h
  1470   0010F4  C080  FFDE         	movff	??_vfpfcnvrt,postinc2
  1471   0010F8  C081  FFDD         	movff	??_vfpfcnvrt+1,postdec2
  1472                           
  1473                           ;E:\Program Files\Microchip\xc8\v2.41\pic\sources\c99\common\doprnt.c: 1324:    switch (
      +                          *cp) {
  1474   0010FC  EF8C  F008         	goto	l3714
  1475   001100                     l3708:
  1476                           
  1477                           ; BSR set to: 0
  1478                           ;E:\Program Files\Microchip\xc8\v2.41\pic\sources\c99\common\doprnt.c: 1340:      return
      +                           (void) xtoa(fp,convarg.uint);;	Return value of _vfpfcnvrt is never used
  1479   001100  C07A  F06A         	movff	vfpfcnvrt@fp,xtoa@fp
  1480   001104  C07B  F06B         	movff	vfpfcnvrt@fp+1,xtoa@fp+1
  1481   001108  C082  F06C         	movff	vfpfcnvrt@convarg,xtoa@d
  1482   00110C  C083  F06D         	movff	vfpfcnvrt@convarg+1,xtoa@d+1
  1483   001110  ECC2  F008         	call	_xtoa	;wreg free
  1484   001114  EFC1  F008         	goto	l1496
  1485   001118                     l3714:
  1486                           
  1487                           ; BSR set to: 0
  1488   001118  C086  FFF6         	movff	vfpfcnvrt@cp,tblptrl
  1489   00111C  C087  FFF7         	movff	vfpfcnvrt@cp+1,tblptrh
  1490   001120                     	if	1	;Program memory is < 0x10000, tblptru is always zero
  1491   001120  6AF8               	clrf	tblptru,c
  1492   001122                     	endif
  1493   001122                     	if	0	;tblptru may be non-zero
  1494   001122                     	endif
  1495   001122  0008               	tblrd		*
  1496   001124  50F5               	movf	tablat,w,c
  1497   001126  6F80               	movwf	??_vfpfcnvrt& (0+255),b
  1498   001128  6B81               	clrf	(??_vfpfcnvrt+1)& (0+255),b
  1499                           
  1500                           ; Switch on 2 bytes has been partitioned into a top level switch of size 1, and 1 sub-sw
      +                          itches
  1501                           ; Switch size 1, requested type "simple"
  1502                           ; Number of cases is 1, Range of values is 0 to 0
  1503                           ; switch strategies available:
  1504                           ; Name         Instructions Cycles
  1505                           ; simple_byte            4     3 (average)
  1506                           ;	Chosen strategy is simple_byte
  1507   00112A  5181               	movf	(??_vfpfcnvrt+1)& (0+255),w,b
  1508   00112C  0A00               	xorlw	0	; case 0
  1509   00112E  B4D8               	btfsc	status,2,c
  1510   001130  EF9C  F008         	goto	l4120
  1511   001134  EFA3  F008         	goto	l3716
  1512   001138                     l4120:
  1513                           
  1514                           ; BSR set to: 0
  1515                           ; Switch size 1, requested type "simple"
  1516                           ; Number of cases is 1, Range of values is 120 to 120
  1517                           ; switch strategies available:
  1518                           ; Name         Instructions Cycles
  1519                           ; simple_byte            4     3 (average)
  1520                           ;	Chosen strategy is simple_byte
  1521   001138  5180               	movf	??_vfpfcnvrt& (0+255),w,b
  1522   00113A  0A78               	xorlw	120	; case 120
  1523   00113C  B4D8               	btfsc	status,2,c
  1524   00113E  EF80  F008         	goto	l3708
  1525   001142  EFA3  F008         	goto	l3716
  1526   001146                     l3716:
  1527                           
  1528                           ;E:\Program Files\Microchip\xc8\v2.41\pic\sources\c99\common\doprnt.c: 1535:         ++*
      +                          fmt;
  1529   001146  C07C  FFD9         	movff	vfpfcnvrt@fmt,fsr2l
  1530   00114A  C07D  FFDA         	movff	vfpfcnvrt@fmt+1,fsr2h
  1531   00114E  2ADE               	incf	postinc2,f,c
  1532   001150  0E00               	movlw	0
  1533   001152  22DD               	addwfc	postdec2,f,c
  1534   001154  EFC1  F008         	goto	l1496
  1535   001158                     l3720:
  1536                           
  1537                           ;E:\Program Files\Microchip\xc8\v2.41\pic\sources\c99\common\doprnt.c: 1540:     fputc((
      +                          int)(*fmt)[0], fp);
  1538   001158  C07C  FFD9         	movff	vfpfcnvrt@fmt,fsr2l
  1539   00115C  C07D  FFDA         	movff	vfpfcnvrt@fmt+1,fsr2h
  1540   001160  CFDE FFF6          	movff	postinc2,tblptrl
  1541   001164  CFDD FFF7          	movff	postdec2,tblptrh
  1542   001168                     	if	1	;Program memory is < 0x10000, tblptru is always zero
  1543   001168  6AF8               	clrf	tblptru,c
  1544   00116A                     	endif
  1545   00116A                     	if	0	;tblptru may be non-zero
  1546   00116A                     	endif
  1547   00116A  0008               	tblrd		*
  1548   00116C  50F5               	movf	tablat,w,c
  1549   00116E  6E1A               	movwf	fputc@c^0,c
  1550   001170  6A1B               	clrf	(fputc@c+1)^0,c
  1551   001172  C07A  F01C         	movff	vfpfcnvrt@fp,fputc@fp
  1552   001176  C07B  F01D         	movff	vfpfcnvrt@fp+1,fputc@fp+1
  1553   00117A  EC52  F009         	call	_fputc	;wreg free
  1554   00117E  EFA3  F008         	goto	l3716
  1555   001182                     l1496:
  1556   001182  0012               	return		;funcret
  1557   001184                     __end_of_vfpfcnvrt:
  1558                           	callstack 0
  1559                           
  1560 ;; *************** function _xtoa *****************
  1561 ;; Defined at:
  1562 ;;		line 955 in file "E:\Program Files\Microchip\xc8\v2.41\pic\sources\c99\common\doprnt.c"
  1563 ;; Parameters:    Size  Location     Type
  1564 ;;  fp              2   10[BANK0 ] PTR struct _IO_FILE
  1565 ;;		 -> sprintf@f(12), 
  1566 ;;  d               2   12[BANK0 ] unsigned int 
  1567 ;; Auto vars:     Size  Location     Type
  1568 ;;  i               2   23[BANK0 ] int 
  1569 ;;  p               2   21[BANK0 ] int 
  1570 ;;  w               2   17[BANK0 ] int 
  1571 ;;  c               1   25[BANK0 ] unsigned char 
  1572 ;; Return value:  Size  Location     Type
  1573 ;;                  1    wreg      void 
  1574 ;; Registers used:
  1575 ;;		wreg, fsr1l, fsr1h, fsr2l, fsr2h, status,2, status,0, cstack
  1576 ;; Tracked objects:
  1577 ;;		On entry : 0/0
  1578 ;;		On exit  : 0/0
  1579 ;;		Unchanged: 0/0
  1580 ;; Data sizes:     COMRAM   BANK0   BANK1   BANK2   BANK3   BANK4   BANK5   BANK6   BANK7   BANK8   BANK9  BANK10  BANK1
      +1  BANK12  BANK13  BANK14  BANK15
  1581 ;;      Params:         0       4       0       0       0       0       0       0       0       0       0       0       
      +0       0       0       0       0
  1582 ;;      Locals:         0       9       0       0       0       0       0       0       0       0       0       0       
      +0       0       0       0       0
  1583 ;;      Temps:          0       3       0       0       0       0       0       0       0       0       0       0       
      +0       0       0       0       0
  1584 ;;      Totals:         0      16       0       0       0       0       0       0       0       0       0       0       
      +0       0       0       0       0
  1585 ;;Total ram usage:       16 bytes
  1586 ;; Hardware stack levels used: 1
  1587 ;; Hardware stack levels required when called: 11
  1588 ;; This function calls:
  1589 ;;		_pad
  1590 ;; This function is called by:
  1591 ;;		_vfpfcnvrt
  1592 ;; This function uses a non-reentrant model
  1593 ;;
  1594                           
  1595                           	psect	text6
  1596   001184                     __ptext6:
  1597                           	callstack 0
  1598   001184                     _xtoa:
  1599                           	callstack 15
  1600   001184                     
  1601                           ;E:\Program Files\Microchip\xc8\v2.41\pic\sources\c99\common\doprnt.c: 955: static void 
      +                          xtoa(FILE *fp, vfpf_uint_t d);E:\Program Files\Microchip\xc8\v2.41\pic\sources\c99\commo
      +                          n\doprnt.c: 958: {;E:\Program Files\Microchip\xc8\v2.41\pic\sources\c99\common\doprnt.c:
      +                           959:  char c;;E:\Program Files\Microchip\xc8\v2.41\pic\sources\c99\common\doprnt.c: 960
      +                          :     int i, p, w;;E:\Program Files\Microchip\xc8\v2.41\pic\sources\c99\common\doprnt.c:
      +                           971:     p = (0 <= prec) ? prec : 1;
  1602   001184  BE35               	btfsc	(_prec+1)^0,7,c
  1603   001186  EFC9  F008         	goto	u1520
  1604   00118A  EFC7  F008         	goto	u1521
  1605   00118E                     u1521:
  1606   00118E  EFD0  F008         	goto	l1475
  1607   001192                     u1520:
  1608   001192  0E00               	movlw	0
  1609   001194  0100               	movlb	0	; () banked
  1610   001196  6F76               	movwf	(xtoa@p+1)& (0+255),b
  1611   001198  0E01               	movlw	1
  1612   00119A  6F75               	movwf	xtoa@p& (0+255),b
  1613   00119C  EFD4  F008         	goto	l1477
  1614   0011A0                     l1475:
  1615   0011A0  C034  F075         	movff	_prec,xtoa@p
  1616   0011A4  C035  F076         	movff	_prec+1,xtoa@p+1
  1617   0011A8                     l1477:
  1618                           
  1619                           ;E:\Program Files\Microchip\xc8\v2.41\pic\sources\c99\common\doprnt.c: 972:     w = widt
      +                          h;
  1620   0011A8  C032  F071         	movff	_width,xtoa@w
  1621   0011AC  C033  F072         	movff	_width+1,xtoa@w+1
  1622   0011B0                     
  1623                           ;E:\Program Files\Microchip\xc8\v2.41\pic\sources\c99\common\doprnt.c: 981:     i = size
      +                          of(dbuf) - 1;
  1624   0011B0  0E00               	movlw	0
  1625   0011B2  0100               	movlb	0	; () banked
  1626   0011B4  6F78               	movwf	(xtoa@i+1)& (0+255),b
  1627   0011B6  0E1F               	movlw	31
  1628   0011B8  6F77               	movwf	xtoa@i& (0+255),b
  1629   0011BA                     
  1630                           ; BSR set to: 0
  1631                           ;E:\Program Files\Microchip\xc8\v2.41\pic\sources\c99\common\doprnt.c: 982:     dbuf[i] 
      +                          = '\0';
  1632   0011BA  0E00               	movlw	0
  1633   0011BC  6FFA               	movwf	(_dbuf+31)& (0+255),b
  1634                           
  1635                           ;E:\Program Files\Microchip\xc8\v2.41\pic\sources\c99\common\doprnt.c: 983:     while (!
      +                          (i < 2) && (d || (0 < p)
  1636   0011BE  EF1D  F009         	goto	l3640
  1637   0011C2                     l3620:
  1638                           
  1639                           ; BSR set to: 0
  1640                           ;E:\Program Files\Microchip\xc8\v2.41\pic\sources\c99\common\doprnt.c: 987:     )) {;E:\
      +                          Program Files\Microchip\xc8\v2.41\pic\sources\c99\common\doprnt.c: 988:         --i;
  1641   0011C2  0777               	decf	xtoa@i& (0+255),f,b
  1642   0011C4  A0D8               	btfss	status,0,c
  1643   0011C6  0778               	decf	(xtoa@i+1)& (0+255),f,b
  1644   0011C8                     
  1645                           ; BSR set to: 0
  1646                           ;E:\Program Files\Microchip\xc8\v2.41\pic\sources\c99\common\doprnt.c: 989:         c = 
      +                          d & 0x0f;
  1647   0011C8  516C               	movf	xtoa@d& (0+255),w,b
  1648   0011CA  0B0F               	andlw	15
  1649   0011CC  6F79               	movwf	xtoa@c& (0+255),b
  1650   0011CE                     
  1651                           ; BSR set to: 0
  1652                           ;E:\Program Files\Microchip\xc8\v2.41\pic\sources\c99\common\doprnt.c: 991:         c = 
      +                          (c < 10) ? (int)'0' + c : (int)'a' + (c - 10);
  1653   0011CE  0E09               	movlw	9
  1654   0011D0  6579               	cpfsgt	xtoa@c& (0+255),b
  1655   0011D2  EFED  F008         	goto	u1531
  1656   0011D6  EFEF  F008         	goto	u1530
  1657   0011DA                     u1531:
  1658   0011DA  EFF7  F008         	goto	l3628
  1659   0011DE                     u1530:
  1660   0011DE                     
  1661                           ; BSR set to: 0
  1662   0011DE  0E57               	movlw	87
  1663   0011E0  2579               	addwf	xtoa@c& (0+255),w,b
  1664   0011E2  6F73               	movwf	_xtoa$2290& (0+255),b
  1665   0011E4  6B74               	clrf	(_xtoa$2290+1)& (0+255),b
  1666   0011E6  0E00               	movlw	0
  1667   0011E8  2374               	addwfc	(_xtoa$2290+1)& (0+255),f,b
  1668   0011EA  EFFD  F008         	goto	l3630
  1669   0011EE                     l3628:
  1670                           
  1671                           ; BSR set to: 0
  1672   0011EE  0E30               	movlw	48
  1673   0011F0  2579               	addwf	xtoa@c& (0+255),w,b
  1674   0011F2  6F73               	movwf	_xtoa$2290& (0+255),b
  1675   0011F4  6B74               	clrf	(_xtoa$2290+1)& (0+255),b
  1676   0011F6  0E00               	movlw	0
  1677   0011F8  2374               	addwfc	(_xtoa$2290+1)& (0+255),f,b
  1678   0011FA                     l3630:
  1679                           
  1680                           ; BSR set to: 0
  1681   0011FA  C073  F079         	movff	_xtoa$2290,xtoa@c
  1682   0011FE                     
  1683                           ; BSR set to: 0
  1684                           ;E:\Program Files\Microchip\xc8\v2.41\pic\sources\c99\common\doprnt.c: 1000:         dbu
      +                          f[i] = (char)c;
  1685   0011FE  0EDB               	movlw	low _dbuf
  1686   001200  2577               	addwf	xtoa@i& (0+255),w,b
  1687   001202  6ED9               	movwf	fsr2l,c
  1688   001204  0E00               	movlw	high _dbuf
  1689   001206  2178               	addwfc	(xtoa@i+1)& (0+255),w,b
  1690   001208  6EDA               	movwf	fsr2h,c
  1691   00120A  C079  FFDF         	movff	xtoa@c,indf2
  1692   00120E                     
  1693                           ; BSR set to: 0
  1694                           ;E:\Program Files\Microchip\xc8\v2.41\pic\sources\c99\common\doprnt.c: 1001:         --p
      +                          ;
  1695   00120E  0775               	decf	xtoa@p& (0+255),f,b
  1696   001210  A0D8               	btfss	status,0,c
  1697   001212  0776               	decf	(xtoa@p+1)& (0+255),f,b
  1698   001214                     
  1699                           ; BSR set to: 0
  1700                           ;E:\Program Files\Microchip\xc8\v2.41\pic\sources\c99\common\doprnt.c: 1002:         --w
      +                          ;
  1701   001214  0771               	decf	xtoa@w& (0+255),f,b
  1702   001216  A0D8               	btfss	status,0,c
  1703   001218  0772               	decf	(xtoa@w+1)& (0+255),f,b
  1704   00121A                     
  1705                           ; BSR set to: 0
  1706                           ;E:\Program Files\Microchip\xc8\v2.41\pic\sources\c99\common\doprnt.c: 1003:         d =
      +                           d >> 4;
  1707   00121A  C06C  F06E         	movff	xtoa@d,??_xtoa
  1708   00121E  C06D  F06F         	movff	xtoa@d+1,??_xtoa+1
  1709   001222  0E04               	movlw	4
  1710   001224  6F70               	movwf	(??_xtoa+2)& (0+255),b
  1711   001226                     u1545:
  1712   001226  90D8               	bcf	status,0,c
  1713   001228  336F               	rrcf	(??_xtoa+1)& (0+255),f,b
  1714   00122A  336E               	rrcf	??_xtoa& (0+255),f,b
  1715   00122C  2F70               	decfsz	(??_xtoa+2)& (0+255),f,b
  1716   00122E  EF13  F009         	goto	u1545
  1717   001232  C06E  F06C         	movff	??_xtoa,xtoa@d
  1718   001236  C06F  F06D         	movff	??_xtoa+1,xtoa@d+1
  1719   00123A                     l3640:
  1720                           
  1721                           ; BSR set to: 0
  1722                           ;E:\Program Files\Microchip\xc8\v2.41\pic\sources\c99\common\doprnt.c: 983:     while (!
      +                          (i < 2) && (d || (0 < p)
  1723   00123A  BF78               	btfsc	(xtoa@i+1)& (0+255),7,b
  1724   00123C  EF29  F009         	goto	u1551
  1725   001240  5178               	movf	(xtoa@i+1)& (0+255),w,b
  1726   001242  E109               	bnz	u1550
  1727   001244  0E02               	movlw	2
  1728   001246  5D77               	subwf	xtoa@i& (0+255),w,b
  1729   001248  A0D8               	btfss	status,0,c
  1730   00124A  EF29  F009         	goto	u1551
  1731   00124E  EF2B  F009         	goto	u1550
  1732   001252                     u1551:
  1733   001252  EF41  F009         	goto	l3646
  1734   001256                     u1550:
  1735   001256                     
  1736                           ; BSR set to: 0
  1737   001256  516C               	movf	xtoa@d& (0+255),w,b
  1738   001258  116D               	iorwf	(xtoa@d+1)& (0+255),w,b
  1739   00125A  A4D8               	btfss	status,2,c
  1740   00125C  EF32  F009         	goto	u1561
  1741   001260  EF34  F009         	goto	u1560
  1742   001264                     u1561:
  1743   001264  EFE1  F008         	goto	l3620
  1744   001268                     u1560:
  1745   001268                     
  1746                           ; BSR set to: 0
  1747   001268  BF76               	btfsc	(xtoa@p+1)& (0+255),7,b
  1748   00126A  EF41  F009         	goto	u1570
  1749   00126E  5176               	movf	(xtoa@p+1)& (0+255),w,b
  1750   001270  E106               	bnz	u1571
  1751   001272  0575               	decf	xtoa@p& (0+255),w,b
  1752   001274  B0D8               	btfsc	status,0,c
  1753   001276  EF3F  F009         	goto	u1571
  1754   00127A  EF41  F009         	goto	u1570
  1755   00127E                     u1571:
  1756   00127E  EFE1  F008         	goto	l3620
  1757   001282                     u1570:
  1758   001282                     l3646:
  1759                           
  1760                           ; BSR set to: 0
  1761                           ;E:\Program Files\Microchip\xc8\v2.41\pic\sources\c99\common\doprnt.c: 1023:     return 
      +                          (void) pad(fp, &dbuf[i], w);
  1762   001282  C06A  F060         	movff	xtoa@fp,pad@fp
  1763   001286  C06B  F061         	movff	xtoa@fp+1,pad@fp+1
  1764   00128A  0EDB               	movlw	low _dbuf
  1765   00128C  2577               	addwf	xtoa@i& (0+255),w,b
  1766   00128E  6F62               	movwf	pad@buf& (0+255),b
  1767   001290  0E00               	movlw	high _dbuf
  1768   001292  2178               	addwfc	(xtoa@i+1)& (0+255),w,b
  1769   001294  6F63               	movwf	(pad@buf+1)& (0+255),b
  1770   001296  C071  F064         	movff	xtoa@w,pad@p
  1771   00129A  C072  F065         	movff	xtoa@w+1,pad@p+1
  1772   00129E  ECB4  F00B         	call	_pad	;wreg free
  1773   0012A2  0012               	return		;funcret
  1774   0012A4                     __end_of_xtoa:
  1775                           	callstack 0
  1776                           
  1777 ;; *************** function _pad *****************
  1778 ;; Defined at:
  1779 ;;		line 152 in file "E:\Program Files\Microchip\xc8\v2.41\pic\sources\c99\common\doprnt.c"
  1780 ;; Parameters:    Size  Location     Type
  1781 ;;  fp              2    0[BANK0 ] PTR struct _IO_FILE
  1782 ;;		 -> sprintf@f(12), 
  1783 ;;  buf             2    2[BANK0 ] PTR unsigned char 
  1784 ;;		 -> dbuf(32), 
  1785 ;;  p               2    4[BANK0 ] int 
  1786 ;; Auto vars:     Size  Location     Type
  1787 ;;  w               2    8[BANK0 ] int 
  1788 ;;  i               2    6[BANK0 ] int 
  1789 ;; Return value:  Size  Location     Type
  1790 ;;                  1    wreg      void 
  1791 ;; Registers used:
  1792 ;;		wreg, fsr1l, fsr1h, fsr2l, fsr2h, status,2, status,0, cstack
  1793 ;; Tracked objects:
  1794 ;;		On entry : 0/0
  1795 ;;		On exit  : 0/0
  1796 ;;		Unchanged: 0/0
  1797 ;; Data sizes:     COMRAM   BANK0   BANK1   BANK2   BANK3   BANK4   BANK5   BANK6   BANK7   BANK8   BANK9  BANK10  BANK1
      +1  BANK12  BANK13  BANK14  BANK15
  1798 ;;      Params:         0       6       0       0       0       0       0       0       0       0       0       0       
      +0       0       0       0       0
  1799 ;;      Locals:         0       4       0       0       0       0       0       0       0       0       0       0       
      +0       0       0       0       0
  1800 ;;      Temps:          1       0       0       0       0       0       0       0       0       0       0       0       
      +0       0       0       0       0
  1801 ;;      Totals:         1      10       0       0       0       0       0       0       0       0       0       0       
      +0       0       0       0       0
  1802 ;;Total ram usage:       11 bytes
  1803 ;; Hardware stack levels used: 1
  1804 ;; Hardware stack levels required when called: 10
  1805 ;; This function calls:
  1806 ;;		_fputc
  1807 ;;		_fputs
  1808 ;; This function is called by:
  1809 ;;		_xtoa
  1810 ;; This function uses a non-reentrant model
  1811 ;;
  1812                           
  1813                           	psect	text7
  1814   001768                     __ptext7:
  1815                           	callstack 0
  1816   001768                     _pad:
  1817                           	callstack 15
  1818   001768                     
  1819                           ;E:\Program Files\Microchip\xc8\v2.41\pic\sources\c99\common\doprnt.c: 152: static void 
      +                          pad(FILE *fp, char *buf, int p);E:\Program Files\Microchip\xc8\v2.41\pic\sources\c99\com
      +                          mon\doprnt.c: 153: {;E:\Program Files\Microchip\xc8\v2.41\pic\sources\c99\common\doprnt.
      +                          c: 154:     int i, w;;E:\Program Files\Microchip\xc8\v2.41\pic\sources\c99\common\doprnt
      +                          .c: 164:     w = (p < 0) ? 0 : p;
  1820   001768  0100               	movlb	0	; () banked
  1821   00176A  BF65               	btfsc	(pad@p+1)& (0+255),7,b
  1822   00176C  EFBA  F00B         	goto	u1501
  1823   001770  EFBC  F00B         	goto	u1500
  1824   001774                     u1501:
  1825   001774  EFC2  F00B         	goto	l3600
  1826   001778                     u1500:
  1827   001778                     
  1828                           ; BSR set to: 0
  1829   001778  C064  F068         	movff	pad@p,pad@w
  1830   00177C  C065  F069         	movff	pad@p+1,pad@w+1
  1831   001780  EFC6  F00B         	goto	l1467
  1832   001784                     l3600:
  1833                           
  1834                           ; BSR set to: 0
  1835   001784  0E00               	movlw	0
  1836   001786  6F69               	movwf	(pad@w+1)& (0+255),b
  1837   001788  0E00               	movlw	0
  1838   00178A  6F68               	movwf	pad@w& (0+255),b
  1839   00178C                     l1467:
  1840                           
  1841                           ; BSR set to: 0
  1842                           ;E:\Program Files\Microchip\xc8\v2.41\pic\sources\c99\common\doprnt.c: 165:     i = 0;
  1843   00178C  0E00               	movlw	0
  1844   00178E  6F67               	movwf	(pad@i+1)& (0+255),b
  1845   001790  0E00               	movlw	0
  1846   001792  6F66               	movwf	pad@i& (0+255),b
  1847                           
  1848                           ;E:\Program Files\Microchip\xc8\v2.41\pic\sources\c99\common\doprnt.c: 166:     while (i
      +                           < w) {
  1849   001794  EFD9  F00B         	goto	l3606
  1850   001798                     l3602:
  1851                           
  1852                           ; BSR set to: 0
  1853                           ;E:\Program Files\Microchip\xc8\v2.41\pic\sources\c99\common\doprnt.c: 167:         fput
      +                          c(' ', fp);
  1854   001798  0E00               	movlw	0
  1855   00179A  6E1B               	movwf	(fputc@c+1)^0,c
  1856   00179C  0E20               	movlw	32
  1857   00179E  6E1A               	movwf	fputc@c^0,c
  1858   0017A0  C060  F01C         	movff	pad@fp,fputc@fp
  1859   0017A4  C061  F01D         	movff	pad@fp+1,fputc@fp+1
  1860   0017A8  EC52  F009         	call	_fputc	;wreg free
  1861   0017AC                     
  1862                           ;E:\Program Files\Microchip\xc8\v2.41\pic\sources\c99\common\doprnt.c: 168:         ++i;
  1863   0017AC  0100               	movlb	0	; () banked
  1864   0017AE  4B66               	infsnz	pad@i& (0+255),f,b
  1865   0017B0  2B67               	incf	(pad@i+1)& (0+255),f,b
  1866   0017B2                     l3606:
  1867                           
  1868                           ; BSR set to: 0
  1869                           ;E:\Program Files\Microchip\xc8\v2.41\pic\sources\c99\common\doprnt.c: 166:     while (i
      +                           < w) {
  1870   0017B2  5168               	movf	pad@w& (0+255),w,b
  1871   0017B4  5D66               	subwf	pad@i& (0+255),w,b
  1872   0017B6  5167               	movf	(pad@i+1)& (0+255),w,b
  1873   0017B8  0A80               	xorlw	128
  1874   0017BA  6E2A               	movwf	??_pad^0,c
  1875   0017BC  5169               	movf	(pad@w+1)& (0+255),w,b
  1876   0017BE  0A80               	xorlw	128
  1877   0017C0  582A               	subwfb	??_pad^0,w,c
  1878   0017C2  A0D8               	btfss	status,0,c
  1879   0017C4  EFE6  F00B         	goto	u1511
  1880   0017C8  EFE8  F00B         	goto	u1510
  1881   0017CC                     u1511:
  1882   0017CC  EFCC  F00B         	goto	l3602
  1883   0017D0                     u1510:
  1884   0017D0                     
  1885                           ; BSR set to: 0
  1886                           ;E:\Program Files\Microchip\xc8\v2.41\pic\sources\c99\common\doprnt.c: 175:         fput
      +                          s((const char *)buf, fp);
  1887   0017D0  C062  F023         	movff	pad@buf,fputs@s
  1888   0017D4  C063  F024         	movff	pad@buf+1,fputs@s+1
  1889   0017D8  C060  F025         	movff	pad@fp,fputs@fp
  1890   0017DC  C061  F026         	movff	pad@fp+1,fputs@fp+1
  1891   0017E0  ECD5  F00D         	call	_fputs	;wreg free
  1892   0017E4  0012               	return		;funcret
  1893   0017E6                     __end_of_pad:
  1894                           	callstack 0
  1895                           
  1896 ;; *************** function _fputs *****************
  1897 ;; Defined at:
  1898 ;;		line 8 in file "E:\Program Files\Microchip\xc8\v2.41\pic\sources\c99\common\nf_fputs.c"
  1899 ;; Parameters:    Size  Location     Type
  1900 ;;  s               2   34[COMRAM] PTR const unsigned char 
  1901 ;;		 -> dbuf(32), 
  1902 ;;  fp              2   36[COMRAM] PTR struct _IO_FILE
  1903 ;;		 -> sprintf@f(12), 
  1904 ;; Auto vars:     Size  Location     Type
  1905 ;;  i               2   39[COMRAM] int 
  1906 ;;  c               1   38[COMRAM] unsigned char 
  1907 ;; Return value:  Size  Location     Type
  1908 ;;                  2   34[COMRAM] int 
  1909 ;; Registers used:
  1910 ;;		wreg, fsr1l, fsr1h, fsr2l, fsr2h, status,2, status,0, cstack
  1911 ;; Tracked objects:
  1912 ;;		On entry : 0/0
  1913 ;;		On exit  : 0/0
  1914 ;;		Unchanged: 0/0
  1915 ;; Data sizes:     COMRAM   BANK0   BANK1   BANK2   BANK3   BANK4   BANK5   BANK6   BANK7   BANK8   BANK9  BANK10  BANK1
      +1  BANK12  BANK13  BANK14  BANK15
  1916 ;;      Params:         4       0       0       0       0       0       0       0       0       0       0       0       
      +0       0       0       0       0
  1917 ;;      Locals:         3       0       0       0       0       0       0       0       0       0       0       0       
      +0       0       0       0       0
  1918 ;;      Temps:          0       0       0       0       0       0       0       0       0       0       0       0       
      +0       0       0       0       0
  1919 ;;      Totals:         7       0       0       0       0       0       0       0       0       0       0       0       
      +0       0       0       0       0
  1920 ;;Total ram usage:        7 bytes
  1921 ;; Hardware stack levels used: 1
  1922 ;; Hardware stack levels required when called: 9
  1923 ;; This function calls:
  1924 ;;		_fputc
  1925 ;; This function is called by:
  1926 ;;		_pad
  1927 ;; This function uses a non-reentrant model
  1928 ;;
  1929                           
  1930                           	psect	text8
  1931   001BAA                     __ptext8:
  1932                           	callstack 0
  1933   001BAA                     _fputs:
  1934                           	callstack 15
  1935   001BAA  0E00               	movlw	0
  1936   001BAC  6E29               	movwf	(fputs@i+1)^0,c
  1937   001BAE  0E00               	movlw	0
  1938   001BB0  6E28               	movwf	fputs@i^0,c
  1939   001BB2  EFE6  F00D         	goto	l3594
  1940   001BB6                     l3590:
  1941   001BB6  C027  F01A         	movff	fputs@c,fputc@c
  1942   001BBA  6A1B               	clrf	(fputc@c+1)^0,c
  1943   001BBC  C025  F01C         	movff	fputs@fp,fputc@fp
  1944   001BC0  C026  F01D         	movff	fputs@fp+1,fputc@fp+1
  1945   001BC4  EC52  F009         	call	_fputc	;wreg free
  1946   001BC8  4A28               	infsnz	fputs@i^0,f,c
  1947   001BCA  2A29               	incf	(fputs@i+1)^0,f,c
  1948   001BCC                     l3594:
  1949   001BCC  5028               	movf	fputs@i^0,w,c
  1950   001BCE  2423               	addwf	fputs@s^0,w,c
  1951   001BD0  6ED9               	movwf	fsr2l,c
  1952   001BD2  5029               	movf	(fputs@i+1)^0,w,c
  1953   001BD4  2024               	addwfc	(fputs@s+1)^0,w,c
  1954   001BD6  6EDA               	movwf	fsr2h,c
  1955   001BD8  50DF               	movf	indf2,w,c
  1956   001BDA  6E27               	movwf	fputs@c^0,c
  1957   001BDC  5027               	movf	fputs@c^0,w,c
  1958   001BDE  A4D8               	btfss	status,2,c
  1959   001BE0  EFF4  F00D         	goto	u1491
  1960   001BE4  EFF6  F00D         	goto	u1490
  1961   001BE8                     u1491:
  1962   001BE8  EFDB  F00D         	goto	l3590
  1963   001BEC                     u1490:
  1964   001BEC  0012               	return		;funcret
  1965   001BEE                     __end_of_fputs:
  1966                           	callstack 0
  1967                           
  1968 ;; *************** function _fputc *****************
  1969 ;; Defined at:
  1970 ;;		line 8 in file "E:\Program Files\Microchip\xc8\v2.41\pic\sources\c99\common\nf_fputc.c"
  1971 ;; Parameters:    Size  Location     Type
  1972 ;;  c               2   25[COMRAM] int 
  1973 ;;  fp              2   27[COMRAM] PTR struct _IO_FILE
  1974 ;;		 -> sprintf@f(12), 
  1975 ;; Auto vars:     Size  Location     Type
  1976 ;;		None
  1977 ;; Return value:  Size  Location     Type
  1978 ;;                  2   25[COMRAM] int 
  1979 ;; Registers used:
  1980 ;;		wreg, fsr1l, fsr1h, fsr2l, fsr2h, status,2, status,0, cstack
  1981 ;; Tracked objects:
  1982 ;;		On entry : 0/0
  1983 ;;		On exit  : 0/0
  1984 ;;		Unchanged: 0/0
  1985 ;; Data sizes:     COMRAM   BANK0   BANK1   BANK2   BANK3   BANK4   BANK5   BANK6   BANK7   BANK8   BANK9  BANK10  BANK1
      +1  BANK12  BANK13  BANK14  BANK15
  1986 ;;      Params:         4       0       0       0       0       0       0       0       0       0       0       0       
      +0       0       0       0       0
  1987 ;;      Locals:         0       0       0       0       0       0       0       0       0       0       0       0       
      +0       0       0       0       0
  1988 ;;      Temps:          5       0       0       0       0       0       0       0       0       0       0       0       
      +0       0       0       0       0
  1989 ;;      Totals:         9       0       0       0       0       0       0       0       0       0       0       0       
      +0       0       0       0       0
  1990 ;;Total ram usage:        9 bytes
  1991 ;; Hardware stack levels used: 1
  1992 ;; Hardware stack levels required when called: 8
  1993 ;; This function calls:
  1994 ;;		_putch
  1995 ;; This function is called by:
  1996 ;;		_pad
  1997 ;;		_vfpfcnvrt
  1998 ;;		_fputs
  1999 ;; This function uses a non-reentrant model
  2000 ;;
  2001                           
  2002                           	psect	text9
  2003   0012A4                     __ptext9:
  2004                           	callstack 0
  2005   0012A4                     _fputc:
  2006                           	callstack 15
  2007   0012A4  501C               	movf	fputc@fp^0,w,c
  2008   0012A6  101D               	iorwf	(fputc@fp+1)^0,w,c
  2009   0012A8  B4D8               	btfsc	status,2,c
  2010   0012AA  EF59  F009         	goto	u1451
  2011   0012AE  EF5B  F009         	goto	u1450
  2012   0012B2                     u1451:
  2013   0012B2  EF64  F009         	goto	l3578
  2014   0012B6                     u1450:
  2015   0012B6  501C               	movf	fputc@fp^0,w,c
  2016   0012B8  101D               	iorwf	(fputc@fp+1)^0,w,c
  2017   0012BA  A4D8               	btfss	status,2,c
  2018   0012BC  EF62  F009         	goto	u1461
  2019   0012C0  EF64  F009         	goto	u1460
  2020   0012C4                     u1461:
  2021   0012C4  EF69  F009         	goto	l3580
  2022   0012C8                     u1460:
  2023   0012C8                     l3578:
  2024   0012C8  501A               	movf	fputc@c^0,w,c
  2025   0012CA  EC32  F010         	call	_putch
  2026   0012CE  EFB6  F009         	goto	l1515
  2027   0012D2                     l3580:
  2028   0012D2  EE20 F00A          	lfsr	2,10
  2029   0012D6  501C               	movf	fputc@fp^0,w,c
  2030   0012D8  26D9               	addwf	fsr2l,f,c
  2031   0012DA  501D               	movf	(fputc@fp+1)^0,w,c
  2032   0012DC  22DA               	addwfc	fsr2h,f,c
  2033   0012DE  50DE               	movf	postinc2,w,c
  2034   0012E0  10DE               	iorwf	postinc2,w,c
  2035   0012E2  B4D8               	btfsc	status,2,c
  2036   0012E4  EF76  F009         	goto	u1471
  2037   0012E8  EF78  F009         	goto	u1470
  2038   0012EC                     u1471:
  2039   0012EC  EF93  F009         	goto	l3584
  2040   0012F0                     u1470:
  2041   0012F0  EE20 F00A          	lfsr	2,10
  2042   0012F4  501C               	movf	fputc@fp^0,w,c
  2043   0012F6  26D9               	addwf	fsr2l,f,c
  2044   0012F8  501D               	movf	(fputc@fp+1)^0,w,c
  2045   0012FA  22DA               	addwfc	fsr2h,f,c
  2046   0012FC  EE10 F003          	lfsr	1,3
  2047   001300  501C               	movf	fputc@fp^0,w,c
  2048   001302  26E1               	addwf	fsr1l,f,c
  2049   001304  501D               	movf	(fputc@fp+1)^0,w,c
  2050   001306  22E2               	addwfc	fsr1h,f,c
  2051   001308  50DE               	movf	postinc2,w,c
  2052   00130A  5CE6               	subwf	postinc1,w,c
  2053   00130C  50E6               	movf	postinc1,w,c
  2054   00130E  0A80               	xorlw	128
  2055   001310  6E22               	movwf	(??_fputc+4)^0,c
  2056   001312  50DE               	movf	postinc2,w,c
  2057   001314  0A80               	xorlw	128
  2058   001316  5822               	subwfb	(??_fputc+4)^0,w,c
  2059   001318  B0D8               	btfsc	status,0,c
  2060   00131A  EF91  F009         	goto	u1481
  2061   00131E  EF93  F009         	goto	u1480
  2062   001322                     u1481:
  2063   001322  EFB6  F009         	goto	l1515
  2064   001326                     u1480:
  2065   001326                     l3584:
  2066   001326  EE20 F003          	lfsr	2,3
  2067   00132A  501C               	movf	fputc@fp^0,w,c
  2068   00132C  26D9               	addwf	fsr2l,f,c
  2069   00132E  501D               	movf	(fputc@fp+1)^0,w,c
  2070   001330  22DA               	addwfc	fsr2h,f,c
  2071   001332  CFDE F01E          	movff	postinc2,??_fputc
  2072   001336  CFDD F01F          	movff	postdec2,??_fputc+1
  2073   00133A  C01C  FFD9         	movff	fputc@fp,fsr2l
  2074   00133E  C01D  FFDA         	movff	fputc@fp+1,fsr2h
  2075   001342  CFDE F020          	movff	postinc2,??_fputc+2
  2076   001346  CFDD F021          	movff	postdec2,??_fputc+3
  2077   00134A  501E               	movf	??_fputc^0,w,c
  2078   00134C  2420               	addwf	(??_fputc+2)^0,w,c
  2079   00134E  6ED9               	movwf	fsr2l,c
  2080   001350  501F               	movf	(??_fputc+1)^0,w,c
  2081   001352  2021               	addwfc	(??_fputc+3)^0,w,c
  2082   001354  6EDA               	movwf	fsr2h,c
  2083   001356  C01A  FFDF         	movff	fputc@c,indf2
  2084   00135A  EE20 F003          	lfsr	2,3
  2085   00135E  501C               	movf	fputc@fp^0,w,c
  2086   001360  26D9               	addwf	fsr2l,f,c
  2087   001362  501D               	movf	(fputc@fp+1)^0,w,c
  2088   001364  22DA               	addwfc	fsr2h,f,c
  2089   001366  2ADE               	incf	postinc2,f,c
  2090   001368  0E00               	movlw	0
  2091   00136A  22DD               	addwfc	postdec2,f,c
  2092   00136C                     l1515:
  2093   00136C  0012               	return		;funcret
  2094   00136E                     __end_of_fputc:
  2095                           	callstack 0
  2096                           
  2097 ;; *************** function _putch *****************
  2098 ;; Defined at:
  2099 ;;		line 7 in file "E:\Program Files\Microchip\xc8\v2.41\pic\sources\c99\common\putch.c"
  2100 ;; Parameters:    Size  Location     Type
  2101 ;;  c               1    wreg     unsigned char 
  2102 ;; Auto vars:     Size  Location     Type
  2103 ;;  c               1    0[COMRAM] unsigned char 
  2104 ;; Return value:  Size  Location     Type
  2105 ;;                  1    wreg      void 
  2106 ;; Registers used:
  2107 ;;		wreg
  2108 ;; Tracked objects:
  2109 ;;		On entry : 0/0
  2110 ;;		On exit  : 0/0
  2111 ;;		Unchanged: 0/0
  2112 ;; Data sizes:     COMRAM   BANK0   BANK1   BANK2   BANK3   BANK4   BANK5   BANK6   BANK7   BANK8   BANK9  BANK10  BANK1
      +1  BANK12  BANK13  BANK14  BANK15
  2113 ;;      Params:         0       0       0       0       0       0       0       0       0       0       0       0       
      +0       0       0       0       0
  2114 ;;      Locals:         0       0       0       0       0       0       0       0       0       0       0       0       
      +0       0       0       0       0
  2115 ;;      Temps:          0       0       0       0       0       0       0       0       0       0       0       0       
      +0       0       0       0       0
  2116 ;;      Totals:         0       0       0       0       0       0       0       0       0       0       0       0       
      +0       0       0       0       0
  2117 ;;Total ram usage:        0 bytes
  2118 ;; Hardware stack levels used: 1
  2119 ;; Hardware stack levels required when called: 7
  2120 ;; This function calls:
  2121 ;;		Nothing
  2122 ;; This function is called by:
  2123 ;;		_fputc
  2124 ;; This function uses a non-reentrant model
  2125 ;;
  2126                           
  2127                           	psect	text10
  2128   002064                     __ptext10:
  2129                           	callstack 0
  2130   002064                     _putch:
  2131                           	callstack 15
  2132   002064  0012               	return		;funcret
  2133   002066                     __end_of_putch:
  2134                           	callstack 0
  2135                           
  2136 ;; *************** function _EUSART_Write_string *****************
  2137 ;; Defined at:
  2138 ;;		line 141 in file "mcc_generated_files/eusart.c"
  2139 ;; Parameters:    Size  Location     Type
  2140 ;;  data            2   26[COMRAM] PTR unsigned char 
  2141 ;;		 -> bufferWrite(50), 
  2142 ;; Auto vars:     Size  Location     Type
  2143 ;;  i               1   28[COMRAM] unsigned char 
  2144 ;; Return value:  Size  Location     Type
  2145 ;;                  1    wreg      void 
  2146 ;; Registers used:
  2147 ;;		wreg, fsr2l, fsr2h, status,2, status,0, cstack
  2148 ;; Tracked objects:
  2149 ;;		On entry : 0/0
  2150 ;;		On exit  : 0/0
  2151 ;;		Unchanged: 0/0
  2152 ;; Data sizes:     COMRAM   BANK0   BANK1   BANK2   BANK3   BANK4   BANK5   BANK6   BANK7   BANK8   BANK9  BANK10  BANK1
      +1  BANK12  BANK13  BANK14  BANK15
  2153 ;;      Params:         2       0       0       0       0       0       0       0       0       0       0       0       
      +0       0       0       0       0
  2154 ;;      Locals:         1       0       0       0       0       0       0       0       0       0       0       0       
      +0       0       0       0       0
  2155 ;;      Temps:          0       0       0       0       0       0       0       0       0       0       0       0       
      +0       0       0       0       0
  2156 ;;      Totals:         3       0       0       0       0       0       0       0       0       0       0       0       
      +0       0       0       0       0
  2157 ;;Total ram usage:        3 bytes
  2158 ;; Hardware stack levels used: 1
  2159 ;; Hardware stack levels required when called: 8
  2160 ;; This function calls:
  2161 ;;		_EUSART_Write
  2162 ;; This function is called by:
  2163 ;;		_print_rtc_data_time
  2164 ;; This function uses a non-reentrant model
  2165 ;;
  2166                           
  2167                           	psect	text11
  2168   001CAC                     __ptext11:
  2169                           	callstack 0
  2170   001CAC                     _EUSART_Write_string:
  2171                           	callstack 21
  2172   001CAC                     
  2173                           ;mcc_generated_files/eusart.c: 142:     uint8_t i=0;
  2174   001CAC  0E00               	movlw	0
  2175   001CAE  6E1D               	movwf	EUSART_Write_string@i^0,c
  2176                           
  2177                           ;mcc_generated_files/eusart.c: 145:     while(data[i]!='\0'){
  2178   001CB0  EF64  F00E         	goto	l3240
  2179   001CB4                     l3236:
  2180                           
  2181                           ;mcc_generated_files/eusart.c: 147:                    EUSART_Write(data[i]);
  2182   001CB4  501D               	movf	EUSART_Write_string@i^0,w,c
  2183   001CB6  241B               	addwf	EUSART_Write_string@data^0,w,c
  2184   001CB8  6ED9               	movwf	fsr2l,c
  2185   001CBA  0E00               	movlw	0
  2186   001CBC  201C               	addwfc	(EUSART_Write_string@data+1)^0,w,c
  2187   001CBE  6EDA               	movwf	fsr2h,c
  2188   001CC0  50DF               	movf	indf2,w,c
  2189   001CC2  EC76  F00F         	call	_EUSART_Write
  2190   001CC6                     
  2191                           ;mcc_generated_files/eusart.c: 150:         i++;
  2192   001CC6  2A1D               	incf	EUSART_Write_string@i^0,f,c
  2193   001CC8                     l3240:
  2194                           
  2195                           ;mcc_generated_files/eusart.c: 145:     while(data[i]!='\0'){
  2196   001CC8  501D               	movf	EUSART_Write_string@i^0,w,c
  2197   001CCA  241B               	addwf	EUSART_Write_string@data^0,w,c
  2198   001CCC  6ED9               	movwf	fsr2l,c
  2199   001CCE  0E00               	movlw	0
  2200   001CD0  201C               	addwfc	(EUSART_Write_string@data+1)^0,w,c
  2201   001CD2  6EDA               	movwf	fsr2h,c
  2202   001CD4  50DF               	movf	indf2,w,c
  2203   001CD6  A4D8               	btfss	status,2,c
  2204   001CD8  EF70  F00E         	goto	u1191
  2205   001CDC  EF72  F00E         	goto	u1190
  2206   001CE0                     u1191:
  2207   001CE0  EF5A  F00E         	goto	l3236
  2208   001CE4                     u1190:
  2209   001CE4  0012               	return		;funcret
  2210   001CE6                     __end_of_EUSART_Write_string:
  2211                           	callstack 0
  2212                           
  2213 ;; *************** function _EUSART_Write *****************
  2214 ;; Defined at:
  2215 ;;		line 132 in file "mcc_generated_files/eusart.c"
  2216 ;; Parameters:    Size  Location     Type
  2217 ;;  txData          1    wreg     unsigned char 
  2218 ;; Auto vars:     Size  Location     Type
  2219 ;;  txData          1   25[COMRAM] unsigned char 
  2220 ;; Return value:  Size  Location     Type
  2221 ;;                  1    wreg      void 
  2222 ;; Registers used:
  2223 ;;		wreg
  2224 ;; Tracked objects:
  2225 ;;		On entry : 0/0
  2226 ;;		On exit  : 0/0
  2227 ;;		Unchanged: 0/0
  2228 ;; Data sizes:     COMRAM   BANK0   BANK1   BANK2   BANK3   BANK4   BANK5   BANK6   BANK7   BANK8   BANK9  BANK10  BANK1
      +1  BANK12  BANK13  BANK14  BANK15
  2229 ;;      Params:         0       0       0       0       0       0       0       0       0       0       0       0       
      +0       0       0       0       0
  2230 ;;      Locals:         1       0       0       0       0       0       0       0       0       0       0       0       
      +0       0       0       0       0
  2231 ;;      Temps:          0       0       0       0       0       0       0       0       0       0       0       0       
      +0       0       0       0       0
  2232 ;;      Totals:         1       0       0       0       0       0       0       0       0       0       0       0       
      +0       0       0       0       0
  2233 ;;Total ram usage:        1 bytes
  2234 ;; Hardware stack levels used: 1
  2235 ;; Hardware stack levels required when called: 7
  2236 ;; This function calls:
  2237 ;;		Nothing
  2238 ;; This function is called by:
  2239 ;;		_EUSART_Write_string
  2240 ;; This function uses a non-reentrant model
  2241 ;;
  2242                           
  2243                           	psect	text12
  2244   001EEC                     __ptext12:
  2245                           	callstack 0
  2246   001EEC                     _EUSART_Write:
  2247                           	callstack 21
  2248                           
  2249                           ;incstack = 0
  2250                           ;EUSART_Write@txData stored from wreg
  2251   001EEC  6E1A               	movwf	EUSART_Write@txData^0,c
  2252   001EEE                     l185:
  2253                           
  2254                           ;mcc_generated_files/eusart.c: 134:     while(0 == PIR1bits.TX1IF)
  2255   001EEE  A89E               	btfss	158,4,c	;volatile
  2256   001EF0  EF7C  F00F         	goto	u1061
  2257   001EF4  EF7E  F00F         	goto	u1060
  2258   001EF8                     u1061:
  2259   001EF8  EF77  F00F         	goto	l185
  2260   001EFC                     u1060:
  2261   001EFC                     
  2262                           ;mcc_generated_files/eusart.c: 138:     TXREG = txData;
  2263   001EFC  C01A  FFAD         	movff	EUSART_Write@txData,4013	;volatile
  2264   001F00  0012               	return		;funcret
  2265   001F02                     __end_of_EUSART_Write:
  2266                           	callstack 0
  2267                           
  2268 ;; *************** function _eeprom_24C01C_write_byte *****************
  2269 ;; Defined at:
  2270 ;;		line 5 in file "External_EEPROM/external_eeprom.c"
  2271 ;; Parameters:    Size  Location     Type
  2272 ;;  eeprom_id       1    wreg     unsigned char 
  2273 ;;  byte_address    1   37[COMRAM] unsigned char 
  2274 ;;  data            1   38[COMRAM] unsigned char 
  2275 ;; Auto vars:     Size  Location     Type
  2276 ;;  eeprom_id       1   39[COMRAM] unsigned char 
  2277 ;; Return value:  Size  Location     Type
  2278 ;;                  1    wreg      void 
  2279 ;; Registers used:
  2280 ;;		wreg, fsr2l, fsr2h, status,2, status,0, prodl, prodh, cstack
  2281 ;; Tracked objects:
  2282 ;;		On entry : 0/0
  2283 ;;		On exit  : 0/0
  2284 ;;		Unchanged: 0/0
  2285 ;; Data sizes:     COMRAM   BANK0   BANK1   BANK2   BANK3   BANK4   BANK5   BANK6   BANK7   BANK8   BANK9  BANK10  BANK1
      +1  BANK12  BANK13  BANK14  BANK15
  2286 ;;      Params:         2       0       0       0       0       0       0       0       0       0       0       0       
      +0       0       0       0       0
  2287 ;;      Locals:         1       0       0       0       0       0       0       0       0       0       0       0       
      +0       0       0       0       0
  2288 ;;      Temps:          0       0       0       0       0       0       0       0       0       0       0       0       
      +0       0       0       0       0
  2289 ;;      Totals:         3       0       0       0       0       0       0       0       0       0       0       0       
      +0       0       0       0       0
  2290 ;;Total ram usage:        3 bytes
  2291 ;; Hardware stack levels used: 1
  2292 ;; Hardware stack levels required when called: 11
  2293 ;; This function calls:
  2294 ;;		_I2C_Write1ByteRegister
  2295 ;; This function is called by:
  2296 ;;		_main
  2297 ;; This function uses a non-reentrant model
  2298 ;;
  2299                           
  2300                           	psect	text13
  2301   001E8A                     __ptext13:
  2302                           	callstack 0
  2303   001E8A                     _eeprom_24C01C_write_byte:
  2304                           	callstack 19
  2305                           
  2306                           ;incstack = 0
  2307                           ;eeprom_24C01C_write_byte@eeprom_id stored from wreg
  2308   001E8A  6E28               	movwf	eeprom_24C01C_write_byte@eeprom_id^0,c
  2309   001E8C                     
  2310                           ;External_EEPROM/external_eeprom.c: 6:     I2C_Write1ByteRegister(eeprom_id,byte_address
      +                          ,data);
  2311   001E8C  C026  F023         	movff	eeprom_24C01C_write_byte@byte_address,I2C_Write1ByteRegister@reg
  2312   001E90  C027  F024         	movff	eeprom_24C01C_write_byte@data,I2C_Write1ByteRegister@data
  2313   001E94  5028               	movf	eeprom_24C01C_write_byte@eeprom_id^0,w,c
  2314   001E96  EC19  F00D         	call	_I2C_Write1ByteRegister
  2315   001E9A                     
  2316                           ;External_EEPROM/external_eeprom.c: 7:     _delay((unsigned long)((100)*(16000000/400000
      +                          0.0)));
  2317   001E9A  0E85               	movlw	133
  2318   001E9C                     u1877:
  2319   001E9C  2EE8               	decfsz	wreg,f,c
  2320   001E9E  D7FE               	bra	u1877
  2321   001EA0  F000               	nop	
  2322   001EA2  0012               	return		;funcret
  2323   001EA4                     __end_of_eeprom_24C01C_write_byte:
  2324                           	callstack 0
  2325                           
  2326 ;; *************** function _I2C_Write1ByteRegister *****************
  2327 ;; Defined at:
  2328 ;;		line 91 in file "mcc_generated_files/examples/i2c_master_example.c"
  2329 ;; Parameters:    Size  Location     Type
  2330 ;;  address         1    wreg     unsigned char 
  2331 ;;  reg             1   34[COMRAM] unsigned char 
  2332 ;;  data            1   35[COMRAM] unsigned char 
  2333 ;; Auto vars:     Size  Location     Type
  2334 ;;  address         1   36[COMRAM] unsigned char 
  2335 ;; Return value:  Size  Location     Type
  2336 ;;                  1    wreg      void 
  2337 ;; Registers used:
  2338 ;;		wreg, fsr2l, fsr2h, status,2, status,0, prodl, prodh, cstack
  2339 ;; Tracked objects:
  2340 ;;		On entry : 0/0
  2341 ;;		On exit  : 0/0
  2342 ;;		Unchanged: 0/0
  2343 ;; Data sizes:     COMRAM   BANK0   BANK1   BANK2   BANK3   BANK4   BANK5   BANK6   BANK7   BANK8   BANK9  BANK10  BANK1
      +1  BANK12  BANK13  BANK14  BANK15
  2344 ;;      Params:         2       0       0       0       0       0       0       0       0       0       0       0       
      +0       0       0       0       0
  2345 ;;      Locals:         1       0       0       0       0       0       0       0       0       0       0       0       
      +0       0       0       0       0
  2346 ;;      Temps:          0       0       0       0       0       0       0       0       0       0       0       0       
      +0       0       0       0       0
  2347 ;;      Totals:         3       0       0       0       0       0       0       0       0       0       0       0       
      +0       0       0       0       0
  2348 ;;Total ram usage:        3 bytes
  2349 ;; Hardware stack levels used: 1
  2350 ;; Hardware stack levels required when called: 10
  2351 ;; This function calls:
  2352 ;;		_I2C_Close
  2353 ;;		_I2C_MasterWrite
  2354 ;;		_I2C_Open
  2355 ;;		_I2C_SetAddressNackCallback
  2356 ;;		_I2C_SetBuffer
  2357 ;;		_I2C_SetDataCompleteCallback
  2358 ;; This function is called by:
  2359 ;;		_eeprom_24C01C_write_byte
  2360 ;;		_main
  2361 ;; This function uses a non-reentrant model
  2362 ;;
  2363                           
  2364                           	psect	text14
  2365   001A32                     __ptext14:
  2366                           	callstack 0
  2367   001A32                     _I2C_Write1ByteRegister:
  2368                           	callstack 19
  2369                           
  2370                           ;incstack = 0
  2371                           ;I2C_Write1ByteRegister@address stored from wreg
  2372   001A32  6E25               	movwf	I2C_Write1ByteRegister@address^0,c
  2373   001A34                     l3824:
  2374   001A34  5025               	movf	I2C_Write1ByteRegister@address^0,w,c
  2375   001A36  EC17  F00B         	call	_I2C_Open
  2376   001A3A  0900               	iorlw	0
  2377   001A3C  B4D8               	btfsc	status,2,c
  2378   001A3E  EF23  F00D         	goto	u1681
  2379   001A42  EF25  F00D         	goto	u1680
  2380   001A46                     u1681:
  2381   001A46  EF1A  F00D         	goto	l3824
  2382   001A4A                     u1680:
  2383   001A4A                     
  2384                           ;mcc_generated_files/examples/i2c_master_example.c: 94:     I2C_SetDataCompleteCallback(
      +                          wr1RegCompleteHandler,&data);
  2385   001A4A  0E70               	movlw	low _wr1RegCompleteHandler
  2386   001A4C  6E1F               	movwf	I2C_SetDataCompleteCallback@cb^0,c
  2387   001A4E  0E1D               	movlw	high _wr1RegCompleteHandler
  2388   001A50  6E20               	movwf	(I2C_SetDataCompleteCallback@cb+1)^0,c
  2389   001A52  0E24               	movlw	low I2C_Write1ByteRegister@data
  2390   001A54  6E21               	movwf	I2C_SetDataCompleteCallback@ptr^0,c
  2391   001A56  0E00               	movlw	high I2C_Write1ByteRegister@data
  2392   001A58  6E22               	movwf	(I2C_SetDataCompleteCallback@ptr+1)^0,c
  2393   001A5A  EC52  F00F         	call	_I2C_SetDataCompleteCallback	;wreg free
  2394   001A5E                     
  2395                           ;mcc_generated_files/examples/i2c_master_example.c: 95:     I2C_SetBuffer(&reg,1);
  2396   001A5E  0E23               	movlw	low I2C_Write1ByteRegister@reg
  2397   001A60  6E1A               	movwf	I2C_SetBuffer@buffer^0,c
  2398   001A62  0E00               	movlw	high I2C_Write1ByteRegister@reg
  2399   001A64  6E1B               	movwf	(I2C_SetBuffer@buffer+1)^0,c
  2400   001A66  0E00               	movlw	0
  2401   001A68  6E1D               	movwf	(I2C_SetBuffer@bufferSize+1)^0,c
  2402   001A6A  0E01               	movlw	1
  2403   001A6C  6E1C               	movwf	I2C_SetBuffer@bufferSize^0,c
  2404   001A6E  EC10  F00F         	call	_I2C_SetBuffer	;wreg free
  2405   001A72                     
  2406                           ;mcc_generated_files/examples/i2c_master_example.c: 96:     I2C_SetAddressNackCallback((
      +                          (void*)0),((void*)0));
  2407   001A72  0E00               	movlw	0
  2408   001A74  6E1F               	movwf	I2C_SetAddressNackCallback@cb^0,c
  2409   001A76  0E00               	movlw	0
  2410   001A78  6E20               	movwf	(I2C_SetAddressNackCallback@cb+1)^0,c
  2411   001A7A  0E00               	movlw	0
  2412   001A7C  6E21               	movwf	I2C_SetAddressNackCallback@ptr^0,c
  2413   001A7E  0E00               	movlw	0
  2414   001A80  6E22               	movwf	(I2C_SetAddressNackCallback@ptr+1)^0,c
  2415   001A82  EC5E  F00F         	call	_I2C_SetAddressNackCallback	;wreg free
  2416   001A86                     
  2417                           ;mcc_generated_files/examples/i2c_master_example.c: 97:     I2C_MasterWrite();
  2418   001A86  ECE9  F00F         	call	_I2C_MasterWrite	;wreg free
  2419   001A8A                     l3834:
  2420   001A8A  ECA2  F00E         	call	_I2C_Close	;wreg free
  2421   001A8E  06E8               	decf	wreg,f,c
  2422   001A90  B4D8               	btfsc	status,2,c
  2423   001A92  EF4D  F00D         	goto	u1691
  2424   001A96  EF4F  F00D         	goto	u1690
  2425   001A9A                     u1691:
  2426   001A9A  EF45  F00D         	goto	l3834
  2427   001A9E                     u1690:
  2428   001A9E  0012               	return		;funcret
  2429   001AA0                     __end_of_I2C_Write1ByteRegister:
  2430                           	callstack 0
  2431                           
  2432 ;; *************** function _eeprom_24C01C_read_byte *****************
  2433 ;; Defined at:
  2434 ;;		line 10 in file "External_EEPROM/external_eeprom.c"
  2435 ;; Parameters:    Size  Location     Type
  2436 ;;  eeprom_id       1    wreg     unsigned char 
  2437 ;;  byte_address    1   37[COMRAM] unsigned char 
  2438 ;; Auto vars:     Size  Location     Type
  2439 ;;  eeprom_id       1   38[COMRAM] unsigned char 
  2440 ;; Return value:  Size  Location     Type
  2441 ;;                  1    wreg      unsigned char 
  2442 ;; Registers used:
  2443 ;;		wreg, fsr2l, fsr2h, status,2, status,0, prodl, prodh, cstack
  2444 ;; Tracked objects:
  2445 ;;		On entry : 0/0
  2446 ;;		On exit  : 0/0
  2447 ;;		Unchanged: 0/0
  2448 ;; Data sizes:     COMRAM   BANK0   BANK1   BANK2   BANK3   BANK4   BANK5   BANK6   BANK7   BANK8   BANK9  BANK10  BANK1
      +1  BANK12  BANK13  BANK14  BANK15
  2449 ;;      Params:         1       0       0       0       0       0       0       0       0       0       0       0       
      +0       0       0       0       0
  2450 ;;      Locals:         1       0       0       0       0       0       0       0       0       0       0       0       
      +0       0       0       0       0
  2451 ;;      Temps:          0       0       0       0       0       0       0       0       0       0       0       0       
      +0       0       0       0       0
  2452 ;;      Totals:         2       0       0       0       0       0       0       0       0       0       0       0       
      +0       0       0       0       0
  2453 ;;Total ram usage:        2 bytes
  2454 ;; Hardware stack levels used: 1
  2455 ;; Hardware stack levels required when called: 11
  2456 ;; This function calls:
  2457 ;;		_I2C_Read1ByteRegister
  2458 ;; This function is called by:
  2459 ;;		_main
  2460 ;; This function uses a non-reentrant model
  2461 ;;
  2462                           
  2463                           	psect	text15
  2464   001F60                     __ptext15:
  2465                           	callstack 0
  2466   001F60                     _eeprom_24C01C_read_byte:
  2467                           	callstack 19
  2468                           
  2469                           ;incstack = 0
  2470                           ;eeprom_24C01C_read_byte@eeprom_id stored from wreg
  2471   001F60  6E27               	movwf	eeprom_24C01C_read_byte@eeprom_id^0,c
  2472   001F62                     
  2473                           ;External_EEPROM/external_eeprom.c: 11:    return I2C_Read1ByteRegister(eeprom_id,byte_a
      +                          ddress);
  2474   001F62  C026  F023         	movff	eeprom_24C01C_read_byte@byte_address,I2C_Read1ByteRegister@reg
  2475   001F66  5027               	movf	eeprom_24C01C_read_byte@eeprom_id^0,w,c
  2476   001F68  ECA7  F00C         	call	_I2C_Read1ByteRegister
  2477   001F6C  0012               	return		;funcret
  2478   001F6E                     __end_of_eeprom_24C01C_read_byte:
  2479                           	callstack 0
  2480                           
  2481 ;; *************** function _Temp_sensor_TC74_Read *****************
  2482 ;; Defined at:
  2483 ;;		line 4 in file "Temp_sensor_TC74/Temp_sensor_TC74.c"
  2484 ;; Parameters:    Size  Location     Type
  2485 ;;  address         1    wreg     unsigned char 
  2486 ;;  reg             1   37[COMRAM] unsigned char 
  2487 ;; Auto vars:     Size  Location     Type
  2488 ;;  address         1   38[COMRAM] unsigned char 
  2489 ;; Return value:  Size  Location     Type
  2490 ;;                  1    wreg      unsigned char 
  2491 ;; Registers used:
  2492 ;;		wreg, fsr2l, fsr2h, status,2, status,0, prodl, prodh, cstack
  2493 ;; Tracked objects:
  2494 ;;		On entry : 0/0
  2495 ;;		On exit  : 0/0
  2496 ;;		Unchanged: 0/0
  2497 ;; Data sizes:     COMRAM   BANK0   BANK1   BANK2   BANK3   BANK4   BANK5   BANK6   BANK7   BANK8   BANK9  BANK10  BANK1
      +1  BANK12  BANK13  BANK14  BANK15
  2498 ;;      Params:         1       0       0       0       0       0       0       0       0       0       0       0       
      +0       0       0       0       0
  2499 ;;      Locals:         1       0       0       0       0       0       0       0       0       0       0       0       
      +0       0       0       0       0
  2500 ;;      Temps:          0       0       0       0       0       0       0       0       0       0       0       0       
      +0       0       0       0       0
  2501 ;;      Totals:         2       0       0       0       0       0       0       0       0       0       0       0       
      +0       0       0       0       0
  2502 ;;Total ram usage:        2 bytes
  2503 ;; Hardware stack levels used: 1
  2504 ;; Hardware stack levels required when called: 11
  2505 ;; This function calls:
  2506 ;;		_I2C_Read1ByteRegister
  2507 ;; This function is called by:
  2508 ;;		_main
  2509 ;; This function uses a non-reentrant model
  2510 ;;
  2511                           
  2512                           	psect	text16
  2513   001F6E                     __ptext16:
  2514                           	callstack 0
  2515   001F6E                     _Temp_sensor_TC74_Read:
  2516                           	callstack 19
  2517                           
  2518                           ;incstack = 0
  2519                           ;Temp_sensor_TC74_Read@address stored from wreg
  2520   001F6E  6E27               	movwf	Temp_sensor_TC74_Read@address^0,c
  2521   001F70                     
  2522                           ;Temp_sensor_TC74/Temp_sensor_TC74.c: 5:     return I2C_Read1ByteRegister(address,reg);
  2523   001F70  C026  F023         	movff	Temp_sensor_TC74_Read@reg,I2C_Read1ByteRegister@reg
  2524   001F74  5027               	movf	Temp_sensor_TC74_Read@address^0,w,c
  2525   001F76  ECA7  F00C         	call	_I2C_Read1ByteRegister
  2526   001F7A  0012               	return		;funcret
  2527   001F7C                     __end_of_Temp_sensor_TC74_Read:
  2528                           	callstack 0
  2529                           
  2530 ;; *************** function _I2C_Read1ByteRegister *****************
  2531 ;; Defined at:
  2532 ;;		line 63 in file "mcc_generated_files/examples/i2c_master_example.c"
  2533 ;; Parameters:    Size  Location     Type
  2534 ;;  address         1    wreg     unsigned char 
  2535 ;;  reg             1   34[COMRAM] unsigned char 
  2536 ;; Auto vars:     Size  Location     Type
  2537 ;;  address         1   35[COMRAM] unsigned char 
  2538 ;;  returnValue     1   36[COMRAM] unsigned char 
  2539 ;; Return value:  Size  Location     Type
  2540 ;;                  1    wreg      unsigned char 
  2541 ;; Registers used:
  2542 ;;		wreg, fsr2l, fsr2h, status,2, status,0, prodl, prodh, cstack
  2543 ;; Tracked objects:
  2544 ;;		On entry : 0/0
  2545 ;;		On exit  : 0/0
  2546 ;;		Unchanged: 0/0
  2547 ;; Data sizes:     COMRAM   BANK0   BANK1   BANK2   BANK3   BANK4   BANK5   BANK6   BANK7   BANK8   BANK9  BANK10  BANK1
      +1  BANK12  BANK13  BANK14  BANK15
  2548 ;;      Params:         1       0       0       0       0       0       0       0       0       0       0       0       
      +0       0       0       0       0
  2549 ;;      Locals:         2       0       0       0       0       0       0       0       0       0       0       0       
      +0       0       0       0       0
  2550 ;;      Temps:          0       0       0       0       0       0       0       0       0       0       0       0       
      +0       0       0       0       0
  2551 ;;      Totals:         3       0       0       0       0       0       0       0       0       0       0       0       
      +0       0       0       0       0
  2552 ;;Total ram usage:        3 bytes
  2553 ;; Hardware stack levels used: 1
  2554 ;; Hardware stack levels required when called: 10
  2555 ;; This function calls:
  2556 ;;		_I2C_Close
  2557 ;;		_I2C_MasterWrite
  2558 ;;		_I2C_Open
  2559 ;;		_I2C_SetAddressNackCallback
  2560 ;;		_I2C_SetBuffer
  2561 ;;		_I2C_SetDataCompleteCallback
  2562 ;; This function is called by:
  2563 ;;		_eeprom_24C01C_read_byte
  2564 ;;		_rtc_get_value
  2565 ;;		_Temp_sensor_TC74_Read
  2566 ;; This function uses a non-reentrant model
  2567 ;;
  2568                           
  2569                           	psect	text17
  2570   00194E                     __ptext17:
  2571                           	callstack 0
  2572   00194E                     _I2C_Read1ByteRegister:
  2573                           	callstack 19
  2574                           
  2575                           ;incstack = 0
  2576                           ;I2C_Read1ByteRegister@address stored from wreg
  2577   00194E  6E24               	movwf	I2C_Read1ByteRegister@address^0,c
  2578   001950                     
  2579                           ;mcc_generated_files/examples/i2c_master_example.c: 63: uint8_t I2C_Read1ByteRegister(i2
      +                          c_address_t address, uint8_t reg);mcc_generated_files/examples/i2c_master_example.c: 64:
      +                           {;mcc_generated_files/examples/i2c_master_example.c: 65:     uint8_t returnValue = 0x00
      +                          ;
  2580   001950  0E00               	movlw	0
  2581   001952  6E25               	movwf	I2C_Read1ByteRegister@returnValue^0,c
  2582   001954                     l3838:
  2583   001954  5024               	movf	I2C_Read1ByteRegister@address^0,w,c
  2584   001956  EC17  F00B         	call	_I2C_Open
  2585   00195A  0900               	iorlw	0
  2586   00195C  B4D8               	btfsc	status,2,c
  2587   00195E  EFB3  F00C         	goto	u1701
  2588   001962  EFB5  F00C         	goto	u1700
  2589   001966                     u1701:
  2590   001966  EFAA  F00C         	goto	l3838
  2591   00196A                     u1700:
  2592   00196A                     
  2593                           ;mcc_generated_files/examples/i2c_master_example.c: 68:     I2C_SetDataCompleteCallback(
      +                          rd1RegCompleteHandler,&returnValue);
  2594   00196A  0EC8               	movlw	low _rd1RegCompleteHandler
  2595   00196C  6E1F               	movwf	I2C_SetDataCompleteCallback@cb^0,c
  2596   00196E  0E1D               	movlw	high _rd1RegCompleteHandler
  2597   001970  6E20               	movwf	(I2C_SetDataCompleteCallback@cb+1)^0,c
  2598   001972  0E25               	movlw	low I2C_Read1ByteRegister@returnValue
  2599   001974  6E21               	movwf	I2C_SetDataCompleteCallback@ptr^0,c
  2600   001976  0E00               	movlw	high I2C_Read1ByteRegister@returnValue
  2601   001978  6E22               	movwf	(I2C_SetDataCompleteCallback@ptr+1)^0,c
  2602   00197A  EC52  F00F         	call	_I2C_SetDataCompleteCallback	;wreg free
  2603   00197E                     
  2604                           ;mcc_generated_files/examples/i2c_master_example.c: 69:     I2C_SetBuffer(&reg,1);
  2605   00197E  0E23               	movlw	low I2C_Read1ByteRegister@reg
  2606   001980  6E1A               	movwf	I2C_SetBuffer@buffer^0,c
  2607   001982  0E00               	movlw	high I2C_Read1ByteRegister@reg
  2608   001984  6E1B               	movwf	(I2C_SetBuffer@buffer+1)^0,c
  2609   001986  0E00               	movlw	0
  2610   001988  6E1D               	movwf	(I2C_SetBuffer@bufferSize+1)^0,c
  2611   00198A  0E01               	movlw	1
  2612   00198C  6E1C               	movwf	I2C_SetBuffer@bufferSize^0,c
  2613   00198E  EC10  F00F         	call	_I2C_SetBuffer	;wreg free
  2614   001992                     
  2615                           ;mcc_generated_files/examples/i2c_master_example.c: 70:     I2C_SetAddressNackCallback((
      +                          (void*)0),((void*)0));
  2616   001992  0E00               	movlw	0
  2617   001994  6E1F               	movwf	I2C_SetAddressNackCallback@cb^0,c
  2618   001996  0E00               	movlw	0
  2619   001998  6E20               	movwf	(I2C_SetAddressNackCallback@cb+1)^0,c
  2620   00199A  0E00               	movlw	0
  2621   00199C  6E21               	movwf	I2C_SetAddressNackCallback@ptr^0,c
  2622   00199E  0E00               	movlw	0
  2623   0019A0  6E22               	movwf	(I2C_SetAddressNackCallback@ptr+1)^0,c
  2624   0019A2  EC5E  F00F         	call	_I2C_SetAddressNackCallback	;wreg free
  2625   0019A6                     
  2626                           ;mcc_generated_files/examples/i2c_master_example.c: 71:     I2C_MasterWrite();
  2627   0019A6  ECE9  F00F         	call	_I2C_MasterWrite	;wreg free
  2628   0019AA                     l3848:
  2629   0019AA  ECA2  F00E         	call	_I2C_Close	;wreg free
  2630   0019AE  06E8               	decf	wreg,f,c
  2631   0019B0  B4D8               	btfsc	status,2,c
  2632   0019B2  EFDD  F00C         	goto	u1711
  2633   0019B6  EFDF  F00C         	goto	u1710
  2634   0019BA                     u1711:
  2635   0019BA  EFD5  F00C         	goto	l3848
  2636   0019BE                     u1710:
  2637   0019BE                     
  2638                           ;mcc_generated_files/examples/i2c_master_example.c: 74:     return returnValue;
  2639   0019BE  5025               	movf	I2C_Read1ByteRegister@returnValue^0,w,c
  2640   0019C0  0012               	return		;funcret
  2641   0019C2                     __end_of_I2C_Read1ByteRegister:
  2642                           	callstack 0
  2643                           
  2644 ;; *************** function _I2C_SetDataCompleteCallback *****************
  2645 ;; Defined at:
  2646 ;;		line 274 in file "mcc_generated_files/i2c_master.c"
  2647 ;; Parameters:    Size  Location     Type
  2648 ;;  cb              2   30[COMRAM] PTR FTN(PTR void ,)enum 
  2649 ;;		 -> NULL(1), rdBlkRegCompleteHandler(1), wr2RegCompleteHandler(1), wr1RegCompleteHandler(1), 
  2650 ;;		 -> rd2RegCompleteHandler(1), rd1RegCompleteHandler(1), 
  2651 ;;  ptr             2   32[COMRAM] PTR void 
  2652 ;;		 -> I2C_ReadDataBlock@bufferBlock(4), I2C_Write2ByteRegister@data(2), I2C_Write1ByteRegister@data(1), I2C_Read2ByteR
      +egister@returnValue(2), 
  2653 ;;		 -> NULL(0), I2C_Read1ByteRegister@returnValue(1), 
  2654 ;; Auto vars:     Size  Location     Type
  2655 ;;		None
  2656 ;; Return value:  Size  Location     Type
  2657 ;;                  1    wreg      void 
  2658 ;; Registers used:
  2659 ;;		wreg, fsr2l, fsr2h, status,2, status,0, prodl, prodh, cstack
  2660 ;; Tracked objects:
  2661 ;;		On entry : 0/0
  2662 ;;		On exit  : 0/0
  2663 ;;		Unchanged: 0/0
  2664 ;; Data sizes:     COMRAM   BANK0   BANK1   BANK2   BANK3   BANK4   BANK5   BANK6   BANK7   BANK8   BANK9  BANK10  BANK1
      +1  BANK12  BANK13  BANK14  BANK15
  2665 ;;      Params:         4       0       0       0       0       0       0       0       0       0       0       0       
      +0       0       0       0       0
  2666 ;;      Locals:         0       0       0       0       0       0       0       0       0       0       0       0       
      +0       0       0       0       0
  2667 ;;      Temps:          0       0       0       0       0       0       0       0       0       0       0       0       
      +0       0       0       0       0
  2668 ;;      Totals:         4       0       0       0       0       0       0       0       0       0       0       0       
      +0       0       0       0       0
  2669 ;;Total ram usage:        4 bytes
  2670 ;; Hardware stack levels used: 1
  2671 ;; Hardware stack levels required when called: 8
  2672 ;; This function calls:
  2673 ;;		_I2C_SetCallback
  2674 ;; This function is called by:
  2675 ;;		_I2C_Read1ByteRegister
  2676 ;;		_I2C_Write1ByteRegister
  2677 ;;		_I2C_Read2ByteRegister
  2678 ;;		_I2C_Write2ByteRegister
  2679 ;;		_I2C_ReadDataBlock
  2680 ;; This function uses a non-reentrant model
  2681 ;;
  2682                           
  2683                           	psect	text18
  2684   001EA4                     __ptext18:
  2685                           	callstack 0
  2686   001EA4                     _I2C_SetDataCompleteCallback:
  2687                           	callstack 20
  2688   001EA4                     
  2689                           ;mcc_generated_files/i2c_master.c: 274: void I2C_SetDataCompleteCallback(i2c_callback_t 
      +                          cb, void *ptr);mcc_generated_files/i2c_master.c: 275: {;mcc_generated_files/i2c_master.c
      +                          : 276:     I2C_SetCallback(I2C_DATA_COMPLETE, cb, ptr);
  2690   001EA4  C01F  F01A         	movff	I2C_SetDataCompleteCallback@cb,I2C_SetCallback@cb
  2691   001EA8  C020  F01B         	movff	I2C_SetDataCompleteCallback@cb+1,I2C_SetCallback@cb+1
  2692   001EAC  C021  F01C         	movff	I2C_SetDataCompleteCallback@ptr,I2C_SetCallback@ptr
  2693   001EB0  C022  F01D         	movff	I2C_SetDataCompleteCallback@ptr+1,I2C_SetCallback@ptr+1
  2694   001EB4  0E00               	movlw	0
  2695   001EB6  EC31  F00C         	call	_I2C_SetCallback
  2696   001EBA  0012               	return		;funcret
  2697   001EBC                     __end_of_I2C_SetDataCompleteCallback:
  2698                           	callstack 0
  2699                           
  2700 ;; *************** function _I2C_SetBuffer *****************
  2701 ;; Defined at:
  2702 ;;		line 264 in file "mcc_generated_files/i2c_master.c"
  2703 ;; Parameters:    Size  Location     Type
  2704 ;;  buffer          2   25[COMRAM] PTR void 
  2705 ;;		 -> I2C_ReadDataBlock@reg(1), I2C_ReadDataBlock@bufferBlock(4), I2C_Write2ByteRegister@reg(1), I2C_Write2ByteRegiste
      +r@data(2), 
  2706 ;;		 -> I2C_Write1ByteRegister@reg(1), I2C_Write1ByteRegister@data(1), I2C_Read2ByteRegister@reg(1), I2C_Read2ByteRegist
      +er@returnValue(2), 
  2707 ;;		 -> NULL(0), I2C_Read1ByteRegister@reg(1), I2C_Read1ByteRegister@returnValue(1), 
  2708 ;;  bufferSize      2   27[COMRAM] unsigned int 
  2709 ;; Auto vars:     Size  Location     Type
  2710 ;;		None
  2711 ;; Return value:  Size  Location     Type
  2712 ;;                  1    wreg      void 
  2713 ;; Registers used:
  2714 ;;		wreg, status,2, status,0
  2715 ;; Tracked objects:
  2716 ;;		On entry : 0/0
  2717 ;;		On exit  : 0/0
  2718 ;;		Unchanged: 0/0
  2719 ;; Data sizes:     COMRAM   BANK0   BANK1   BANK2   BANK3   BANK4   BANK5   BANK6   BANK7   BANK8   BANK9  BANK10  BANK1
      +1  BANK12  BANK13  BANK14  BANK15
  2720 ;;      Params:         4       0       0       0       0       0       0       0       0       0       0       0       
      +0       0       0       0       0
  2721 ;;      Locals:         0       0       0       0       0       0       0       0       0       0       0       0       
      +0       0       0       0       0
  2722 ;;      Temps:          0       0       0       0       0       0       0       0       0       0       0       0       
      +0       0       0       0       0
  2723 ;;      Totals:         4       0       0       0       0       0       0       0       0       0       0       0       
      +0       0       0       0       0
  2724 ;;Total ram usage:        4 bytes
  2725 ;; Hardware stack levels used: 1
  2726 ;; Hardware stack levels required when called: 7
  2727 ;; This function calls:
  2728 ;;		Nothing
  2729 ;; This function is called by:
  2730 ;;		_I2C_Read1ByteRegister
  2731 ;;		_I2C_Write1ByteRegister
  2732 ;;		_I2C_Read2ByteRegister
  2733 ;;		_I2C_Write2ByteRegister
  2734 ;;		_I2C_WriteNBytes
  2735 ;;		_I2C_ReadNBytes
  2736 ;;		_I2C_ReadDataBlock
  2737 ;; This function uses a non-reentrant model
  2738 ;;
  2739                           
  2740                           	psect	text19
  2741   001E20                     __ptext19:
  2742                           	callstack 0
  2743   001E20                     _I2C_SetBuffer:
  2744                           	callstack 21
  2745   001E20                     
  2746                           ;mcc_generated_files/i2c_master.c: 264: void I2C_SetBuffer(void *buffer, size_t bufferSi
      +                          ze);mcc_generated_files/i2c_master.c: 265: {;mcc_generated_files/i2c_master.c: 266:     
      +                          if(I2C_Status.bufferFree)
  2747   001E20  0100               	movlb	0	; () banked
  2748   001E22  A7D9               	btfss	(_I2C_Status+35)& (0+255),3,b
  2749   001E24  EF16  F00F         	goto	u1651
  2750   001E28  EF18  F00F         	goto	u1650
  2751   001E2C                     u1651:
  2752   001E2C  EF21  F00F         	goto	l499
  2753   001E30                     u1650:
  2754   001E30                     
  2755                           ; BSR set to: 0
  2756                           ;mcc_generated_files/i2c_master.c: 267:     {;mcc_generated_files/i2c_master.c: 268:    
      +                               I2C_Status.data_ptr = buffer;
  2757   001E30  C01A  F0D3         	movff	I2C_SetBuffer@buffer,_I2C_Status+29
  2758   001E34  C01B  F0D4         	movff	I2C_SetBuffer@buffer+1,_I2C_Status+30
  2759   001E38                     
  2760                           ; BSR set to: 0
  2761                           ;mcc_generated_files/i2c_master.c: 269:         I2C_Status.data_length = bufferSize;
  2762   001E38  C01C  F0D5         	movff	I2C_SetBuffer@bufferSize,_I2C_Status+31
  2763   001E3C  C01D  F0D6         	movff	I2C_SetBuffer@bufferSize+1,_I2C_Status+32
  2764   001E40                     
  2765                           ; BSR set to: 0
  2766                           ;mcc_generated_files/i2c_master.c: 270:         I2C_Status.bufferFree = 0;
  2767   001E40  97D9               	bcf	(_I2C_Status+35)& (0+255),3,b
  2768   001E42                     l499:
  2769                           
  2770                           ; BSR set to: 0
  2771   001E42  0012               	return		;funcret
  2772   001E44                     __end_of_I2C_SetBuffer:
  2773                           	callstack 0
  2774                           
  2775 ;; *************** function _I2C_SetAddressNackCallback *****************
  2776 ;; Defined at:
  2777 ;;		line 284 in file "mcc_generated_files/i2c_master.c"
  2778 ;; Parameters:    Size  Location     Type
  2779 ;;  cb              2   30[COMRAM] PTR FTN(PTR void ,)enum 
  2780 ;;		 -> NULL(1), 
  2781 ;;  ptr             2   32[COMRAM] PTR void 
  2782 ;;		 -> NULL(0), 
  2783 ;; Auto vars:     Size  Location     Type
  2784 ;;		None
  2785 ;; Return value:  Size  Location     Type
  2786 ;;                  1    wreg      void 
  2787 ;; Registers used:
  2788 ;;		wreg, fsr2l, fsr2h, status,2, status,0, prodl, prodh, cstack
  2789 ;; Tracked objects:
  2790 ;;		On entry : 0/0
  2791 ;;		On exit  : 0/0
  2792 ;;		Unchanged: 0/0
  2793 ;; Data sizes:     COMRAM   BANK0   BANK1   BANK2   BANK3   BANK4   BANK5   BANK6   BANK7   BANK8   BANK9  BANK10  BANK1
      +1  BANK12  BANK13  BANK14  BANK15
  2794 ;;      Params:         4       0       0       0       0       0       0       0       0       0       0       0       
      +0       0       0       0       0
  2795 ;;      Locals:         0       0       0       0       0       0       0       0       0       0       0       0       
      +0       0       0       0       0
  2796 ;;      Temps:          0       0       0       0       0       0       0       0       0       0       0       0       
      +0       0       0       0       0
  2797 ;;      Totals:         4       0       0       0       0       0       0       0       0       0       0       0       
      +0       0       0       0       0
  2798 ;;Total ram usage:        4 bytes
  2799 ;; Hardware stack levels used: 1
  2800 ;; Hardware stack levels required when called: 8
  2801 ;; This function calls:
  2802 ;;		_I2C_SetCallback
  2803 ;; This function is called by:
  2804 ;;		_I2C_Read1ByteRegister
  2805 ;;		_I2C_Write1ByteRegister
  2806 ;;		_I2C_Read2ByteRegister
  2807 ;;		_I2C_Write2ByteRegister
  2808 ;;		_I2C_WriteNBytes
  2809 ;;		_I2C_ReadDataBlock
  2810 ;; This function uses a non-reentrant model
  2811 ;;
  2812                           
  2813                           	psect	text20
  2814   001EBC                     __ptext20:
  2815                           	callstack 0
  2816   001EBC                     _I2C_SetAddressNackCallback:
  2817                           	callstack 20
  2818   001EBC                     
  2819                           ;mcc_generated_files/i2c_master.c: 284: void I2C_SetAddressNackCallback(i2c_callback_t c
      +                          b, void *ptr);mcc_generated_files/i2c_master.c: 285: {;mcc_generated_files/i2c_master.c:
      +                           286:     I2C_SetCallback(I2C_ADDR_NACK, cb, ptr);
  2820   001EBC  C01F  F01A         	movff	I2C_SetAddressNackCallback@cb,I2C_SetCallback@cb
  2821   001EC0  C020  F01B         	movff	I2C_SetAddressNackCallback@cb+1,I2C_SetCallback@cb+1
  2822   001EC4  C021  F01C         	movff	I2C_SetAddressNackCallback@ptr,I2C_SetCallback@ptr
  2823   001EC8  C022  F01D         	movff	I2C_SetAddressNackCallback@ptr+1,I2C_SetCallback@ptr+1
  2824   001ECC  0E02               	movlw	2
  2825   001ECE  EC31  F00C         	call	_I2C_SetCallback
  2826   001ED2  0012               	return		;funcret
  2827   001ED4                     __end_of_I2C_SetAddressNackCallback:
  2828                           	callstack 0
  2829                           
  2830 ;; *************** function _I2C_SetCallback *****************
  2831 ;; Defined at:
  2832 ;;		line 304 in file "mcc_generated_files/i2c_master.c"
  2833 ;; Parameters:    Size  Location     Type
  2834 ;;  idx             1    wreg     enum E3139
  2835 ;;  cb              2   25[COMRAM] PTR FTN(PTR void ,)enum 
  2836 ;;		 -> NULL(1), rdBlkRegCompleteHandler(1), wr2RegCompleteHandler(1), wr1RegCompleteHandler(1), 
  2837 ;;		 -> rd2RegCompleteHandler(1), rd1RegCompleteHandler(1), 
  2838 ;;  ptr             2   27[COMRAM] PTR void 
  2839 ;;		 -> I2C_ReadDataBlock@bufferBlock(4), I2C_Write2ByteRegister@data(2), I2C_Write1ByteRegister@data(1), I2C_Read2ByteR
      +egister@returnValue(2), 
  2840 ;;		 -> NULL(0), I2C_Read1ByteRegister@returnValue(1), 
  2841 ;; Auto vars:     Size  Location     Type
  2842 ;;  idx             1   29[COMRAM] enum E3139
  2843 ;; Return value:  Size  Location     Type
  2844 ;;                  1    wreg      void 
  2845 ;; Registers used:
  2846 ;;		wreg, fsr2l, fsr2h, status,2, status,0, prodl, prodh
  2847 ;; Tracked objects:
  2848 ;;		On entry : 0/0
  2849 ;;		On exit  : 0/0
  2850 ;;		Unchanged: 0/0
  2851 ;; Data sizes:     COMRAM   BANK0   BANK1   BANK2   BANK3   BANK4   BANK5   BANK6   BANK7   BANK8   BANK9  BANK10  BANK1
      +1  BANK12  BANK13  BANK14  BANK15
  2852 ;;      Params:         4       0       0       0       0       0       0       0       0       0       0       0       
      +0       0       0       0       0
  2853 ;;      Locals:         1       0       0       0       0       0       0       0       0       0       0       0       
      +0       0       0       0       0
  2854 ;;      Temps:          0       0       0       0       0       0       0       0       0       0       0       0       
      +0       0       0       0       0
  2855 ;;      Totals:         5       0       0       0       0       0       0       0       0       0       0       0       
      +0       0       0       0       0
  2856 ;;Total ram usage:        5 bytes
  2857 ;; Hardware stack levels used: 1
  2858 ;; Hardware stack levels required when called: 7
  2859 ;; This function calls:
  2860 ;;		Nothing
  2861 ;; This function is called by:
  2862 ;;		_I2C_SetDataCompleteCallback
  2863 ;;		_I2C_SetAddressNackCallback
  2864 ;;		_I2C_SetWriteCollisionCallback
  2865 ;;		_I2C_SetDataNackCallback
  2866 ;;		_I2C_SetTimeoutCallback
  2867 ;; This function uses a non-reentrant model
  2868 ;;
  2869                           
  2870                           	psect	text21
  2871   001862                     __ptext21:
  2872                           	callstack 0
  2873   001862                     _I2C_SetCallback:
  2874                           	callstack 20
  2875                           
  2876                           ;incstack = 0
  2877                           ;I2C_SetCallback@idx stored from wreg
  2878   001862  6E1E               	movwf	I2C_SetCallback@idx^0,c
  2879   001864                     
  2880                           ;mcc_generated_files/i2c_master.c: 304: static void I2C_SetCallback(i2c_callbackIndex_t 
      +                          idx, i2c_callback_t cb, void *ptr);mcc_generated_files/i2c_master.c: 305: {;mcc_generate
      +                          d_files/i2c_master.c: 306:     if(cb)
  2881   001864  501A               	movf	I2C_SetCallback@cb^0,w,c
  2882   001866  101B               	iorwf	(I2C_SetCallback@cb+1)^0,w,c
  2883   001868  B4D8               	btfsc	status,2,c
  2884   00186A  EF39  F00C         	goto	u1611
  2885   00186E  EF3B  F00C         	goto	u1610
  2886   001872                     u1611:
  2887   001872  EF55  F00C         	goto	l3692
  2888   001876                     u1610:
  2889   001876                     
  2890                           ;mcc_generated_files/i2c_master.c: 307:     {;mcc_generated_files/i2c_master.c: 308:    
      +                               I2C_Status.callbackTable[idx] = cb;
  2891   001876  501E               	movf	I2C_SetCallback@idx^0,w,c
  2892   001878  0D02               	mullw	2
  2893   00187A  0EB6               	movlw	low _I2C_Status
  2894   00187C  24F3               	addwf	243,w,c
  2895   00187E  6ED9               	movwf	fsr2l,c
  2896   001880  0E00               	movlw	high _I2C_Status
  2897   001882  20F4               	addwfc	prodh,w,c
  2898   001884  6EDA               	movwf	fsr2h,c
  2899   001886  C01A  FFDE         	movff	I2C_SetCallback@cb,postinc2
  2900   00188A  C01B  FFDD         	movff	I2C_SetCallback@cb+1,postdec2
  2901                           
  2902                           ;mcc_generated_files/i2c_master.c: 309:         I2C_Status.callbackPayload[idx] = ptr;
  2903   00188E  501E               	movf	I2C_SetCallback@idx^0,w,c
  2904   001890  0D02               	mullw	2
  2905   001892  0EC2               	movlw	low (_I2C_Status+12)
  2906   001894  24F3               	addwf	243,w,c
  2907   001896  6ED9               	movwf	fsr2l,c
  2908   001898  0E00               	movlw	high (_I2C_Status+12)
  2909   00189A  20F4               	addwfc	prodh,w,c
  2910   00189C  6EDA               	movwf	fsr2h,c
  2911   00189E  C01C  FFDE         	movff	I2C_SetCallback@ptr,postinc2
  2912   0018A2  C01D  FFDD         	movff	I2C_SetCallback@ptr+1,postdec2
  2913                           
  2914                           ;mcc_generated_files/i2c_master.c: 310:     }
  2915   0018A6  EF6B  F00C         	goto	l522
  2916   0018AA                     l3692:
  2917                           
  2918                           ;mcc_generated_files/i2c_master.c: 312:     {;mcc_generated_files/i2c_master.c: 313:    
      +                               I2C_Status.callbackTable[idx] = I2C_CallbackReturnStop;
  2919   0018AA  501E               	movf	I2C_SetCallback@idx^0,w,c
  2920   0018AC  0D02               	mullw	2
  2921   0018AE  0EB6               	movlw	low _I2C_Status
  2922   0018B0  24F3               	addwf	243,w,c
  2923   0018B2  6ED9               	movwf	fsr2l,c
  2924   0018B4  0E00               	movlw	high _I2C_Status
  2925   0018B6  20F4               	addwfc	prodh,w,c
  2926   0018B8  6EDA               	movwf	fsr2h,c
  2927   0018BA  0E58               	movlw	low _I2C_CallbackReturnStop
  2928   0018BC  6EDE               	movwf	postinc2,c
  2929   0018BE  0E20               	movlw	high _I2C_CallbackReturnStop
  2930   0018C0  6EDD               	movwf	postdec2,c
  2931                           
  2932                           ;mcc_generated_files/i2c_master.c: 314:         I2C_Status.callbackPayload[idx] = ((void
      +                          *)0);
  2933   0018C2  501E               	movf	I2C_SetCallback@idx^0,w,c
  2934   0018C4  0D02               	mullw	2
  2935   0018C6  0EC2               	movlw	low (_I2C_Status+12)
  2936   0018C8  24F3               	addwf	243,w,c
  2937   0018CA  6ED9               	movwf	fsr2l,c
  2938   0018CC  0E00               	movlw	high (_I2C_Status+12)
  2939   0018CE  20F4               	addwfc	prodh,w,c
  2940   0018D0  6EDA               	movwf	fsr2h,c
  2941   0018D2  6ADE               	clrf	postinc2,c
  2942   0018D4  6ADD               	clrf	postdec2,c
  2943   0018D6                     l522:
  2944   0018D6  0012               	return		;funcret
  2945   0018D8                     __end_of_I2C_SetCallback:
  2946                           	callstack 0
  2947                           
  2948 ;; *************** function _I2C_Open *****************
  2949 ;; Defined at:
  2950 ;;		line 176 in file "mcc_generated_files/i2c_master.c"
  2951 ;; Parameters:    Size  Location     Type
  2952 ;;  address         1    wreg     unsigned char 
  2953 ;; Auto vars:     Size  Location     Type
  2954 ;;  address         1   27[COMRAM] unsigned char 
  2955 ;;  returnValue     1   28[COMRAM] enum E358
  2956 ;; Return value:  Size  Location     Type
  2957 ;;                  1    wreg      enum E358
  2958 ;; Registers used:
  2959 ;;		wreg, status,2, status,0, cstack
  2960 ;; Tracked objects:
  2961 ;;		On entry : 0/0
  2962 ;;		On exit  : 0/0
  2963 ;;		Unchanged: 0/0
  2964 ;; Data sizes:     COMRAM   BANK0   BANK1   BANK2   BANK3   BANK4   BANK5   BANK6   BANK7   BANK8   BANK9  BANK10  BANK1
      +1  BANK12  BANK13  BANK14  BANK15
  2965 ;;      Params:         0       0       0       0       0       0       0       0       0       0       0       0       
      +0       0       0       0       0
  2966 ;;      Locals:         2       0       0       0       0       0       0       0       0       0       0       0       
      +0       0       0       0       0
  2967 ;;      Temps:          0       0       0       0       0       0       0       0       0       0       0       0       
      +0       0       0       0       0
  2968 ;;      Totals:         2       0       0       0       0       0       0       0       0       0       0       0       
      +0       0       0       0       0
  2969 ;;Total ram usage:        2 bytes
  2970 ;; Hardware stack levels used: 1
  2971 ;; Hardware stack levels required when called: 8
  2972 ;; This function calls:
  2973 ;;		_I2C_MasterClearIrq
  2974 ;;		_I2C_MasterEnableIrq
  2975 ;;		_I2C_MasterOpen
  2976 ;;		_I2C_SetInterruptHandler
  2977 ;; This function is called by:
  2978 ;;		_I2C_Read1ByteRegister
  2979 ;;		_I2C_Write1ByteRegister
  2980 ;;		_I2C_Read2ByteRegister
  2981 ;;		_I2C_Write2ByteRegister
  2982 ;;		_I2C_WriteNBytes
  2983 ;;		_I2C_ReadNBytes
  2984 ;;		_I2C_ReadDataBlock
  2985 ;; This function uses a non-reentrant model
  2986 ;;
  2987                           
  2988                           	psect	text22
  2989   00162E                     __ptext22:
  2990                           	callstack 0
  2991   00162E                     _I2C_Open:
  2992                           	callstack 20
  2993                           
  2994                           ;incstack = 0
  2995                           ;I2C_Open@address stored from wreg
  2996   00162E  6E1C               	movwf	I2C_Open@address^0,c
  2997   001630                     
  2998                           ;mcc_generated_files/i2c_master.c: 176: i2c_error_t I2C_Open(i2c_address_t address);mcc_
      +                          generated_files/i2c_master.c: 177: {;mcc_generated_files/i2c_master.c: 178:     i2c_erro
      +                          r_t returnValue = I2C_BUSY;
  2999   001630  0E01               	movlw	1
  3000   001632  6E1D               	movwf	I2C_Open@returnValue^0,c
  3001   001634                     
  3002                           ;mcc_generated_files/i2c_master.c: 180:     if(!I2C_Status.inUse)
  3003   001634  0100               	movlb	0	; () banked
  3004   001636  B5D9               	btfsc	(_I2C_Status+35)& (0+255),2,b
  3005   001638  EF20  F00B         	goto	u1641
  3006   00163C  EF22  F00B         	goto	u1640
  3007   001640                     u1641:
  3008   001640  EF64  F00B         	goto	l3778
  3009   001644                     u1640:
  3010   001644                     
  3011                           ; BSR set to: 0
  3012                           ;mcc_generated_files/i2c_master.c: 181:     {;mcc_generated_files/i2c_master.c: 182:    
      +                               I2C_Status.address = address;
  3013   001644  C01C  F0D2         	movff	I2C_Open@address,_I2C_Status+28
  3014   001648                     
  3015                           ; BSR set to: 0
  3016                           ;mcc_generated_files/i2c_master.c: 183:         I2C_Status.busy = 0;
  3017   001648  93D9               	bcf	(_I2C_Status+35)& (0+255),1,b
  3018   00164A                     
  3019                           ; BSR set to: 0
  3020                           ;mcc_generated_files/i2c_master.c: 184:         I2C_Status.inUse = 1;
  3021   00164A  85D9               	bsf	(_I2C_Status+35)& (0+255),2,b
  3022   00164C                     
  3023                           ; BSR set to: 0
  3024                           ;mcc_generated_files/i2c_master.c: 185:         I2C_Status.addressNackCheck = 0;
  3025   00164C  91D9               	bcf	(_I2C_Status+35)& (0+255),0,b
  3026   00164E                     
  3027                           ; BSR set to: 0
  3028                           ;mcc_generated_files/i2c_master.c: 186:         I2C_Status.state = I2C_RESET;
  3029   00164E  0E0E               	movlw	14
  3030   001650  6FD7               	movwf	(_I2C_Status+33)& (0+255),b
  3031   001652                     
  3032                           ; BSR set to: 0
  3033                           ;mcc_generated_files/i2c_master.c: 187:         I2C_Status.time_out_value = 500;
  3034   001652  0E01               	movlw	1
  3035   001654  6FD1               	movwf	(_I2C_Status+27)& (0+255),b
  3036   001656  0EF4               	movlw	244
  3037   001658  6FD0               	movwf	(_I2C_Status+26)& (0+255),b
  3038   00165A                     
  3039                           ; BSR set to: 0
  3040                           ;mcc_generated_files/i2c_master.c: 188:         I2C_Status.bufferFree = 1;
  3041   00165A  87D9               	bsf	(_I2C_Status+35)& (0+255),3,b
  3042   00165C                     
  3043                           ; BSR set to: 0
  3044                           ;mcc_generated_files/i2c_master.c: 191:         I2C_Status.callbackTable[I2C_DATA_COMPLE
      +                          TE]=I2C_CallbackReturnStop;
  3045   00165C  0E58               	movlw	low _I2C_CallbackReturnStop
  3046   00165E  6FB6               	movwf	_I2C_Status& (0+255),b
  3047   001660  0E20               	movlw	high _I2C_CallbackReturnStop
  3048   001662  6FB7               	movwf	(_I2C_Status+1)& (0+255),b
  3049   001664                     
  3050                           ; BSR set to: 0
  3051                           ;mcc_generated_files/i2c_master.c: 192:         I2C_Status.callbackPayload[I2C_DATA_COMP
      +                          LETE] = ((void*)0);
  3052   001664  0E00               	movlw	0
  3053   001666  6FC2               	movwf	(_I2C_Status+12)& (0+255),b
  3054   001668  0E00               	movlw	0
  3055   00166A  6FC3               	movwf	(_I2C_Status+13)& (0+255),b
  3056   00166C                     
  3057                           ; BSR set to: 0
  3058                           ;mcc_generated_files/i2c_master.c: 193:         I2C_Status.callbackTable[I2C_WRITE_COLLI
      +                          SION]=I2C_CallbackReturnStop;
  3059   00166C  0E58               	movlw	low _I2C_CallbackReturnStop
  3060   00166E  6FB8               	movwf	(_I2C_Status+2)& (0+255),b
  3061   001670  0E20               	movlw	high _I2C_CallbackReturnStop
  3062   001672  6FB9               	movwf	(_I2C_Status+3)& (0+255),b
  3063   001674                     
  3064                           ; BSR set to: 0
  3065                           ;mcc_generated_files/i2c_master.c: 194:         I2C_Status.callbackPayload[I2C_WRITE_COL
      +                          LISION] = ((void*)0);
  3066   001674  0E00               	movlw	0
  3067   001676  6FC4               	movwf	(_I2C_Status+14)& (0+255),b
  3068   001678  0E00               	movlw	0
  3069   00167A  6FC5               	movwf	(_I2C_Status+15)& (0+255),b
  3070   00167C                     
  3071                           ; BSR set to: 0
  3072                           ;mcc_generated_files/i2c_master.c: 195:         I2C_Status.callbackTable[I2C_ADDR_NACK]=
      +                          I2C_CallbackReturnStop;
  3073   00167C  0E58               	movlw	low _I2C_CallbackReturnStop
  3074   00167E  6FBA               	movwf	(_I2C_Status+4)& (0+255),b
  3075   001680  0E20               	movlw	high _I2C_CallbackReturnStop
  3076   001682  6FBB               	movwf	(_I2C_Status+5)& (0+255),b
  3077   001684                     
  3078                           ; BSR set to: 0
  3079                           ;mcc_generated_files/i2c_master.c: 196:         I2C_Status.callbackPayload[I2C_ADDR_NACK
      +                          ] = ((void*)0);
  3080   001684  0E00               	movlw	0
  3081   001686  6FC6               	movwf	(_I2C_Status+16)& (0+255),b
  3082   001688  0E00               	movlw	0
  3083   00168A  6FC7               	movwf	(_I2C_Status+17)& (0+255),b
  3084   00168C                     
  3085                           ; BSR set to: 0
  3086                           ;mcc_generated_files/i2c_master.c: 197:         I2C_Status.callbackTable[I2C_DATA_NACK]=
      +                          I2C_CallbackReturnStop;
  3087   00168C  0E58               	movlw	low _I2C_CallbackReturnStop
  3088   00168E  6FBC               	movwf	(_I2C_Status+6)& (0+255),b
  3089   001690  0E20               	movlw	high _I2C_CallbackReturnStop
  3090   001692  6FBD               	movwf	(_I2C_Status+7)& (0+255),b
  3091   001694                     
  3092                           ; BSR set to: 0
  3093                           ;mcc_generated_files/i2c_master.c: 198:         I2C_Status.callbackPayload[I2C_DATA_NACK
      +                          ] = ((void*)0);
  3094   001694  0E00               	movlw	0
  3095   001696  6FC8               	movwf	(_I2C_Status+18)& (0+255),b
  3096   001698  0E00               	movlw	0
  3097   00169A  6FC9               	movwf	(_I2C_Status+19)& (0+255),b
  3098   00169C                     
  3099                           ; BSR set to: 0
  3100                           ;mcc_generated_files/i2c_master.c: 199:         I2C_Status.callbackTable[I2C_TIMEOUT]=I2
      +                          C_CallbackReturnReset;
  3101   00169C  0E54               	movlw	low _I2C_CallbackReturnReset
  3102   00169E  6FBE               	movwf	(_I2C_Status+8)& (0+255),b
  3103   0016A0  0E20               	movlw	high _I2C_CallbackReturnReset
  3104   0016A2  6FBF               	movwf	(_I2C_Status+9)& (0+255),b
  3105   0016A4                     
  3106                           ; BSR set to: 0
  3107                           ;mcc_generated_files/i2c_master.c: 200:         I2C_Status.callbackPayload[I2C_TIMEOUT] 
      +                          = ((void*)0);
  3108   0016A4  0E00               	movlw	0
  3109   0016A6  6FCA               	movwf	(_I2C_Status+20)& (0+255),b
  3110   0016A8  0E00               	movlw	0
  3111   0016AA  6FCB               	movwf	(_I2C_Status+21)& (0+255),b
  3112   0016AC                     
  3113                           ; BSR set to: 0
  3114                           ;mcc_generated_files/i2c_master.c: 202:         I2C_SetInterruptHandler(I2C_MasterIsr);
  3115   0016AC  0E1A               	movlw	low _I2C_MasterIsr
  3116   0016AE  6E1A               	movwf	I2C_SetInterruptHandler@InterruptHandler^0,c
  3117   0016B0  0E20               	movlw	high _I2C_MasterIsr
  3118   0016B2  6E1B               	movwf	(I2C_SetInterruptHandler@InterruptHandler+1)^0,c
  3119   0016B4  ECD0  F00F         	call	_I2C_SetInterruptHandler	;wreg free
  3120   0016B8                     
  3121                           ;mcc_generated_files/i2c_master.c: 203:         I2C_MasterClearIrq();
  3122   0016B8  EC1E  F010         	call	_I2C_MasterClearIrq	;wreg free
  3123   0016BC                     
  3124                           ;mcc_generated_files/i2c_master.c: 204:         I2C_MasterOpen();
  3125   0016BC  EC34  F00F         	call	_I2C_MasterOpen	;wreg free
  3126   0016C0                     
  3127                           ;mcc_generated_files/i2c_master.c: 205:         I2C_MasterEnableIrq();
  3128   0016C0  EC16  F010         	call	_I2C_MasterEnableIrq	;wreg free
  3129   0016C4                     
  3130                           ;mcc_generated_files/i2c_master.c: 206:         returnValue = I2C_NOERR;
  3131   0016C4  0E00               	movlw	0
  3132   0016C6  6E1D               	movwf	I2C_Open@returnValue^0,c
  3133   0016C8                     l3778:
  3134                           
  3135                           ;mcc_generated_files/i2c_master.c: 208:     return returnValue;
  3136   0016C8  501D               	movf	I2C_Open@returnValue^0,w,c
  3137   0016CA  0012               	return		;funcret
  3138   0016CC                     __end_of_I2C_Open:
  3139                           	callstack 0
  3140                           
  3141 ;; *************** function _I2C_SetInterruptHandler *****************
  3142 ;; Defined at:
  3143 ;;		line 299 in file "mcc_generated_files/i2c_master.c"
  3144 ;; Parameters:    Size  Location     Type
  3145 ;;  InterruptHan    2   25[COMRAM] PTR FTN()void 
  3146 ;;		 -> I2C_MasterIsr(1), 
  3147 ;; Auto vars:     Size  Location     Type
  3148 ;;		None
  3149 ;; Return value:  Size  Location     Type
  3150 ;;                  1    wreg      void 
  3151 ;; Registers used:
  3152 ;;		wreg, status,2, status,0
  3153 ;; Tracked objects:
  3154 ;;		On entry : 0/0
  3155 ;;		On exit  : 0/0
  3156 ;;		Unchanged: 0/0
  3157 ;; Data sizes:     COMRAM   BANK0   BANK1   BANK2   BANK3   BANK4   BANK5   BANK6   BANK7   BANK8   BANK9  BANK10  BANK1
      +1  BANK12  BANK13  BANK14  BANK15
  3158 ;;      Params:         2       0       0       0       0       0       0       0       0       0       0       0       
      +0       0       0       0       0
  3159 ;;      Locals:         0       0       0       0       0       0       0       0       0       0       0       0       
      +0       0       0       0       0
  3160 ;;      Temps:          0       0       0       0       0       0       0       0       0       0       0       0       
      +0       0       0       0       0
  3161 ;;      Totals:         2       0       0       0       0       0       0       0       0       0       0       0       
      +0       0       0       0       0
  3162 ;;Total ram usage:        2 bytes
  3163 ;; Hardware stack levels used: 1
  3164 ;; Hardware stack levels required when called: 7
  3165 ;; This function calls:
  3166 ;;		Nothing
  3167 ;; This function is called by:
  3168 ;;		_I2C_Open
  3169 ;; This function uses a non-reentrant model
  3170 ;;
  3171                           
  3172                           	psect	text23
  3173   001FA0                     __ptext23:
  3174                           	callstack 0
  3175   001FA0                     _I2C_SetInterruptHandler:
  3176                           	callstack 20
  3177   001FA0                     
  3178                           ;mcc_generated_files/i2c_master.c: 299: void I2C_SetInterruptHandler(void (* InterruptHa
      +                          ndler)(void));mcc_generated_files/i2c_master.c: 300: {;mcc_generated_files/i2c_master.c:
      +                           301:     MSSP_InterruptHandler = InterruptHandler;
  3179   001FA0  C01A  F036         	movff	I2C_SetInterruptHandler@InterruptHandler,_MSSP_InterruptHandler
  3180   001FA4  C01B  F037         	movff	I2C_SetInterruptHandler@InterruptHandler+1,_MSSP_InterruptHandler+1
  3181   001FA8  0012               	return		;funcret
  3182   001FAA                     __end_of_I2C_SetInterruptHandler:
  3183                           	callstack 0
  3184                           
  3185 ;; *************** function _I2C_MasterOpen *****************
  3186 ;; Defined at:
  3187 ;;		line 544 in file "mcc_generated_files/i2c_master.c"
  3188 ;; Parameters:    Size  Location     Type
  3189 ;;		None
  3190 ;; Auto vars:     Size  Location     Type
  3191 ;;		None
  3192 ;; Return value:  Size  Location     Type
  3193 ;;                  1    wreg      _Bool 
  3194 ;; Registers used:
  3195 ;;		wreg, status,2
  3196 ;; Tracked objects:
  3197 ;;		On entry : 0/0
  3198 ;;		On exit  : 0/0
  3199 ;;		Unchanged: 0/0
  3200 ;; Data sizes:     COMRAM   BANK0   BANK1   BANK2   BANK3   BANK4   BANK5   BANK6   BANK7   BANK8   BANK9  BANK10  BANK1
      +1  BANK12  BANK13  BANK14  BANK15
  3201 ;;      Params:         0       0       0       0       0       0       0       0       0       0       0       0       
      +0       0       0       0       0
  3202 ;;      Locals:         0       0       0       0       0       0       0       0       0       0       0       0       
      +0       0       0       0       0
  3203 ;;      Temps:          0       0       0       0       0       0       0       0       0       0       0       0       
      +0       0       0       0       0
  3204 ;;      Totals:         0       0       0       0       0       0       0       0       0       0       0       0       
      +0       0       0       0       0
  3205 ;;Total ram usage:        0 bytes
  3206 ;; Hardware stack levels used: 1
  3207 ;; Hardware stack levels required when called: 7
  3208 ;; This function calls:
  3209 ;;		Nothing
  3210 ;; This function is called by:
  3211 ;;		_I2C_Open
  3212 ;; This function uses a non-reentrant model
  3213 ;;
  3214                           
  3215                           	psect	text24
  3216   001E68                     __ptext24:
  3217                           	callstack 0
  3218   001E68                     _I2C_MasterOpen:
  3219                           	callstack 20
  3220   001E68                     
  3221                           ;mcc_generated_files/i2c_master.c: 546:     if(!SSPCON1bits.SSPEN)
  3222   001E68  BAC6               	btfsc	198,5,c	;volatile
  3223   001E6A  EF39  F00F         	goto	u1581
  3224   001E6E  EF3B  F00F         	goto	u1580
  3225   001E72                     u1581:
  3226   001E72  EF44  F00F         	goto	l641
  3227   001E76                     u1580:
  3228   001E76                     
  3229                           ;mcc_generated_files/i2c_master.c: 547:     {;mcc_generated_files/i2c_master.c: 548:    
      +                               SSPSTAT = 0x80;
  3230   001E76  0E80               	movlw	128
  3231   001E78  6EC7               	movwf	199,c	;volatile
  3232                           
  3233                           ;mcc_generated_files/i2c_master.c: 549:         SSPCON1 = 0x08;
  3234   001E7A  0E08               	movlw	8
  3235   001E7C  6EC6               	movwf	198,c	;volatile
  3236                           
  3237                           ;mcc_generated_files/i2c_master.c: 550:         SSPCON2 = 0x00;
  3238   001E7E  0E00               	movlw	0
  3239   001E80  6EC5               	movwf	197,c	;volatile
  3240                           
  3241                           ;mcc_generated_files/i2c_master.c: 551:         SSPADD = 0x27;
  3242   001E82  0E27               	movlw	39
  3243   001E84  6EC8               	movwf	200,c	;volatile
  3244   001E86                     
  3245                           ;mcc_generated_files/i2c_master.c: 552:         SSPCON1bits.SSPEN = 1;
  3246   001E86  8AC6               	bsf	198,5,c	;volatile
  3247   001E88                     l641:
  3248   001E88  0012               	return		;funcret
  3249   001E8A                     __end_of_I2C_MasterOpen:
  3250                           	callstack 0
  3251                           
  3252 ;; *************** function _I2C_MasterEnableIrq *****************
  3253 ;; Defined at:
  3254 ;;		line 627 in file "mcc_generated_files/i2c_master.c"
  3255 ;; Parameters:    Size  Location     Type
  3256 ;;		None
  3257 ;; Auto vars:     Size  Location     Type
  3258 ;;		None
  3259 ;; Return value:  Size  Location     Type
  3260 ;;                  1    wreg      void 
  3261 ;; Registers used:
  3262 ;;		None
  3263 ;; Tracked objects:
  3264 ;;		On entry : 0/0
  3265 ;;		On exit  : 0/0
  3266 ;;		Unchanged: 0/0
  3267 ;; Data sizes:     COMRAM   BANK0   BANK1   BANK2   BANK3   BANK4   BANK5   BANK6   BANK7   BANK8   BANK9  BANK10  BANK1
      +1  BANK12  BANK13  BANK14  BANK15
  3268 ;;      Params:         0       0       0       0       0       0       0       0       0       0       0       0       
      +0       0       0       0       0
  3269 ;;      Locals:         0       0       0       0       0       0       0       0       0       0       0       0       
      +0       0       0       0       0
  3270 ;;      Temps:          0       0       0       0       0       0       0       0       0       0       0       0       
      +0       0       0       0       0
  3271 ;;      Totals:         0       0       0       0       0       0       0       0       0       0       0       0       
      +0       0       0       0       0
  3272 ;;Total ram usage:        0 bytes
  3273 ;; Hardware stack levels used: 1
  3274 ;; Hardware stack levels required when called: 7
  3275 ;; This function calls:
  3276 ;;		Nothing
  3277 ;; This function is called by:
  3278 ;;		_I2C_Open
  3279 ;;		_I2C_SetTimeOut
  3280 ;; This function uses a non-reentrant model
  3281 ;;
  3282                           
  3283                           	psect	text25
  3284   00202C                     __ptext25:
  3285                           	callstack 0
  3286   00202C                     _I2C_MasterEnableIrq:
  3287                           	callstack 20
  3288   00202C                     
  3289                           ;mcc_generated_files/i2c_master.c: 629:     PIE1bits.SSPIE = 1;
  3290   00202C  869D               	bsf	157,3,c	;volatile
  3291   00202E  0012               	return		;funcret
  3292   002030                     __end_of_I2C_MasterEnableIrq:
  3293                           	callstack 0
  3294                           
  3295 ;; *************** function _I2C_MasterWrite *****************
  3296 ;; Defined at:
  3297 ;;		line 252 in file "mcc_generated_files/i2c_master.c"
  3298 ;; Parameters:    Size  Location     Type
  3299 ;;		None
  3300 ;; Auto vars:     Size  Location     Type
  3301 ;;		None
  3302 ;; Return value:  Size  Location     Type
  3303 ;;                  1    wreg      enum E358
  3304 ;; Registers used:
  3305 ;;		wreg, status,2, cstack
  3306 ;; Tracked objects:
  3307 ;;		On entry : 0/0
  3308 ;;		On exit  : 0/0
  3309 ;;		Unchanged: 0/0
  3310 ;; Data sizes:     COMRAM   BANK0   BANK1   BANK2   BANK3   BANK4   BANK5   BANK6   BANK7   BANK8   BANK9  BANK10  BANK1
      +1  BANK12  BANK13  BANK14  BANK15
  3311 ;;      Params:         0       0       0       0       0       0       0       0       0       0       0       0       
      +0       0       0       0       0
  3312 ;;      Locals:         0       0       0       0       0       0       0       0       0       0       0       0       
      +0       0       0       0       0
  3313 ;;      Temps:          0       0       0       0       0       0       0       0       0       0       0       0       
      +0       0       0       0       0
  3314 ;;      Totals:         0       0       0       0       0       0       0       0       0       0       0       0       
      +0       0       0       0       0
  3315 ;;Total ram usage:        0 bytes
  3316 ;; Hardware stack levels used: 1
  3317 ;; Hardware stack levels required when called: 9
  3318 ;; This function calls:
  3319 ;;		_I2C_MasterOperation
  3320 ;; This function is called by:
  3321 ;;		_I2C_Read1ByteRegister
  3322 ;;		_I2C_Write1ByteRegister
  3323 ;;		_I2C_Read2ByteRegister
  3324 ;;		_I2C_Write2ByteRegister
  3325 ;;		_I2C_WriteNBytes
  3326 ;;		_I2C_ReadDataBlock
  3327 ;; This function uses a non-reentrant model
  3328 ;;
  3329                           
  3330                           	psect	text26
  3331   001FD2                     __ptext26:
  3332                           	callstack 0
  3333   001FD2                     _I2C_MasterWrite:
  3334                           	callstack 19
  3335   001FD2                     
  3336                           ;mcc_generated_files/i2c_master.c: 254:     return I2C_MasterOperation(0);;	Return value
      +                           of _I2C_MasterWrite is never used
  3337   001FD2  0E00               	movlw	0
  3338   001FD4  ECF7  F00D         	call	_I2C_MasterOperation
  3339   001FD8  0012               	return		;funcret
  3340   001FDA                     __end_of_I2C_MasterWrite:
  3341                           	callstack 0
  3342                           
  3343 ;; *************** function _I2C_MasterOperation *****************
  3344 ;; Defined at:
  3345 ;;		line 226 in file "mcc_generated_files/i2c_master.c"
  3346 ;; Parameters:    Size  Location     Type
  3347 ;;  read            1    wreg     _Bool 
  3348 ;; Auto vars:     Size  Location     Type
  3349 ;;  read            1   25[COMRAM] _Bool 
  3350 ;;  returnValue     1   26[COMRAM] enum E358
  3351 ;; Return value:  Size  Location     Type
  3352 ;;                  1    wreg      enum E358
  3353 ;; Registers used:
  3354 ;;		wreg, status,2, cstack
  3355 ;; Tracked objects:
  3356 ;;		On entry : 0/0
  3357 ;;		On exit  : 0/0
  3358 ;;		Unchanged: 0/0
  3359 ;; Data sizes:     COMRAM   BANK0   BANK1   BANK2   BANK3   BANK4   BANK5   BANK6   BANK7   BANK8   BANK9  BANK10  BANK1
      +1  BANK12  BANK13  BANK14  BANK15
  3360 ;;      Params:         0       0       0       0       0       0       0       0       0       0       0       0       
      +0       0       0       0       0
  3361 ;;      Locals:         2       0       0       0       0       0       0       0       0       0       0       0       
      +0       0       0       0       0
  3362 ;;      Temps:          0       0       0       0       0       0       0       0       0       0       0       0       
      +0       0       0       0       0
  3363 ;;      Totals:         2       0       0       0       0       0       0       0       0       0       0       0       
      +0       0       0       0       0
  3364 ;;Total ram usage:        2 bytes
  3365 ;; Hardware stack levels used: 1
  3366 ;; Hardware stack levels required when called: 8
  3367 ;; This function calls:
  3368 ;;		_I2C_MasterStart
  3369 ;; This function is called by:
  3370 ;;		_I2C_MasterWrite
  3371 ;;		_I2C_MasterRead
  3372 ;; This function uses a non-reentrant model
  3373 ;;
  3374                           
  3375                           	psect	text27
  3376   001BEE                     __ptext27:
  3377                           	callstack 0
  3378   001BEE                     _I2C_MasterOperation:
  3379                           	callstack 19
  3380                           
  3381                           ;incstack = 0
  3382                           ;I2C_MasterOperation@read stored from wreg
  3383   001BEE  6E1A               	movwf	I2C_MasterOperation@read^0,c
  3384   001BF0                     
  3385                           ;mcc_generated_files/i2c_master.c: 226: i2c_error_t I2C_MasterOperation(_Bool read);mcc_
      +                          generated_files/i2c_master.c: 227: {;mcc_generated_files/i2c_master.c: 228:     i2c_erro
      +                          r_t returnValue = I2C_BUSY;
  3386   001BF0  0E01               	movlw	1
  3387   001BF2  6E1B               	movwf	I2C_MasterOperation@returnValue^0,c
  3388   001BF4                     
  3389                           ;mcc_generated_files/i2c_master.c: 229:     if(!I2C_Status.busy)
  3390   001BF4  0100               	movlb	0	; () banked
  3391   001BF6  B3D9               	btfsc	(_I2C_Status+35)& (0+255),1,b
  3392   001BF8  EF00  F00E         	goto	u1591
  3393   001BFC  EF02  F00E         	goto	u1590
  3394   001C00                     u1591:
  3395   001C00  EF15  F00E         	goto	l3684
  3396   001C04                     u1590:
  3397   001C04                     
  3398                           ; BSR set to: 0
  3399                           ;mcc_generated_files/i2c_master.c: 230:     {;mcc_generated_files/i2c_master.c: 231:    
      +                               I2C_Status.busy = 1;
  3400   001C04  83D9               	bsf	(_I2C_Status+35)& (0+255),1,b
  3401   001C06                     
  3402                           ; BSR set to: 0
  3403                           ;mcc_generated_files/i2c_master.c: 232:         returnValue = I2C_NOERR;
  3404   001C06  0E00               	movlw	0
  3405   001C08  6E1B               	movwf	I2C_MasterOperation@returnValue^0,c
  3406   001C0A                     
  3407                           ; BSR set to: 0
  3408                           ;mcc_generated_files/i2c_master.c: 234:         if(read)
  3409   001C0A  501A               	movf	I2C_MasterOperation@read^0,w,c
  3410   001C0C  B4D8               	btfsc	status,2,c
  3411   001C0E  EF0B  F00E         	goto	u1601
  3412   001C12  EF0D  F00E         	goto	u1600
  3413   001C16                     u1601:
  3414   001C16  EF11  F00E         	goto	l3680
  3415   001C1A                     u1600:
  3416   001C1A                     
  3417                           ; BSR set to: 0
  3418                           ;mcc_generated_files/i2c_master.c: 235:         {;mcc_generated_files/i2c_master.c: 236:
      +                                       I2C_Status.state = I2C_SEND_ADR_READ;
  3419   001C1A  0E01               	movlw	1
  3420   001C1C  6FD7               	movwf	(_I2C_Status+33)& (0+255),b
  3421                           
  3422                           ;mcc_generated_files/i2c_master.c: 237:         }
  3423   001C1E  EF13  F00E         	goto	l3682
  3424   001C22                     l3680:
  3425                           
  3426                           ; BSR set to: 0
  3427                           ;mcc_generated_files/i2c_master.c: 239:         {;mcc_generated_files/i2c_master.c: 240:
      +                                       I2C_Status.state = I2C_SEND_ADR_WRITE;
  3428   001C22  0E02               	movlw	2
  3429   001C24  6FD7               	movwf	(_I2C_Status+33)& (0+255),b
  3430   001C26                     l3682:
  3431                           
  3432                           ; BSR set to: 0
  3433                           ;mcc_generated_files/i2c_master.c: 242:         I2C_MasterStart();
  3434   001C26  EC18  F010         	call	_I2C_MasterStart	;wreg free
  3435   001C2A                     l3684:
  3436                           
  3437                           ;mcc_generated_files/i2c_master.c: 244:     return returnValue;
  3438   001C2A  501B               	movf	I2C_MasterOperation@returnValue^0,w,c
  3439   001C2C  0012               	return		;funcret
  3440   001C2E                     __end_of_I2C_MasterOperation:
  3441                           	callstack 0
  3442                           
  3443 ;; *************** function _I2C_MasterStart *****************
  3444 ;; Defined at:
  3445 ;;		line 589 in file "mcc_generated_files/i2c_master.c"
  3446 ;; Parameters:    Size  Location     Type
  3447 ;;		None
  3448 ;; Auto vars:     Size  Location     Type
  3449 ;;		None
  3450 ;; Return value:  Size  Location     Type
  3451 ;;                  1    wreg      void 
  3452 ;; Registers used:
  3453 ;;		None
  3454 ;; Tracked objects:
  3455 ;;		On entry : 0/0
  3456 ;;		On exit  : 0/0
  3457 ;;		Unchanged: 0/0
  3458 ;; Data sizes:     COMRAM   BANK0   BANK1   BANK2   BANK3   BANK4   BANK5   BANK6   BANK7   BANK8   BANK9  BANK10  BANK1
      +1  BANK12  BANK13  BANK14  BANK15
  3459 ;;      Params:         0       0       0       0       0       0       0       0       0       0       0       0       
      +0       0       0       0       0
  3460 ;;      Locals:         0       0       0       0       0       0       0       0       0       0       0       0       
      +0       0       0       0       0
  3461 ;;      Temps:          0       0       0       0       0       0       0       0       0       0       0       0       
      +0       0       0       0       0
  3462 ;;      Totals:         0       0       0       0       0       0       0       0       0       0       0       0       
      +0       0       0       0       0
  3463 ;;Total ram usage:        0 bytes
  3464 ;; Hardware stack levels used: 1
  3465 ;; Hardware stack levels required when called: 7
  3466 ;; This function calls:
  3467 ;;		Nothing
  3468 ;; This function is called by:
  3469 ;;		_I2C_MasterOperation
  3470 ;; This function uses a non-reentrant model
  3471 ;;
  3472                           
  3473                           	psect	text28
  3474   002030                     __ptext28:
  3475                           	callstack 0
  3476   002030                     _I2C_MasterStart:
  3477                           	callstack 19
  3478   002030                     
  3479                           ;mcc_generated_files/i2c_master.c: 591:     SSPCON2bits.SEN = 1;
  3480   002030  80C5               	bsf	197,0,c	;volatile
  3481   002032  0012               	return		;funcret
  3482   002034                     __end_of_I2C_MasterStart:
  3483                           	callstack 0
  3484                           
  3485 ;; *************** function _I2C_Close *****************
  3486 ;; Defined at:
  3487 ;;		line 211 in file "mcc_generated_files/i2c_master.c"
  3488 ;; Parameters:    Size  Location     Type
  3489 ;;		None
  3490 ;; Auto vars:     Size  Location     Type
  3491 ;;  returnValue     1   25[COMRAM] enum E358
  3492 ;; Return value:  Size  Location     Type
  3493 ;;                  1    wreg      enum E358
  3494 ;; Registers used:
  3495 ;;		wreg, status,2, cstack
  3496 ;; Tracked objects:
  3497 ;;		On entry : 0/0
  3498 ;;		On exit  : 0/0
  3499 ;;		Unchanged: 0/0
  3500 ;; Data sizes:     COMRAM   BANK0   BANK1   BANK2   BANK3   BANK4   BANK5   BANK6   BANK7   BANK8   BANK9  BANK10  BANK1
      +1  BANK12  BANK13  BANK14  BANK15
  3501 ;;      Params:         0       0       0       0       0       0       0       0       0       0       0       0       
      +0       0       0       0       0
  3502 ;;      Locals:         1       0       0       0       0       0       0       0       0       0       0       0       
      +0       0       0       0       0
  3503 ;;      Temps:          0       0       0       0       0       0       0       0       0       0       0       0       
      +0       0       0       0       0
  3504 ;;      Totals:         1       0       0       0       0       0       0       0       0       0       0       0       
      +0       0       0       0       0
  3505 ;;Total ram usage:        1 bytes
  3506 ;; Hardware stack levels used: 1
  3507 ;; Hardware stack levels required when called: 8
  3508 ;; This function calls:
  3509 ;;		_I2C_MasterClearIrq
  3510 ;;		_I2C_MasterClose
  3511 ;;		_I2C_MasterDisableIrq
  3512 ;; This function is called by:
  3513 ;;		_I2C_Read1ByteRegister
  3514 ;;		_I2C_Write1ByteRegister
  3515 ;;		_I2C_Read2ByteRegister
  3516 ;;		_I2C_Write2ByteRegister
  3517 ;;		_I2C_WriteNBytes
  3518 ;;		_I2C_ReadNBytes
  3519 ;;		_I2C_ReadDataBlock
  3520 ;; This function uses a non-reentrant model
  3521 ;;
  3522                           
  3523                           	psect	text29
  3524   001D44                     __ptext29:
  3525                           	callstack 0
  3526   001D44                     _I2C_Close:
  3527                           	callstack 20
  3528   001D44                     
  3529                           ;mcc_generated_files/i2c_master.c: 213:     i2c_error_t returnValue = I2C_BUSY;
  3530   001D44  0E01               	movlw	1
  3531   001D46  6E1A               	movwf	I2C_Close@returnValue^0,c
  3532   001D48                     
  3533                           ;mcc_generated_files/i2c_master.c: 214:     if(!I2C_Status.busy)
  3534   001D48  0100               	movlb	0	; () banked
  3535   001D4A  B3D9               	btfsc	(_I2C_Status+35)& (0+255),1,b
  3536   001D4C  EFAA  F00E         	goto	u1661
  3537   001D50  EFAC  F00E         	goto	u1660
  3538   001D54                     u1661:
  3539   001D54  EFB6  F00E         	goto	l3808
  3540   001D58                     u1660:
  3541   001D58                     
  3542                           ; BSR set to: 0
  3543                           ;mcc_generated_files/i2c_master.c: 215:     {;mcc_generated_files/i2c_master.c: 216:    
      +                               I2C_Status.inUse = 0;
  3544   001D58  95D9               	bcf	(_I2C_Status+35)& (0+255),2,b
  3545                           
  3546                           ;mcc_generated_files/i2c_master.c: 217:         I2C_Status.address = 0xff;
  3547   001D5A  69D2               	setf	(_I2C_Status+28)& (0+255),b
  3548   001D5C                     
  3549                           ; BSR set to: 0
  3550                           ;mcc_generated_files/i2c_master.c: 218:         I2C_MasterClearIrq();
  3551   001D5C  EC1E  F010         	call	_I2C_MasterClearIrq	;wreg free
  3552                           
  3553                           ;mcc_generated_files/i2c_master.c: 219:         I2C_MasterDisableIrq();
  3554   001D60  EC1A  F010         	call	_I2C_MasterDisableIrq	;wreg free
  3555                           
  3556                           ;mcc_generated_files/i2c_master.c: 220:         I2C_MasterClose();
  3557   001D64  EC1C  F010         	call	_I2C_MasterClose	;wreg free
  3558   001D68                     
  3559                           ;mcc_generated_files/i2c_master.c: 221:         returnValue = I2C_Status.error;
  3560   001D68  C0D8  F01A         	movff	_I2C_Status+34,I2C_Close@returnValue
  3561   001D6C                     l3808:
  3562                           
  3563                           ;mcc_generated_files/i2c_master.c: 223:     return returnValue;
  3564   001D6C  501A               	movf	I2C_Close@returnValue^0,w,c
  3565   001D6E  0012               	return		;funcret
  3566   001D70                     __end_of_I2C_Close:
  3567                           	callstack 0
  3568                           
  3569 ;; *************** function _I2C_MasterDisableIrq *****************
  3570 ;; Defined at:
  3571 ;;		line 637 in file "mcc_generated_files/i2c_master.c"
  3572 ;; Parameters:    Size  Location     Type
  3573 ;;		None
  3574 ;; Auto vars:     Size  Location     Type
  3575 ;;		None
  3576 ;; Return value:  Size  Location     Type
  3577 ;;                  1    wreg      void 
  3578 ;; Registers used:
  3579 ;;		None
  3580 ;; Tracked objects:
  3581 ;;		On entry : 0/0
  3582 ;;		On exit  : 0/0
  3583 ;;		Unchanged: 0/0
  3584 ;; Data sizes:     COMRAM   BANK0   BANK1   BANK2   BANK3   BANK4   BANK5   BANK6   BANK7   BANK8   BANK9  BANK10  BANK1
      +1  BANK12  BANK13  BANK14  BANK15
  3585 ;;      Params:         0       0       0       0       0       0       0       0       0       0       0       0       
      +0       0       0       0       0
  3586 ;;      Locals:         0       0       0       0       0       0       0       0       0       0       0       0       
      +0       0       0       0       0
  3587 ;;      Temps:          0       0       0       0       0       0       0       0       0       0       0       0       
      +0       0       0       0       0
  3588 ;;      Totals:         0       0       0       0       0       0       0       0       0       0       0       0       
      +0       0       0       0       0
  3589 ;;Total ram usage:        0 bytes
  3590 ;; Hardware stack levels used: 1
  3591 ;; Hardware stack levels required when called: 7
  3592 ;; This function calls:
  3593 ;;		Nothing
  3594 ;; This function is called by:
  3595 ;;		_I2C_Close
  3596 ;;		_I2C_SetTimeOut
  3597 ;; This function uses a non-reentrant model
  3598 ;;
  3599                           
  3600                           	psect	text30
  3601   002034                     __ptext30:
  3602                           	callstack 0
  3603   002034                     _I2C_MasterDisableIrq:
  3604                           	callstack 20
  3605   002034                     
  3606                           ;mcc_generated_files/i2c_master.c: 639:     PIE1bits.SSPIE = 0;
  3607   002034  969D               	bcf	157,3,c	;volatile
  3608   002036  0012               	return		;funcret
  3609   002038                     __end_of_I2C_MasterDisableIrq:
  3610                           	callstack 0
  3611                           
  3612 ;; *************** function _I2C_MasterClose *****************
  3613 ;; Defined at:
  3614 ;;		line 558 in file "mcc_generated_files/i2c_master.c"
  3615 ;; Parameters:    Size  Location     Type
  3616 ;;		None
  3617 ;; Auto vars:     Size  Location     Type
  3618 ;;		None
  3619 ;; Return value:  Size  Location     Type
  3620 ;;                  1    wreg      void 
  3621 ;; Registers used:
  3622 ;;		None
  3623 ;; Tracked objects:
  3624 ;;		On entry : 0/0
  3625 ;;		On exit  : 0/0
  3626 ;;		Unchanged: 0/0
  3627 ;; Data sizes:     COMRAM   BANK0   BANK1   BANK2   BANK3   BANK4   BANK5   BANK6   BANK7   BANK8   BANK9  BANK10  BANK1
      +1  BANK12  BANK13  BANK14  BANK15
  3628 ;;      Params:         0       0       0       0       0       0       0       0       0       0       0       0       
      +0       0       0       0       0
  3629 ;;      Locals:         0       0       0       0       0       0       0       0       0       0       0       0       
      +0       0       0       0       0
  3630 ;;      Temps:          0       0       0       0       0       0       0       0       0       0       0       0       
      +0       0       0       0       0
  3631 ;;      Totals:         0       0       0       0       0       0       0       0       0       0       0       0       
      +0       0       0       0       0
  3632 ;;Total ram usage:        0 bytes
  3633 ;; Hardware stack levels used: 1
  3634 ;; Hardware stack levels required when called: 7
  3635 ;; This function calls:
  3636 ;;		Nothing
  3637 ;; This function is called by:
  3638 ;;		_I2C_Close
  3639 ;; This function uses a non-reentrant model
  3640 ;;
  3641                           
  3642                           	psect	text31
  3643   002038                     __ptext31:
  3644                           	callstack 0
  3645   002038                     _I2C_MasterClose:
  3646                           	callstack 20
  3647   002038                     
  3648                           ;mcc_generated_files/i2c_master.c: 561:     SSPCON1bits.SSPEN = 0;
  3649   002038  9AC6               	bcf	198,5,c	;volatile
  3650   00203A  0012               	return		;funcret
  3651   00203C                     __end_of_I2C_MasterClose:
  3652                           	callstack 0
  3653                           
  3654 ;; *************** function _I2C_MasterClearIrq *****************
  3655 ;; Defined at:
  3656 ;;		line 642 in file "mcc_generated_files/i2c_master.c"
  3657 ;; Parameters:    Size  Location     Type
  3658 ;;		None
  3659 ;; Auto vars:     Size  Location     Type
  3660 ;;		None
  3661 ;; Return value:  Size  Location     Type
  3662 ;;                  1    wreg      void 
  3663 ;; Registers used:
  3664 ;;		None
  3665 ;; Tracked objects:
  3666 ;;		On entry : 0/0
  3667 ;;		On exit  : 0/0
  3668 ;;		Unchanged: 0/0
  3669 ;; Data sizes:     COMRAM   BANK0   BANK1   BANK2   BANK3   BANK4   BANK5   BANK6   BANK7   BANK8   BANK9  BANK10  BANK1
      +1  BANK12  BANK13  BANK14  BANK15
  3670 ;;      Params:         0       0       0       0       0       0       0       0       0       0       0       0       
      +0       0       0       0       0
  3671 ;;      Locals:         0       0       0       0       0       0       0       0       0       0       0       0       
      +0       0       0       0       0
  3672 ;;      Temps:          0       0       0       0       0       0       0       0       0       0       0       0       
      +0       0       0       0       0
  3673 ;;      Totals:         0       0       0       0       0       0       0       0       0       0       0       0       
      +0       0       0       0       0
  3674 ;;Total ram usage:        0 bytes
  3675 ;; Hardware stack levels used: 1
  3676 ;; Hardware stack levels required when called: 7
  3677 ;; This function calls:
  3678 ;;		Nothing
  3679 ;; This function is called by:
  3680 ;;		_I2C_Open
  3681 ;;		_I2C_Close
  3682 ;; This function uses a non-reentrant model
  3683 ;;
  3684                           
  3685                           	psect	text32
  3686   00203C                     __ptext32:
  3687                           	callstack 0
  3688   00203C                     _I2C_MasterClearIrq:
  3689                           	callstack 20
  3690   00203C                     
  3691                           ;mcc_generated_files/i2c_master.c: 644:     PIR1bits.SSPIF = 0;
  3692   00203C  969E               	bcf	158,3,c	;volatile
  3693   00203E  0012               	return		;funcret
  3694   002040                     __end_of_I2C_MasterClearIrq:
  3695                           	callstack 0
  3696                           
  3697 ;; *************** function _SYSTEM_Initialize *****************
  3698 ;; Defined at:
  3699 ;;		line 50 in file "mcc_generated_files/mcc.c"
  3700 ;; Parameters:    Size  Location     Type
  3701 ;;		None
  3702 ;; Auto vars:     Size  Location     Type
  3703 ;;		None
  3704 ;; Return value:  Size  Location     Type
  3705 ;;                  1    wreg      void 
  3706 ;; Registers used:
  3707 ;;		wreg, status,2, status,0, cstack
  3708 ;; Tracked objects:
  3709 ;;		On entry : 0/0
  3710 ;;		On exit  : 0/0
  3711 ;;		Unchanged: 0/0
  3712 ;; Data sizes:     COMRAM   BANK0   BANK1   BANK2   BANK3   BANK4   BANK5   BANK6   BANK7   BANK8   BANK9  BANK10  BANK1
      +1  BANK12  BANK13  BANK14  BANK15
  3713 ;;      Params:         0       0       0       0       0       0       0       0       0       0       0       0       
      +0       0       0       0       0
  3714 ;;      Locals:         0       0       0       0       0       0       0       0       0       0       0       0       
      +0       0       0       0       0
  3715 ;;      Temps:          0       0       0       0       0       0       0       0       0       0       0       0       
      +0       0       0       0       0
  3716 ;;      Totals:         0       0       0       0       0       0       0       0       0       0       0       0       
      +0       0       0       0       0
  3717 ;;Total ram usage:        0 bytes
  3718 ;; Hardware stack levels used: 1
  3719 ;; Hardware stack levels required when called: 9
  3720 ;; This function calls:
  3721 ;;		_EUSART_Initialize
  3722 ;;		_I2C_Initialize
  3723 ;;		_INTERRUPT_Initialize
  3724 ;;		_OSCILLATOR_Initialize
  3725 ;;		_PIN_MANAGER_Initialize
  3726 ;; This function is called by:
  3727 ;;		_main
  3728 ;; This function uses a non-reentrant model
  3729 ;;
  3730                           
  3731                           	psect	text33
  3732   001F02                     __ptext33:
  3733                           	callstack 0
  3734   001F02                     _SYSTEM_Initialize:
  3735                           	callstack 21
  3736   001F02                     
  3737                           ;mcc_generated_files/mcc.c: 53:     INTERRUPT_Initialize();
  3738   001F02  EC20  F010         	call	_INTERRUPT_Initialize	;wreg free
  3739   001F06                     
  3740                           ;mcc_generated_files/mcc.c: 54:     I2C_Initialize();
  3741   001F06  EC8C  F00F         	call	_I2C_Initialize	;wreg free
  3742   001F0A                     
  3743                           ;mcc_generated_files/mcc.c: 55:     PIN_MANAGER_Initialize();
  3744   001F0A  EC73  F00E         	call	_PIN_MANAGER_Initialize	;wreg free
  3745   001F0E                     
  3746                           ;mcc_generated_files/mcc.c: 56:     OSCILLATOR_Initialize();
  3747   001F0E  ECD5  F00F         	call	_OSCILLATOR_Initialize	;wreg free
  3748   001F12                     
  3749                           ;mcc_generated_files/mcc.c: 57:     EUSART_Initialize();
  3750   001F12  EC37  F00E         	call	_EUSART_Initialize	;wreg free
  3751   001F16  0012               	return		;funcret
  3752   001F18                     __end_of_SYSTEM_Initialize:
  3753                           	callstack 0
  3754                           
  3755 ;; *************** function _PIN_MANAGER_Initialize *****************
  3756 ;; Defined at:
  3757 ;;		line 55 in file "mcc_generated_files/pin_manager.c"
  3758 ;; Parameters:    Size  Location     Type
  3759 ;;		None
  3760 ;; Auto vars:     Size  Location     Type
  3761 ;;		None
  3762 ;; Return value:  Size  Location     Type
  3763 ;;                  1    wreg      void 
  3764 ;; Registers used:
  3765 ;;		wreg, status,2
  3766 ;; Tracked objects:
  3767 ;;		On entry : 0/0
  3768 ;;		On exit  : 0/0
  3769 ;;		Unchanged: 0/0
  3770 ;; Data sizes:     COMRAM   BANK0   BANK1   BANK2   BANK3   BANK4   BANK5   BANK6   BANK7   BANK8   BANK9  BANK10  BANK1
      +1  BANK12  BANK13  BANK14  BANK15
  3771 ;;      Params:         0       0       0       0       0       0       0       0       0       0       0       0       
      +0       0       0       0       0
  3772 ;;      Locals:         0       0       0       0       0       0       0       0       0       0       0       0       
      +0       0       0       0       0
  3773 ;;      Temps:          0       0       0       0       0       0       0       0       0       0       0       0       
      +0       0       0       0       0
  3774 ;;      Totals:         0       0       0       0       0       0       0       0       0       0       0       0       
      +0       0       0       0       0
  3775 ;;Total ram usage:        0 bytes
  3776 ;; Hardware stack levels used: 1
  3777 ;; Hardware stack levels required when called: 7
  3778 ;; This function calls:
  3779 ;;		Nothing
  3780 ;; This function is called by:
  3781 ;;		_SYSTEM_Initialize
  3782 ;; This function uses a non-reentrant model
  3783 ;;
  3784                           
  3785                           	psect	text34
  3786   001CE6                     __ptext34:
  3787                           	callstack 0
  3788   001CE6                     _PIN_MANAGER_Initialize:
  3789                           	callstack 22
  3790   001CE6                     
  3791                           ;mcc_generated_files/pin_manager.c: 60:     LATE = 0x00;
  3792   001CE6  0E00               	movlw	0
  3793   001CE8  6E8D               	movwf	141,c	;volatile
  3794                           
  3795                           ;mcc_generated_files/pin_manager.c: 61:     LATD = 0x00;
  3796   001CEA  0E00               	movlw	0
  3797   001CEC  6E8C               	movwf	140,c	;volatile
  3798                           
  3799                           ;mcc_generated_files/pin_manager.c: 62:     LATA = 0x00;
  3800   001CEE  0E00               	movlw	0
  3801   001CF0  6E89               	movwf	137,c	;volatile
  3802                           
  3803                           ;mcc_generated_files/pin_manager.c: 63:     LATB = 0x00;
  3804   001CF2  0E00               	movlw	0
  3805   001CF4  6E8A               	movwf	138,c	;volatile
  3806                           
  3807                           ;mcc_generated_files/pin_manager.c: 64:     LATC = 0x00;
  3808   001CF6  0E00               	movlw	0
  3809   001CF8  6E8B               	movwf	139,c	;volatile
  3810                           
  3811                           ;mcc_generated_files/pin_manager.c: 69:     TRISE = 0x07;
  3812   001CFA  0E07               	movlw	7
  3813   001CFC  6E96               	movwf	150,c	;volatile
  3814   001CFE                     
  3815                           ;mcc_generated_files/pin_manager.c: 70:     TRISA = 0xFF;
  3816   001CFE  6892               	setf	146,c	;volatile
  3817   001D00                     
  3818                           ;mcc_generated_files/pin_manager.c: 71:     TRISB = 0xFF;
  3819   001D00  6893               	setf	147,c	;volatile
  3820                           
  3821                           ;mcc_generated_files/pin_manager.c: 72:     TRISC = 0xBF;
  3822   001D02  0EBF               	movlw	191
  3823   001D04  6E94               	movwf	148,c	;volatile
  3824   001D06                     
  3825                           ;mcc_generated_files/pin_manager.c: 73:     TRISD = 0xFF;
  3826   001D06  6895               	setf	149,c	;volatile
  3827   001D08                     
  3828                           ;mcc_generated_files/pin_manager.c: 78:     ANSEL = 0xFF;
  3829   001D08  687E               	setf	126,c	;volatile
  3830                           
  3831                           ;mcc_generated_files/pin_manager.c: 79:     ANSELH = 0x1F;
  3832   001D0A  0E1F               	movlw	31
  3833   001D0C  6E7F               	movwf	127,c	;volatile
  3834                           
  3835                           ;mcc_generated_files/pin_manager.c: 84:     WPUB = 0x00;
  3836   001D0E  0E00               	movlw	0
  3837   001D10  6E7C               	movwf	124,c	;volatile
  3838   001D12                     
  3839                           ;mcc_generated_files/pin_manager.c: 85:     INTCON2bits.nRBPU = 1;
  3840   001D12  8EF1               	bsf	241,7,c	;volatile
  3841   001D14  0012               	return		;funcret
  3842   001D16                     __end_of_PIN_MANAGER_Initialize:
  3843                           	callstack 0
  3844                           
  3845 ;; *************** function _OSCILLATOR_Initialize *****************
  3846 ;; Defined at:
  3847 ;;		line 60 in file "mcc_generated_files/mcc.c"
  3848 ;; Parameters:    Size  Location     Type
  3849 ;;		None
  3850 ;; Auto vars:     Size  Location     Type
  3851 ;;		None
  3852 ;; Return value:  Size  Location     Type
  3853 ;;                  1    wreg      void 
  3854 ;; Registers used:
  3855 ;;		wreg, status,2
  3856 ;; Tracked objects:
  3857 ;;		On entry : 0/0
  3858 ;;		On exit  : 0/0
  3859 ;;		Unchanged: 0/0
  3860 ;; Data sizes:     COMRAM   BANK0   BANK1   BANK2   BANK3   BANK4   BANK5   BANK6   BANK7   BANK8   BANK9  BANK10  BANK1
      +1  BANK12  BANK13  BANK14  BANK15
  3861 ;;      Params:         0       0       0       0       0       0       0       0       0       0       0       0       
      +0       0       0       0       0
  3862 ;;      Locals:         0       0       0       0       0       0       0       0       0       0       0       0       
      +0       0       0       0       0
  3863 ;;      Temps:          0       0       0       0       0       0       0       0       0       0       0       0       
      +0       0       0       0       0
  3864 ;;      Totals:         0       0       0       0       0       0       0       0       0       0       0       0       
      +0       0       0       0       0
  3865 ;;Total ram usage:        0 bytes
  3866 ;; Hardware stack levels used: 1
  3867 ;; Hardware stack levels required when called: 7
  3868 ;; This function calls:
  3869 ;;		Nothing
  3870 ;; This function is called by:
  3871 ;;		_SYSTEM_Initialize
  3872 ;; This function uses a non-reentrant model
  3873 ;;
  3874                           
  3875                           	psect	text35
  3876   001FAA                     __ptext35:
  3877                           	callstack 0
  3878   001FAA                     _OSCILLATOR_Initialize:
  3879                           	callstack 22
  3880   001FAA                     
  3881                           ;mcc_generated_files/mcc.c: 63:     OSCCON = 0x30;
  3882   001FAA  0E30               	movlw	48
  3883   001FAC  6ED3               	movwf	211,c	;volatile
  3884                           
  3885                           ;mcc_generated_files/mcc.c: 65:     OSCTUNE = 0x00;
  3886   001FAE  0E00               	movlw	0
  3887   001FB0  6E9B               	movwf	155,c	;volatile
  3888   001FB2  0012               	return		;funcret
  3889   001FB4                     __end_of_OSCILLATOR_Initialize:
  3890                           	callstack 0
  3891                           
  3892 ;; *************** function _INTERRUPT_Initialize *****************
  3893 ;; Defined at:
  3894 ;;		line 52 in file "mcc_generated_files/interrupt_manager.c"
  3895 ;; Parameters:    Size  Location     Type
  3896 ;;		None
  3897 ;; Auto vars:     Size  Location     Type
  3898 ;;		None
  3899 ;; Return value:  Size  Location     Type
  3900 ;;                  1    wreg      void 
  3901 ;; Registers used:
  3902 ;;		None
  3903 ;; Tracked objects:
  3904 ;;		On entry : 0/0
  3905 ;;		On exit  : 0/0
  3906 ;;		Unchanged: 0/0
  3907 ;; Data sizes:     COMRAM   BANK0   BANK1   BANK2   BANK3   BANK4   BANK5   BANK6   BANK7   BANK8   BANK9  BANK10  BANK1
      +1  BANK12  BANK13  BANK14  BANK15
  3908 ;;      Params:         0       0       0       0       0       0       0       0       0       0       0       0       
      +0       0       0       0       0
  3909 ;;      Locals:         0       0       0       0       0       0       0       0       0       0       0       0       
      +0       0       0       0       0
  3910 ;;      Temps:          0       0       0       0       0       0       0       0       0       0       0       0       
      +0       0       0       0       0
  3911 ;;      Totals:         0       0       0       0       0       0       0       0       0       0       0       0       
      +0       0       0       0       0
  3912 ;;Total ram usage:        0 bytes
  3913 ;; Hardware stack levels used: 1
  3914 ;; Hardware stack levels required when called: 7
  3915 ;; This function calls:
  3916 ;;		Nothing
  3917 ;; This function is called by:
  3918 ;;		_SYSTEM_Initialize
  3919 ;; This function uses a non-reentrant model
  3920 ;;
  3921                           
  3922                           	psect	text36
  3923   002040                     __ptext36:
  3924                           	callstack 0
  3925   002040                     _INTERRUPT_Initialize:
  3926                           	callstack 22
  3927   002040                     
  3928                           ;mcc_generated_files/interrupt_manager.c: 55:     RCONbits.IPEN = 0;
  3929   002040  9ED0               	bcf	208,7,c	;volatile
  3930   002042  0012               	return		;funcret
  3931   002044                     __end_of_INTERRUPT_Initialize:
  3932                           	callstack 0
  3933                           
  3934 ;; *************** function _I2C_Initialize *****************
  3935 ;; Defined at:
  3936 ;;		line 167 in file "mcc_generated_files/i2c_master.c"
  3937 ;; Parameters:    Size  Location     Type
  3938 ;;		None
  3939 ;; Auto vars:     Size  Location     Type
  3940 ;;		None
  3941 ;; Return value:  Size  Location     Type
  3942 ;;                  1    wreg      void 
  3943 ;; Registers used:
  3944 ;;		wreg, status,2
  3945 ;; Tracked objects:
  3946 ;;		On entry : 0/0
  3947 ;;		On exit  : 0/0
  3948 ;;		Unchanged: 0/0
  3949 ;; Data sizes:     COMRAM   BANK0   BANK1   BANK2   BANK3   BANK4   BANK5   BANK6   BANK7   BANK8   BANK9  BANK10  BANK1
      +1  BANK12  BANK13  BANK14  BANK15
  3950 ;;      Params:         0       0       0       0       0       0       0       0       0       0       0       0       
      +0       0       0       0       0
  3951 ;;      Locals:         0       0       0       0       0       0       0       0       0       0       0       0       
      +0       0       0       0       0
  3952 ;;      Temps:          0       0       0       0       0       0       0       0       0       0       0       0       
      +0       0       0       0       0
  3953 ;;      Totals:         0       0       0       0       0       0       0       0       0       0       0       0       
      +0       0       0       0       0
  3954 ;;Total ram usage:        0 bytes
  3955 ;; Hardware stack levels used: 1
  3956 ;; Hardware stack levels required when called: 7
  3957 ;; This function calls:
  3958 ;;		Nothing
  3959 ;; This function is called by:
  3960 ;;		_SYSTEM_Initialize
  3961 ;; This function uses a non-reentrant model
  3962 ;;
  3963                           
  3964                           	psect	text37
  3965   001F18                     __ptext37:
  3966                           	callstack 0
  3967   001F18                     _I2C_Initialize:
  3968                           	callstack 22
  3969   001F18                     
  3970                           ;mcc_generated_files/i2c_master.c: 169:     SSPSTAT = 0x80;
  3971   001F18  0E80               	movlw	128
  3972   001F1A  6EC7               	movwf	199,c	;volatile
  3973                           
  3974                           ;mcc_generated_files/i2c_master.c: 170:     SSPCON1 = 0x08;
  3975   001F1C  0E08               	movlw	8
  3976   001F1E  6EC6               	movwf	198,c	;volatile
  3977                           
  3978                           ;mcc_generated_files/i2c_master.c: 171:     SSPCON2 = 0x00;
  3979   001F20  0E00               	movlw	0
  3980   001F22  6EC5               	movwf	197,c	;volatile
  3981                           
  3982                           ;mcc_generated_files/i2c_master.c: 172:     SSPADD = 0x27;
  3983   001F24  0E27               	movlw	39
  3984   001F26  6EC8               	movwf	200,c	;volatile
  3985   001F28                     
  3986                           ;mcc_generated_files/i2c_master.c: 173:     SSPCON1bits.SSPEN = 0;
  3987   001F28  9AC6               	bcf	198,5,c	;volatile
  3988   001F2A  0012               	return		;funcret
  3989   001F2C                     __end_of_I2C_Initialize:
  3990                           	callstack 0
  3991                           
  3992 ;; *************** function _EUSART_Initialize *****************
  3993 ;; Defined at:
  3994 ;;		line 66 in file "mcc_generated_files/eusart.c"
  3995 ;; Parameters:    Size  Location     Type
  3996 ;;		None
  3997 ;; Auto vars:     Size  Location     Type
  3998 ;;		None
  3999 ;; Return value:  Size  Location     Type
  4000 ;;                  1    wreg      void 
  4001 ;; Registers used:
  4002 ;;		wreg, status,2, status,0, cstack
  4003 ;; Tracked objects:
  4004 ;;		On entry : 0/0
  4005 ;;		On exit  : 0/0
  4006 ;;		Unchanged: 0/0
  4007 ;; Data sizes:     COMRAM   BANK0   BANK1   BANK2   BANK3   BANK4   BANK5   BANK6   BANK7   BANK8   BANK9  BANK10  BANK1
      +1  BANK12  BANK13  BANK14  BANK15
  4008 ;;      Params:         0       0       0       0       0       0       0       0       0       0       0       0       
      +0       0       0       0       0
  4009 ;;      Locals:         0       0       0       0       0       0       0       0       0       0       0       0       
      +0       0       0       0       0
  4010 ;;      Temps:          0       0       0       0       0       0       0       0       0       0       0       0       
      +0       0       0       0       0
  4011 ;;      Totals:         0       0       0       0       0       0       0       0       0       0       0       0       
      +0       0       0       0       0
  4012 ;;Total ram usage:        0 bytes
  4013 ;; Hardware stack levels used: 1
  4014 ;; Hardware stack levels required when called: 8
  4015 ;; This function calls:
  4016 ;;		_EUSART_SetErrorHandler
  4017 ;;		_EUSART_SetFramingErrorHandler
  4018 ;;		_EUSART_SetOverrunErrorHandler
  4019 ;; This function is called by:
  4020 ;;		_SYSTEM_Initialize
  4021 ;; This function uses a non-reentrant model
  4022 ;;
  4023                           
  4024                           	psect	text38
  4025   001C6E                     __ptext38:
  4026                           	callstack 0
  4027   001C6E                     _EUSART_Initialize:
  4028                           	callstack 21
  4029   001C6E                     
  4030                           ;mcc_generated_files/eusart.c: 71:     BAUDCON = 0x08;
  4031   001C6E  0E08               	movlw	8
  4032   001C70  6EB8               	movwf	184,c	;volatile
  4033                           
  4034                           ;mcc_generated_files/eusart.c: 74:     RCSTA = 0x90;
  4035   001C72  0E90               	movlw	144
  4036   001C74  6EAB               	movwf	171,c	;volatile
  4037                           
  4038                           ;mcc_generated_files/eusart.c: 77:     TXSTA = 0x24;
  4039   001C76  0E24               	movlw	36
  4040   001C78  6EAC               	movwf	172,c	;volatile
  4041                           
  4042                           ;mcc_generated_files/eusart.c: 80:     SPBRG = 0xA0;
  4043   001C7A  0EA0               	movlw	160
  4044   001C7C  6EAF               	movwf	175,c	;volatile
  4045                           
  4046                           ;mcc_generated_files/eusart.c: 83:     SPBRGH = 0x01;
  4047   001C7E  0E01               	movlw	1
  4048   001C80  6EB0               	movwf	176,c	;volatile
  4049   001C82                     
  4050                           ;mcc_generated_files/eusart.c: 86:     EUSART_SetFramingErrorHandler(EUSART_DefaultFrami
      +                          ngErrorHandler);
  4051   001C82  0E00               	movlw	0
  4052   001C84  6E1A               	movwf	EUSART_SetFramingErrorHandler@interruptHandler^0,c
  4053   001C86  0E00               	movlw	0
  4054   001C88  6E1B               	movwf	(EUSART_SetFramingErrorHandler@interruptHandler+1)^0,c
  4055   001C8A  ECDF  F00F         	call	_EUSART_SetFramingErrorHandler	;wreg free
  4056   001C8E                     
  4057                           ;mcc_generated_files/eusart.c: 87:     EUSART_SetOverrunErrorHandler(EUSART_DefaultOverr
      +                          unErrorHandler);
  4058   001C8E  0E00               	movlw	0
  4059   001C90  6E1A               	movwf	EUSART_SetOverrunErrorHandler@interruptHandler^0,c
  4060   001C92  0E00               	movlw	0
  4061   001C94  6E1B               	movwf	(EUSART_SetOverrunErrorHandler@interruptHandler+1)^0,c
  4062   001C96  ECDA  F00F         	call	_EUSART_SetOverrunErrorHandler	;wreg free
  4063   001C9A                     
  4064                           ;mcc_generated_files/eusart.c: 88:     EUSART_SetErrorHandler(EUSART_DefaultErrorHandler
      +                          );
  4065   001C9A  0E00               	movlw	0
  4066   001C9C  6E1A               	movwf	EUSART_SetErrorHandler@interruptHandler^0,c
  4067   001C9E  0E00               	movlw	0
  4068   001CA0  6E1B               	movwf	(EUSART_SetErrorHandler@interruptHandler+1)^0,c
  4069   001CA2  ECE4  F00F         	call	_EUSART_SetErrorHandler	;wreg free
  4070   001CA6                     
  4071                           ;mcc_generated_files/eusart.c: 90:     eusartRxLastError.status = 0;
  4072   001CA6  0E00               	movlw	0
  4073   001CA8  6E3B               	movwf	_eusartRxLastError^0,c	;volatile
  4074   001CAA  0012               	return		;funcret
  4075   001CAC                     __end_of_EUSART_Initialize:
  4076                           	callstack 0
  4077                           
  4078 ;; *************** function _EUSART_SetOverrunErrorHandler *****************
  4079 ;; Defined at:
  4080 ;;		line 173 in file "mcc_generated_files/eusart.c"
  4081 ;; Parameters:    Size  Location     Type
  4082 ;;  interruptHan    2   25[COMRAM] PTR FTN()void 
  4083 ;;		 -> EUSART_DefaultOverrunErrorHandler(1), 
  4084 ;; Auto vars:     Size  Location     Type
  4085 ;;		None
  4086 ;; Return value:  Size  Location     Type
  4087 ;;                  1    wreg      void 
  4088 ;; Registers used:
  4089 ;;		wreg, status,2, status,0
  4090 ;; Tracked objects:
  4091 ;;		On entry : 0/0
  4092 ;;		On exit  : 0/0
  4093 ;;		Unchanged: 0/0
  4094 ;; Data sizes:     COMRAM   BANK0   BANK1   BANK2   BANK3   BANK4   BANK5   BANK6   BANK7   BANK8   BANK9  BANK10  BANK1
      +1  BANK12  BANK13  BANK14  BANK15
  4095 ;;      Params:         2       0       0       0       0       0       0       0       0       0       0       0       
      +0       0       0       0       0
  4096 ;;      Locals:         0       0       0       0       0       0       0       0       0       0       0       0       
      +0       0       0       0       0
  4097 ;;      Temps:          0       0       0       0       0       0       0       0       0       0       0       0       
      +0       0       0       0       0
  4098 ;;      Totals:         2       0       0       0       0       0       0       0       0       0       0       0       
      +0       0       0       0       0
  4099 ;;Total ram usage:        2 bytes
  4100 ;; Hardware stack levels used: 1
  4101 ;; Hardware stack levels required when called: 7
  4102 ;; This function calls:
  4103 ;;		Nothing
  4104 ;; This function is called by:
  4105 ;;		_EUSART_Initialize
  4106 ;; This function uses a non-reentrant model
  4107 ;;
  4108                           
  4109                           	psect	text39
  4110   001FB4                     __ptext39:
  4111                           	callstack 0
  4112   001FB4                     _EUSART_SetOverrunErrorHandler:
  4113                           	callstack 21
  4114   001FB4                     
  4115                           ;mcc_generated_files/eusart.c: 174:     EUSART_OverrunErrorHandler = interruptHandler;
  4116   001FB4  C01A  F0FD         	movff	EUSART_SetOverrunErrorHandler@interruptHandler,_EUSART_OverrunErrorHandler
  4117   001FB8  C01B  F0FE         	movff	EUSART_SetOverrunErrorHandler@interruptHandler+1,_EUSART_OverrunErrorHandler+1
  4118   001FBC  0012               	return		;funcret
  4119   001FBE                     __end_of_EUSART_SetOverrunErrorHandler:
  4120                           	callstack 0
  4121                           
  4122 ;; *************** function _EUSART_SetFramingErrorHandler *****************
  4123 ;; Defined at:
  4124 ;;		line 169 in file "mcc_generated_files/eusart.c"
  4125 ;; Parameters:    Size  Location     Type
  4126 ;;  interruptHan    2   25[COMRAM] PTR FTN()void 
  4127 ;;		 -> EUSART_DefaultFramingErrorHandler(1), 
  4128 ;; Auto vars:     Size  Location     Type
  4129 ;;		None
  4130 ;; Return value:  Size  Location     Type
  4131 ;;                  1    wreg      void 
  4132 ;; Registers used:
  4133 ;;		wreg, status,2, status,0
  4134 ;; Tracked objects:
  4135 ;;		On entry : 0/0
  4136 ;;		On exit  : 0/0
  4137 ;;		Unchanged: 0/0
  4138 ;; Data sizes:     COMRAM   BANK0   BANK1   BANK2   BANK3   BANK4   BANK5   BANK6   BANK7   BANK8   BANK9  BANK10  BANK1
      +1  BANK12  BANK13  BANK14  BANK15
  4139 ;;      Params:         2       0       0       0       0       0       0       0       0       0       0       0       
      +0       0       0       0       0
  4140 ;;      Locals:         0       0       0       0       0       0       0       0       0       0       0       0       
      +0       0       0       0       0
  4141 ;;      Temps:          0       0       0       0       0       0       0       0       0       0       0       0       
      +0       0       0       0       0
  4142 ;;      Totals:         2       0       0       0       0       0       0       0       0       0       0       0       
      +0       0       0       0       0
  4143 ;;Total ram usage:        2 bytes
  4144 ;; Hardware stack levels used: 1
  4145 ;; Hardware stack levels required when called: 7
  4146 ;; This function calls:
  4147 ;;		Nothing
  4148 ;; This function is called by:
  4149 ;;		_EUSART_Initialize
  4150 ;; This function uses a non-reentrant model
  4151 ;;
  4152                           
  4153                           	psect	text40
  4154   001FBE                     __ptext40:
  4155                           	callstack 0
  4156   001FBE                     _EUSART_SetFramingErrorHandler:
  4157                           	callstack 21
  4158   001FBE                     
  4159                           ;mcc_generated_files/eusart.c: 170:     EUSART_FramingErrorHandler = interruptHandler;
  4160   001FBE  C01A  F043         	movff	EUSART_SetFramingErrorHandler@interruptHandler,_EUSART_FramingErrorHandler
  4161   001FC2  C01B  F044         	movff	EUSART_SetFramingErrorHandler@interruptHandler+1,_EUSART_FramingErrorHandler+1
  4162   001FC6  0012               	return		;funcret
  4163   001FC8                     __end_of_EUSART_SetFramingErrorHandler:
  4164                           	callstack 0
  4165                           
  4166 ;; *************** function _EUSART_SetErrorHandler *****************
  4167 ;; Defined at:
  4168 ;;		line 177 in file "mcc_generated_files/eusart.c"
  4169 ;; Parameters:    Size  Location     Type
  4170 ;;  interruptHan    2   25[COMRAM] PTR FTN()void 
  4171 ;;		 -> EUSART_DefaultErrorHandler(1), 
  4172 ;; Auto vars:     Size  Location     Type
  4173 ;;		None
  4174 ;; Return value:  Size  Location     Type
  4175 ;;                  1    wreg      void 
  4176 ;; Registers used:
  4177 ;;		wreg, status,2, status,0
  4178 ;; Tracked objects:
  4179 ;;		On entry : 0/0
  4180 ;;		On exit  : 0/0
  4181 ;;		Unchanged: 0/0
  4182 ;; Data sizes:     COMRAM   BANK0   BANK1   BANK2   BANK3   BANK4   BANK5   BANK6   BANK7   BANK8   BANK9  BANK10  BANK1
      +1  BANK12  BANK13  BANK14  BANK15
  4183 ;;      Params:         2       0       0       0       0       0       0       0       0       0       0       0       
      +0       0       0       0       0
  4184 ;;      Locals:         0       0       0       0       0       0       0       0       0       0       0       0       
      +0       0       0       0       0
  4185 ;;      Temps:          0       0       0       0       0       0       0       0       0       0       0       0       
      +0       0       0       0       0
  4186 ;;      Totals:         2       0       0       0       0       0       0       0       0       0       0       0       
      +0       0       0       0       0
  4187 ;;Total ram usage:        2 bytes
  4188 ;; Hardware stack levels used: 1
  4189 ;; Hardware stack levels required when called: 7
  4190 ;; This function calls:
  4191 ;;		Nothing
  4192 ;; This function is called by:
  4193 ;;		_EUSART_Initialize
  4194 ;; This function uses a non-reentrant model
  4195 ;;
  4196                           
  4197                           	psect	text41
  4198   001FC8                     __ptext41:
  4199                           	callstack 0
  4200   001FC8                     _EUSART_SetErrorHandler:
  4201                           	callstack 21
  4202   001FC8                     
  4203                           ;mcc_generated_files/eusart.c: 178:     EUSART_ErrorHandler = interruptHandler;
  4204   001FC8  C01A  F0FB         	movff	EUSART_SetErrorHandler@interruptHandler,_EUSART_ErrorHandler
  4205   001FCC  C01B  F0FC         	movff	EUSART_SetErrorHandler@interruptHandler+1,_EUSART_ErrorHandler+1
  4206   001FD0  0012               	return		;funcret
  4207   001FD2                     __end_of_EUSART_SetErrorHandler:
  4208                           	callstack 0
  4209                           
  4210 ;; *************** function _INTERRUPT_InterruptManager *****************
  4211 ;; Defined at:
  4212 ;;		line 58 in file "mcc_generated_files/interrupt_manager.c"
  4213 ;; Parameters:    Size  Location     Type
  4214 ;;		None
  4215 ;; Auto vars:     Size  Location     Type
  4216 ;;		None
  4217 ;; Return value:  Size  Location     Type
  4218 ;;                  1    wreg      void 
  4219 ;; Registers used:
  4220 ;;		wreg, fsr2l, fsr2h, status,2, status,0, pcl, pclath, pclatu, tosl, tblptrl, tblptrh, tblptru, prodl, prodh, cstack
  4221 ;; Tracked objects:
  4222 ;;		On entry : 0/0
  4223 ;;		On exit  : 0/0
  4224 ;;		Unchanged: 0/0
  4225 ;; Data sizes:     COMRAM   BANK0   BANK1   BANK2   BANK3   BANK4   BANK5   BANK6   BANK7   BANK8   BANK9  BANK10  BANK1
      +1  BANK12  BANK13  BANK14  BANK15
  4226 ;;      Params:         0       0       0       0       0       0       0       0       0       0       0       0       
      +0       0       0       0       0
  4227 ;;      Locals:         0       0       0       0       0       0       0       0       0       0       0       0       
      +0       0       0       0       0
  4228 ;;      Temps:         10       0       0       0       0       0       0       0       0       0       0       0       
      +0       0       0       0       0
  4229 ;;      Totals:        10       0       0       0       0       0       0       0       0       0       0       0       
      +0       0       0       0       0
  4230 ;;Total ram usage:       10 bytes
  4231 ;; Hardware stack levels used: 1
  4232 ;; Hardware stack levels required when called: 6
  4233 ;; This function calls:
  4234 ;;		NULL
  4235 ;;		_I2C_MasterIsr
  4236 ;; This function is called by:
  4237 ;;		Interrupt level 2
  4238 ;; This function uses a non-reentrant model
  4239 ;;
  4240                           
  4241                           	psect	intcode
  4242   000008                     __pintcode:
  4243                           	callstack 0
  4244   000008                     _INTERRUPT_InterruptManager:
  4245                           	callstack 15
  4246                           
  4247                           ;incstack = 0
  4248   000008  8245               	bsf	int$flags,1,c	;set compiler interrupt flag (level 2)
  4249   00000A  CFFA F010          	movff	pclath,??_INTERRUPT_InterruptManager
  4250   00000E  CFFB F011          	movff	pclatu,??_INTERRUPT_InterruptManager+1
  4251   000012  CFD9 F012          	movff	fsr2l,??_INTERRUPT_InterruptManager+2
  4252   000016  CFDA F013          	movff	fsr2h,??_INTERRUPT_InterruptManager+3
  4253   00001A  CFF3 F014          	movff	prodl,??_INTERRUPT_InterruptManager+4
  4254   00001E  CFF4 F015          	movff	prodh,??_INTERRUPT_InterruptManager+5
  4255   000022  CFF6 F016          	movff	tblptrl,??_INTERRUPT_InterruptManager+6
  4256   000026  CFF7 F017          	movff	tblptrh,??_INTERRUPT_InterruptManager+7
  4257   00002A  CFF8 F018          	movff	tblptru,??_INTERRUPT_InterruptManager+8
  4258   00002E  CFF5 F019          	movff	tablat,??_INTERRUPT_InterruptManager+9
  4259   000032                     
  4260                           ;mcc_generated_files/interrupt_manager.c: 61:     if(INTCONbits.PEIE == 1)
  4261   000032  ACF2               	btfss	242,6,c	;volatile
  4262   000034  EF1E  F000         	goto	i2u136_41
  4263   000038  EF20  F000         	goto	i2u136_40
  4264   00003C                     i2u136_41:
  4265   00003C  EF4C  F000         	goto	i2l363
  4266   000040                     i2u136_40:
  4267   000040                     
  4268                           ;mcc_generated_files/interrupt_manager.c: 62:     {;mcc_generated_files/interrupt_manage
      +                          r.c: 63:         if(PIE2bits.BCLIE == 1 && PIR2bits.BCLIF == 1)
  4269   000040  A6A0               	btfss	160,3,c	;volatile
  4270   000042  EF25  F000         	goto	i2u137_41
  4271   000046  EF27  F000         	goto	i2u137_40
  4272   00004A                     i2u137_41:
  4273   00004A  EF3C  F000         	goto	i2l358
  4274   00004E                     i2u137_40:
  4275   00004E  A6A1               	btfss	161,3,c	;volatile
  4276   000050  EF2C  F000         	goto	i2u138_41
  4277   000054  EF2E  F000         	goto	i2u138_40
  4278   000058                     i2u138_41:
  4279   000058  EF3C  F000         	goto	i2l358
  4280   00005C                     i2u138_40:
  4281   00005C                     i2l3400:
  4282                           
  4283                           ;mcc_generated_files/interrupt_manager.c: 64:         {;mcc_generated_files/interrupt_ma
      +                          nager.c: 65:             MSSP_InterruptHandler();
  4284   00005C  D802               	call	i2u139_48
  4285   00005E  EF3A  F000         	goto	i2u139_49
  4286   000062                     i2u139_48:
  4287   000062  0005               	push	
  4288   000064  6EFA               	movwf	pclath,c
  4289   000066  5036               	movf	_MSSP_InterruptHandler^0,w,c
  4290   000068  6EFD               	movwf	tosl,c
  4291   00006A  5037               	movf	(_MSSP_InterruptHandler+1)^0,w,c
  4292   00006C  6EFE               	movwf	tosh,c
  4293   00006E  6AFF               	clrf	tosu,c
  4294   000070  50FA               	movf	pclath,w,c
  4295   000072  0012               	return		;indir
  4296   000074                     i2u139_49:
  4297                           
  4298                           ;mcc_generated_files/interrupt_manager.c: 66:         }
  4299   000074  EF4C  F000         	goto	i2l363
  4300   000078                     i2l358:
  4301   000078  A69D               	btfss	157,3,c	;volatile
  4302   00007A  EF41  F000         	goto	i2u140_41
  4303   00007E  EF43  F000         	goto	i2u140_40
  4304   000082                     i2u140_41:
  4305   000082  EF4C  F000         	goto	i2l359
  4306   000086                     i2u140_40:
  4307   000086  A69E               	btfss	158,3,c	;volatile
  4308   000088  EF48  F000         	goto	i2u141_41
  4309   00008C  EF4A  F000         	goto	i2u141_40
  4310   000090                     i2u141_41:
  4311   000090  EF4C  F000         	goto	i2l359
  4312   000094                     i2u141_40:
  4313   000094  EF2E  F000         	goto	i2l3400
  4314   000098                     i2l359:
  4315   000098                     i2l363:
  4316   000098  C019  FFF5         	movff	??_INTERRUPT_InterruptManager+9,tablat
  4317   00009C  C018  FFF8         	movff	??_INTERRUPT_InterruptManager+8,tblptru
  4318   0000A0  C017  FFF7         	movff	??_INTERRUPT_InterruptManager+7,tblptrh
  4319   0000A4  C016  FFF6         	movff	??_INTERRUPT_InterruptManager+6,tblptrl
  4320   0000A8  C015  FFF4         	movff	??_INTERRUPT_InterruptManager+5,prodh
  4321   0000AC  C014  FFF3         	movff	??_INTERRUPT_InterruptManager+4,prodl
  4322   0000B0  C013  FFDA         	movff	??_INTERRUPT_InterruptManager+3,fsr2h
  4323   0000B4  C012  FFD9         	movff	??_INTERRUPT_InterruptManager+2,fsr2l
  4324   0000B8  C011  FFFB         	movff	??_INTERRUPT_InterruptManager+1,pclatu
  4325   0000BC  C010  FFFA         	movff	??_INTERRUPT_InterruptManager,pclath
  4326   0000C0  9245               	bcf	int$flags,1,c	;clear compiler interrupt flag (level 2)
  4327   0000C2  0011               	retfie		f
  4328   0000C4                     __end_of_INTERRUPT_InterruptManager:
  4329                           	callstack 0
  4330                           
  4331 ;; *************** function _I2C_MasterIsr *****************
  4332 ;; Defined at:
  4333 ;;		line 318 in file "mcc_generated_files/i2c_master.c"
  4334 ;; Parameters:    Size  Location     Type
  4335 ;;		None
  4336 ;; Auto vars:     Size  Location     Type
  4337 ;;		None
  4338 ;; Return value:  Size  Location     Type
  4339 ;;                  1    wreg      void 
  4340 ;; Registers used:
  4341 ;;		wreg, fsr2l, fsr2h, status,2, status,0, pcl, pclath, pclatu, tosl, tblptrl, tblptrh, tblptru, prodl, prodh, cstack
  4342 ;; Tracked objects:
  4343 ;;		On entry : 0/0
  4344 ;;		On exit  : 0/0
  4345 ;;		Unchanged: 0/0
  4346 ;; Data sizes:     COMRAM   BANK0   BANK1   BANK2   BANK3   BANK4   BANK5   BANK6   BANK7   BANK8   BANK9  BANK10  BANK1
      +1  BANK12  BANK13  BANK14  BANK15
  4347 ;;      Params:         0       0       0       0       0       0       0       0       0       0       0       0       
      +0       0       0       0       0
  4348 ;;      Locals:         0       0       0       0       0       0       0       0       0       0       0       0       
      +0       0       0       0       0
  4349 ;;      Temps:          0       0       0       0       0       0       0       0       0       0       0       0       
      +0       0       0       0       0
  4350 ;;      Totals:         0       0       0       0       0       0       0       0       0       0       0       0       
      +0       0       0       0       0
  4351 ;;Total ram usage:        0 bytes
  4352 ;; Hardware stack levels used: 1
  4353 ;; Hardware stack levels required when called: 5
  4354 ;; This function calls:
  4355 ;;		_I2C_MasterFsm
  4356 ;; This function is called by:
  4357 ;;		_I2C_Open
  4358 ;;		_INTERRUPT_InterruptManager
  4359 ;; This function uses a non-reentrant model
  4360 ;;
  4361                           
  4362                           	psect	text43
  4363   00201A                     __ptext43:
  4364                           	callstack 0
  4365   00201A                     _I2C_MasterIsr:
  4366                           	callstack 15
  4367   00201A                     
  4368                           ;mcc_generated_files/i2c_master.c: 320:     I2C_MasterFsm();
  4369   00201A  ECE1  F00C         	call	_I2C_MasterFsm	;wreg free
  4370   00201E  0012               	return		;funcret
  4371   002020                     __end_of_I2C_MasterIsr:
  4372                           	callstack 0
  4373                           
  4374 ;; *************** function _I2C_MasterFsm *****************
  4375 ;; Defined at:
  4376 ;;		line 323 in file "mcc_generated_files/i2c_master.c"
  4377 ;; Parameters:    Size  Location     Type
  4378 ;;		None
  4379 ;; Auto vars:     Size  Location     Type
  4380 ;;		None
  4381 ;; Return value:  Size  Location     Type
  4382 ;;                  1    wreg      void 
  4383 ;; Registers used:
  4384 ;;		wreg, fsr2l, fsr2h, status,2, status,0, pcl, pclath, pclatu, tosl, tblptrl, tblptrh, tblptru, prodl, prodh, cstack
  4385 ;; Tracked objects:
  4386 ;;		On entry : 0/0
  4387 ;;		On exit  : 0/0
  4388 ;;		Unchanged: 0/0
  4389 ;; Data sizes:     COMRAM   BANK0   BANK1   BANK2   BANK3   BANK4   BANK5   BANK6   BANK7   BANK8   BANK9  BANK10  BANK1
      +1  BANK12  BANK13  BANK14  BANK15
  4390 ;;      Params:         0       0       0       0       0       0       0       0       0       0       0       0       
      +0       0       0       0       0
  4391 ;;      Locals:         0       0       0       0       0       0       0       0       0       0       0       0       
      +0       0       0       0       0
  4392 ;;      Temps:          2       0       0       0       0       0       0       0       0       0       0       0       
      +0       0       0       0       0
  4393 ;;      Totals:         2       0       0       0       0       0       0       0       0       0       0       0       
      +0       0       0       0       0
  4394 ;;Total ram usage:        2 bytes
  4395 ;; Hardware stack levels used: 1
  4396 ;; Hardware stack levels required when called: 4
  4397 ;; This function calls:
  4398 ;;		_I2C_DO_ADDRESS_NACK
  4399 ;;		_I2C_DO_IDLE
  4400 ;;		_I2C_DO_RCEN
  4401 ;;		_I2C_DO_RESET
  4402 ;;		_I2C_DO_RX
  4403 ;;		_I2C_DO_RX_ACK
  4404 ;;		_I2C_DO_RX_NACK_RESTART
  4405 ;;		_I2C_DO_RX_NACK_STOP
  4406 ;;		_I2C_DO_SEND_ADR_READ
  4407 ;;		_I2C_DO_SEND_ADR_WRITE
  4408 ;;		_I2C_DO_SEND_RESTART
  4409 ;;		_I2C_DO_SEND_RESTART_READ
  4410 ;;		_I2C_DO_SEND_RESTART_WRITE
  4411 ;;		_I2C_DO_SEND_STOP
  4412 ;;		_I2C_DO_TX
  4413 ;;		_I2C_DO_TX_EMPTY
  4414 ;;		_I2C_MasterIsNack
  4415 ;;		i2_I2C_MasterClearIrq
  4416 ;; This function is called by:
  4417 ;;		_I2C_MasterIsr
  4418 ;; This function uses a non-reentrant model
  4419 ;;
  4420                           
  4421                           	psect	text44
  4422   0019C2                     __ptext44:
  4423                           	callstack 0
  4424   0019C2                     _I2C_MasterFsm:
  4425                           	callstack 15
  4426   0019C2                     
  4427                           ;mcc_generated_files/i2c_master.c: 325:     I2C_MasterClearIrq();
  4428   0019C2  EC22  F010         	call	i2_I2C_MasterClearIrq	;wreg free
  4429   0019C6                     
  4430                           ;mcc_generated_files/i2c_master.c: 327:     if(I2C_Status.addressNackCheck && I2C_Master
      +                          IsNack())
  4431   0019C6  0100               	movlb	0	; () banked
  4432   0019C8  A1D9               	btfss	(_I2C_Status+35)& (0+255),0,b
  4433   0019CA  EFE9  F00C         	goto	i2u120_41
  4434   0019CE  EFEB  F00C         	goto	i2u120_40
  4435   0019D2                     i2u120_41:
  4436   0019D2  EFF8  F00C         	goto	i2l3250
  4437   0019D6                     i2u120_40:
  4438   0019D6                     
  4439                           ; BSR set to: 0
  4440   0019D6  EC96  F00F         	call	_I2C_MasterIsNack	;wreg free
  4441   0019DA  0900               	iorlw	0
  4442   0019DC  B4D8               	btfsc	status,2,c
  4443   0019DE  EFF3  F00C         	goto	i2u121_41
  4444   0019E2  EFF5  F00C         	goto	i2u121_40
  4445   0019E6                     i2u121_41:
  4446   0019E6  EFF8  F00C         	goto	i2l3250
  4447   0019EA                     i2u121_40:
  4448   0019EA                     
  4449                           ;mcc_generated_files/i2c_master.c: 328:     {;mcc_generated_files/i2c_master.c: 329:    
      +                               I2C_Status.state = I2C_ADDRESS_NACK;
  4450   0019EA  0E0F               	movlw	15
  4451   0019EC  0100               	movlb	0	; () banked
  4452   0019EE  6FD7               	movwf	(_I2C_Status+33)& (0+255),b
  4453   0019F0                     i2l3250:
  4454                           
  4455                           ;mcc_generated_files/i2c_master.c: 331:     I2C_Status.state = i2c_fsmStateTable[I2C_Sta
      +                          tus.state]();
  4456   0019F0  0100               	movlb	0	; () banked
  4457   0019F2  51D7               	movf	(_I2C_Status+33)& (0+255),w,b
  4458   0019F4  0D02               	mullw	2
  4459   0019F6  0E01               	movlw	low _i2c_fsmStateTable
  4460   0019F8  24F3               	addwf	243,w,c
  4461   0019FA  6EF6               	movwf	tblptrl,c
  4462   0019FC  0E10               	movlw	high _i2c_fsmStateTable
  4463   0019FE  20F4               	addwfc	244,w,c
  4464   001A00  6EF7               	movwf	tblptrh,c
  4465   001A02                     	if	1	;There are 3 active tblptr bytes
  4466   001A02  6AF8               	clrf	tblptru,c
  4467   001A04  0E00               	movlw	low (__mediumconst shr (0+16))
  4468   001A06  22F8               	addwfc	tblptru,f,c
  4469   001A08                     	endif
  4470   001A08  0009               	tblrd		*+
  4471   001A0A  CFF5 F00E          	movff	tablat,??_I2C_MasterFsm
  4472   001A0E  0009               	tblrd		*+
  4473   001A10  CFF5 F00F          	movff	tablat,??_I2C_MasterFsm+1
  4474   001A14  D802               	call	i2u122_48
  4475   001A16  EF16  F00D         	goto	i2u122_49
  4476   001A1A                     i2u122_48:
  4477   001A1A  0005               	push	
  4478   001A1C  6EFA               	movwf	pclath,c
  4479   001A1E  500E               	movf	??_I2C_MasterFsm^0,w,c
  4480   001A20  6EFD               	movwf	tosl,c
  4481   001A22  500F               	movf	(??_I2C_MasterFsm+1)^0,w,c
  4482   001A24  6EFE               	movwf	tosh,c
  4483   001A26  6AFF               	clrf	tosu,c
  4484   001A28  50FA               	movf	pclath,w,c
  4485   001A2A  0012               	return		;indir
  4486   001A2C                     i2u122_49:
  4487   001A2C  0100               	movlb	0	; () banked
  4488   001A2E  6FD7               	movwf	(_I2C_Status+33)& (0+255),b
  4489   001A30                     
  4490                           ; BSR set to: 0
  4491   001A30  0012               	return		;funcret
  4492   001A32                     __end_of_I2C_MasterFsm:
  4493                           	callstack 0
  4494                           
  4495 ;; *************** function i2_I2C_MasterClearIrq *****************
  4496 ;; Defined at:
  4497 ;;		line 642 in file "mcc_generated_files/i2c_master.c"
  4498 ;; Parameters:    Size  Location     Type
  4499 ;;		None
  4500 ;; Auto vars:     Size  Location     Type
  4501 ;;		None
  4502 ;; Return value:  Size  Location     Type
  4503 ;;                  1    wreg      void 
  4504 ;; Registers used:
  4505 ;;		None
  4506 ;; Tracked objects:
  4507 ;;		On entry : 0/0
  4508 ;;		On exit  : 0/0
  4509 ;;		Unchanged: 0/0
  4510 ;; Data sizes:     COMRAM   BANK0   BANK1   BANK2   BANK3   BANK4   BANK5   BANK6   BANK7   BANK8   BANK9  BANK10  BANK1
      +1  BANK12  BANK13  BANK14  BANK15
  4511 ;;      Params:         0       0       0       0       0       0       0       0       0       0       0       0       
      +0       0       0       0       0
  4512 ;;      Locals:         0       0       0       0       0       0       0       0       0       0       0       0       
      +0       0       0       0       0
  4513 ;;      Temps:          0       0       0       0       0       0       0       0       0       0       0       0       
      +0       0       0       0       0
  4514 ;;      Totals:         0       0       0       0       0       0       0       0       0       0       0       0       
      +0       0       0       0       0
  4515 ;;Total ram usage:        0 bytes
  4516 ;; Hardware stack levels used: 1
  4517 ;; This function calls:
  4518 ;;		Nothing
  4519 ;; This function is called by:
  4520 ;;		_I2C_MasterFsm
  4521 ;; This function uses a non-reentrant model
  4522 ;;
  4523                           
  4524                           	psect	text45
  4525   002044                     __ptext45:
  4526                           	callstack 0
  4527   002044                     i2_I2C_MasterClearIrq:
  4528                           	callstack 18
  4529   002044                     
  4530                           ;mcc_generated_files/i2c_master.c: 644:     PIR1bits.SSPIF = 0;
  4531   002044  969E               	bcf	158,3,c	;volatile
  4532   002046  0012               	return		;funcret
  4533   002048                     __end_ofi2_I2C_MasterClearIrq:
  4534                           	callstack 0
  4535                           
  4536 ;; *************** function _I2C_DO_ADDRESS_NACK *****************
  4537 ;; Defined at:
  4538 ;;		line 501 in file "mcc_generated_files/i2c_master.c"
  4539 ;; Parameters:    Size  Location     Type
  4540 ;;		None
  4541 ;; Auto vars:     Size  Location     Type
  4542 ;;		None
  4543 ;; Return value:  Size  Location     Type
  4544 ;;                  1    wreg      enum E3121
  4545 ;; Registers used:
  4546 ;;		wreg, fsr2l, fsr2h, status,2, status,0, pcl, pclath, pclatu, tosl, prodl, prodh, cstack
  4547 ;; Tracked objects:
  4548 ;;		On entry : 0/0
  4549 ;;		On exit  : 0/0
  4550 ;;		Unchanged: 0/0
  4551 ;; Data sizes:     COMRAM   BANK0   BANK1   BANK2   BANK3   BANK4   BANK5   BANK6   BANK7   BANK8   BANK9  BANK10  BANK1
      +1  BANK12  BANK13  BANK14  BANK15
  4552 ;;      Params:         0       0       0       0       0       0       0       0       0       0       0       0       
      +0       0       0       0       0
  4553 ;;      Locals:         0       0       0       0       0       0       0       0       0       0       0       0       
      +0       0       0       0       0
  4554 ;;      Temps:          2       0       0       0       0       0       0       0       0       0       0       0       
      +0       0       0       0       0
  4555 ;;      Totals:         2       0       0       0       0       0       0       0       0       0       0       0       
      +0       0       0       0       0
  4556 ;;Total ram usage:        2 bytes
  4557 ;; Hardware stack levels used: 1
  4558 ;; Hardware stack levels required when called: 3
  4559 ;; This function calls:
  4560 ;;		NULL
  4561 ;;		_I2C_CallbackReturnReset
  4562 ;;		_I2C_CallbackReturnStop
  4563 ;;		_I2C_DO_SEND_RESTART
  4564 ;;		_I2C_DO_SEND_STOP
  4565 ;;		_rd1RegCompleteHandler
  4566 ;;		_rd2RegCompleteHandler
  4567 ;;		_rdBlkRegCompleteHandler
  4568 ;;		_wr1RegCompleteHandler
  4569 ;;		_wr2RegCompleteHandler
  4570 ;; This function is called by:
  4571 ;;		_I2C_MasterFsm
  4572 ;; This function uses a non-reentrant model
  4573 ;;
  4574                           
  4575                           	psect	text46
  4576   001AA0                     __ptext46:
  4577                           	callstack 0
  4578   001AA0                     _I2C_DO_ADDRESS_NACK:
  4579                           	callstack 15
  4580   001AA0                     
  4581                           ;mcc_generated_files/i2c_master.c: 503:     I2C_Status.addressNackCheck = 0;
  4582   001AA0  0100               	movlb	0	; () banked
  4583   001AA2  91D9               	bcf	(_I2C_Status+35)& (0+255),0,b
  4584   001AA4                     
  4585                           ; BSR set to: 0
  4586                           ;mcc_generated_files/i2c_master.c: 504:     I2C_Status.error = I2C_FAIL;
  4587   001AA4  0E02               	movlw	2
  4588   001AA6  6FD8               	movwf	(_I2C_Status+34)& (0+255),b
  4589                           
  4590                           ;mcc_generated_files/i2c_master.c: 505:     switch(I2C_Status.callbackTable[I2C_ADDR_NAC
      +                          K](I2C_Status.callbackPayload[I2C_ADDR_NACK]))
  4591   001AA8  EF5E  F00D         	goto	i2l3174
  4592   001AAC                     i2l3164:
  4593                           
  4594                           ;mcc_generated_files/i2c_master.c: 509:             return I2C_DO_SEND_RESTART();
  4595   001AAC  ECFD  F00F         	call	_I2C_DO_SEND_RESTART	;wreg free
  4596   001AB0  EF82  F00D         	goto	i2l620
  4597   001AB4                     i2l3168:
  4598                           
  4599                           ;mcc_generated_files/i2c_master.c: 511:             return I2C_DO_SEND_STOP();
  4600   001AB4  ECF9  F00F         	call	_I2C_DO_SEND_STOP	;wreg free
  4601   001AB8  EF82  F00D         	goto	i2l620
  4602   001ABC                     i2l3174:
  4603                           
  4604                           ; BSR set to: 0
  4605   001ABC  C0C6  F00A         	movff	_I2C_Status+16,I2C_CallbackReturnReset@funPtr
  4606   001AC0  C0C7  F00B         	movff	_I2C_Status+17,I2C_CallbackReturnReset@funPtr+1
  4607   001AC4  D802               	call	i2u113_48
  4608   001AC6  EF6E  F00D         	goto	i2u113_49
  4609   001ACA                     i2u113_48:
  4610   001ACA  0005               	push	
  4611   001ACC  6EFA               	movwf	pclath,c
  4612   001ACE  51BA               	movf	(_I2C_Status+4)& (0+255),w,b
  4613   001AD0  6EFD               	movwf	tosl,c
  4614   001AD2  51BB               	movf	(_I2C_Status+5)& (0+255),w,b
  4615   001AD4  6EFE               	movwf	tosh,c
  4616   001AD6  6AFF               	clrf	tosu,c
  4617   001AD8  50FA               	movf	pclath,w,c
  4618   001ADA  0012               	return		;indir
  4619   001ADC                     i2u113_49:
  4620   001ADC  6E0C               	movwf	??_I2C_DO_ADDRESS_NACK^0,c
  4621   001ADE  6A0D               	clrf	(??_I2C_DO_ADDRESS_NACK+1)^0,c
  4622                           
  4623                           ; Switch on 2 bytes has been partitioned into a top level switch of size 1, and 1 sub-sw
      +                          itches
  4624                           ; Switch size 1, requested type "simple"
  4625                           ; Number of cases is 1, Range of values is 0 to 0
  4626                           ; switch strategies available:
  4627                           ; Name         Instructions Cycles
  4628                           ; simple_byte            4     3 (average)
  4629                           ;	Chosen strategy is simple_byte
  4630   001AE0  500D               	movf	(??_I2C_DO_ADDRESS_NACK+1)^0,w,c
  4631   001AE2  0A00               	xorlw	0	; case 0
  4632   001AE4  B4D8               	btfsc	status,2,c
  4633   001AE6  EF77  F00D         	goto	i2l4122
  4634   001AEA  EF5A  F00D         	goto	i2l3168
  4635   001AEE                     i2l4122:
  4636                           
  4637                           ; Switch size 1, requested type "simple"
  4638                           ; Number of cases is 2, Range of values is 2 to 3
  4639                           ; switch strategies available:
  4640                           ; Name         Instructions Cycles
  4641                           ; simple_byte            7     4 (average)
  4642                           ;	Chosen strategy is simple_byte
  4643   001AEE  500C               	movf	??_I2C_DO_ADDRESS_NACK^0,w,c
  4644   001AF0  0A02               	xorlw	2	; case 2
  4645   001AF2  B4D8               	btfsc	status,2,c
  4646   001AF4  EF56  F00D         	goto	i2l3164
  4647   001AF8  0A01               	xorlw	1	; case 3
  4648   001AFA  B4D8               	btfsc	status,2,c
  4649   001AFC  EF56  F00D         	goto	i2l3164
  4650   001B00  EF5A  F00D         	goto	i2l3168
  4651   001B04                     i2l620:
  4652   001B04  0012               	return		;funcret
  4653   001B06                     __end_of_I2C_DO_ADDRESS_NACK:
  4654                           	callstack 0
  4655                           
  4656 ;; *************** function _I2C_DO_RESET *****************
  4657 ;; Defined at:
  4658 ;;		line 495 in file "mcc_generated_files/i2c_master.c"
  4659 ;; Parameters:    Size  Location     Type
  4660 ;;		None
  4661 ;; Auto vars:     Size  Location     Type
  4662 ;;		None
  4663 ;; Return value:  Size  Location     Type
  4664 ;;                  1    wreg      enum E3121
  4665 ;; Registers used:
  4666 ;;		wreg, status,2
  4667 ;; Tracked objects:
  4668 ;;		On entry : 0/0
  4669 ;;		On exit  : 0/0
  4670 ;;		Unchanged: 0/0
  4671 ;; Data sizes:     COMRAM   BANK0   BANK1   BANK2   BANK3   BANK4   BANK5   BANK6   BANK7   BANK8   BANK9  BANK10  BANK1
      +1  BANK12  BANK13  BANK14  BANK15
  4672 ;;      Params:         0       0       0       0       0       0       0       0       0       0       0       0       
      +0       0       0       0       0
  4673 ;;      Locals:         0       0       0       0       0       0       0       0       0       0       0       0       
      +0       0       0       0       0
  4674 ;;      Temps:          0       0       0       0       0       0       0       0       0       0       0       0       
      +0       0       0       0       0
  4675 ;;      Totals:         0       0       0       0       0       0       0       0       0       0       0       0       
      +0       0       0       0       0
  4676 ;;Total ram usage:        0 bytes
  4677 ;; Hardware stack levels used: 1
  4678 ;; This function calls:
  4679 ;;		Nothing
  4680 ;; This function is called by:
  4681 ;;		_I2C_MasterFsm
  4682 ;; This function uses a non-reentrant model
  4683 ;;
  4684                           
  4685                           	psect	text47
  4686   001F7C                     __ptext47:
  4687                           	callstack 0
  4688   001F7C                     _I2C_DO_RESET:
  4689                           	callstack 18
  4690   001F7C                     
  4691                           ;mcc_generated_files/i2c_master.c: 497:     I2C_Status.busy = 0;
  4692   001F7C  0100               	movlb	0	; () banked
  4693   001F7E  93D9               	bcf	(_I2C_Status+35)& (0+255),1,b
  4694   001F80                     
  4695                           ; BSR set to: 0
  4696                           ;mcc_generated_files/i2c_master.c: 498:     I2C_Status.error = I2C_NOERR;
  4697   001F80  0E00               	movlw	0
  4698   001F82  6FD8               	movwf	(_I2C_Status+34)& (0+255),b
  4699   001F84                     
  4700                           ; BSR set to: 0
  4701                           ;mcc_generated_files/i2c_master.c: 499:     return I2C_RESET;
  4702   001F84  0E0E               	movlw	14
  4703   001F86                     
  4704                           ; BSR set to: 0
  4705   001F86  0012               	return		;funcret
  4706   001F88                     __end_of_I2C_DO_RESET:
  4707                           	callstack 0
  4708                           
  4709 ;; *************** function _I2C_DO_RX_NACK_RESTART *****************
  4710 ;; Defined at:
  4711 ;;		line 489 in file "mcc_generated_files/i2c_master.c"
  4712 ;; Parameters:    Size  Location     Type
  4713 ;;		None
  4714 ;; Auto vars:     Size  Location     Type
  4715 ;;		None
  4716 ;; Return value:  Size  Location     Type
  4717 ;;                  1    wreg      enum E3121
  4718 ;; Registers used:
  4719 ;;		wreg, cstack
  4720 ;; Tracked objects:
  4721 ;;		On entry : 0/0
  4722 ;;		On exit  : 0/0
  4723 ;;		Unchanged: 0/0
  4724 ;; Data sizes:     COMRAM   BANK0   BANK1   BANK2   BANK3   BANK4   BANK5   BANK6   BANK7   BANK8   BANK9  BANK10  BANK1
      +1  BANK12  BANK13  BANK14  BANK15
  4725 ;;      Params:         0       0       0       0       0       0       0       0       0       0       0       0       
      +0       0       0       0       0
  4726 ;;      Locals:         0       0       0       0       0       0       0       0       0       0       0       0       
      +0       0       0       0       0
  4727 ;;      Temps:          0       0       0       0       0       0       0       0       0       0       0       0       
      +0       0       0       0       0
  4728 ;;      Totals:         0       0       0       0       0       0       0       0       0       0       0       0       
      +0       0       0       0       0
  4729 ;;Total ram usage:        0 bytes
  4730 ;; Hardware stack levels used: 1
  4731 ;; Hardware stack levels required when called: 1
  4732 ;; This function calls:
  4733 ;;		_I2C_MasterSendNack
  4734 ;; This function is called by:
  4735 ;;		_I2C_DO_RX
  4736 ;;		_I2C_MasterFsm
  4737 ;; This function uses a non-reentrant model
  4738 ;;
  4739                           
  4740                           	psect	text48
  4741   001FDA                     __ptext48:
  4742                           	callstack 0
  4743   001FDA                     _I2C_DO_RX_NACK_RESTART:
  4744                           	callstack 17
  4745   001FDA                     
  4746                           ;mcc_generated_files/i2c_master.c: 491:     I2C_MasterSendNack();
  4747   001FDA  EC13  F010         	call	_I2C_MasterSendNack	;wreg free
  4748   001FDE                     
  4749                           ;mcc_generated_files/i2c_master.c: 492:     return I2C_SEND_RESTART;
  4750   001FDE  0E09               	movlw	9
  4751   001FE0  0012               	return		;funcret
  4752   001FE2                     __end_of_I2C_DO_RX_NACK_RESTART:
  4753                           	callstack 0
  4754                           
  4755 ;; *************** function _I2C_DO_RX_NACK_STOP *****************
  4756 ;; Defined at:
  4757 ;;		line 483 in file "mcc_generated_files/i2c_master.c"
  4758 ;; Parameters:    Size  Location     Type
  4759 ;;		None
  4760 ;; Auto vars:     Size  Location     Type
  4761 ;;		None
  4762 ;; Return value:  Size  Location     Type
  4763 ;;                  1    wreg      enum E3121
  4764 ;; Registers used:
  4765 ;;		wreg, cstack
  4766 ;; Tracked objects:
  4767 ;;		On entry : 0/0
  4768 ;;		On exit  : 0/0
  4769 ;;		Unchanged: 0/0
  4770 ;; Data sizes:     COMRAM   BANK0   BANK1   BANK2   BANK3   BANK4   BANK5   BANK6   BANK7   BANK8   BANK9  BANK10  BANK1
      +1  BANK12  BANK13  BANK14  BANK15
  4771 ;;      Params:         0       0       0       0       0       0       0       0       0       0       0       0       
      +0       0       0       0       0
  4772 ;;      Locals:         0       0       0       0       0       0       0       0       0       0       0       0       
      +0       0       0       0       0
  4773 ;;      Temps:          0       0       0       0       0       0       0       0       0       0       0       0       
      +0       0       0       0       0
  4774 ;;      Totals:         0       0       0       0       0       0       0       0       0       0       0       0       
      +0       0       0       0       0
  4775 ;;Total ram usage:        0 bytes
  4776 ;; Hardware stack levels used: 1
  4777 ;; Hardware stack levels required when called: 1
  4778 ;; This function calls:
  4779 ;;		_I2C_MasterSendNack
  4780 ;; This function is called by:
  4781 ;;		_I2C_DO_RX
  4782 ;;		_I2C_MasterFsm
  4783 ;; This function uses a non-reentrant model
  4784 ;;
  4785                           
  4786                           	psect	text49
  4787   001FE2                     __ptext49:
  4788                           	callstack 0
  4789   001FE2                     _I2C_DO_RX_NACK_STOP:
  4790                           	callstack 17
  4791   001FE2                     
  4792                           ;mcc_generated_files/i2c_master.c: 485:     I2C_MasterSendNack();
  4793   001FE2  EC13  F010         	call	_I2C_MasterSendNack	;wreg free
  4794   001FE6                     
  4795                           ;mcc_generated_files/i2c_master.c: 486:     return I2C_SEND_STOP;
  4796   001FE6  0E0A               	movlw	10
  4797   001FE8  0012               	return		;funcret
  4798   001FEA                     __end_of_I2C_DO_RX_NACK_STOP:
  4799                           	callstack 0
  4800                           
  4801 ;; *************** function _I2C_DO_RX_ACK *****************
  4802 ;; Defined at:
  4803 ;;		line 476 in file "mcc_generated_files/i2c_master.c"
  4804 ;; Parameters:    Size  Location     Type
  4805 ;;		None
  4806 ;; Auto vars:     Size  Location     Type
  4807 ;;		None
  4808 ;; Return value:  Size  Location     Type
  4809 ;;                  1    wreg      enum E3121
  4810 ;; Registers used:
  4811 ;;		wreg, cstack
  4812 ;; Tracked objects:
  4813 ;;		On entry : 0/0
  4814 ;;		On exit  : 0/0
  4815 ;;		Unchanged: 0/0
  4816 ;; Data sizes:     COMRAM   BANK0   BANK1   BANK2   BANK3   BANK4   BANK5   BANK6   BANK7   BANK8   BANK9  BANK10  BANK1
      +1  BANK12  BANK13  BANK14  BANK15
  4817 ;;      Params:         0       0       0       0       0       0       0       0       0       0       0       0       
      +0       0       0       0       0
  4818 ;;      Locals:         0       0       0       0       0       0       0       0       0       0       0       0       
      +0       0       0       0       0
  4819 ;;      Temps:          0       0       0       0       0       0       0       0       0       0       0       0       
      +0       0       0       0       0
  4820 ;;      Totals:         0       0       0       0       0       0       0       0       0       0       0       0       
      +0       0       0       0       0
  4821 ;;Total ram usage:        0 bytes
  4822 ;; Hardware stack levels used: 1
  4823 ;; Hardware stack levels required when called: 1
  4824 ;; This function calls:
  4825 ;;		_I2C_MasterSendAck
  4826 ;; This function is called by:
  4827 ;;		_I2C_MasterFsm
  4828 ;; This function uses a non-reentrant model
  4829 ;;
  4830                           
  4831                           	psect	text50
  4832   001FEA                     __ptext50:
  4833                           	callstack 0
  4834   001FEA                     _I2C_DO_RX_ACK:
  4835                           	callstack 17
  4836   001FEA                     
  4837                           ;mcc_generated_files/i2c_master.c: 478:     I2C_MasterSendAck();
  4838   001FEA  EC10  F010         	call	_I2C_MasterSendAck	;wreg free
  4839   001FEE                     
  4840                           ;mcc_generated_files/i2c_master.c: 479:     return I2C_RCEN;
  4841   001FEE  0E05               	movlw	5
  4842   001FF0  0012               	return		;funcret
  4843   001FF2                     __end_of_I2C_DO_RX_ACK:
  4844                           	callstack 0
  4845                           
  4846 ;; *************** function _I2C_DO_SEND_STOP *****************
  4847 ;; Defined at:
  4848 ;;		line 470 in file "mcc_generated_files/i2c_master.c"
  4849 ;; Parameters:    Size  Location     Type
  4850 ;;		None
  4851 ;; Auto vars:     Size  Location     Type
  4852 ;;		None
  4853 ;; Return value:  Size  Location     Type
  4854 ;;                  1    wreg      enum E3121
  4855 ;; Registers used:
  4856 ;;		wreg, cstack
  4857 ;; Tracked objects:
  4858 ;;		On entry : 0/0
  4859 ;;		On exit  : 0/0
  4860 ;;		Unchanged: 0/0
  4861 ;; Data sizes:     COMRAM   BANK0   BANK1   BANK2   BANK3   BANK4   BANK5   BANK6   BANK7   BANK8   BANK9  BANK10  BANK1
      +1  BANK12  BANK13  BANK14  BANK15
  4862 ;;      Params:         0       0       0       0       0       0       0       0       0       0       0       0       
      +0       0       0       0       0
  4863 ;;      Locals:         0       0       0       0       0       0       0       0       0       0       0       0       
      +0       0       0       0       0
  4864 ;;      Temps:          0       0       0       0       0       0       0       0       0       0       0       0       
      +0       0       0       0       0
  4865 ;;      Totals:         0       0       0       0       0       0       0       0       0       0       0       0       
      +0       0       0       0       0
  4866 ;;Total ram usage:        0 bytes
  4867 ;; Hardware stack levels used: 1
  4868 ;; Hardware stack levels required when called: 1
  4869 ;; This function calls:
  4870 ;;		_I2C_MasterStop
  4871 ;; This function is called by:
  4872 ;;		_I2C_DO_TX
  4873 ;;		_I2C_DO_TX_EMPTY
  4874 ;;		_I2C_DO_ADDRESS_NACK
  4875 ;;		_I2C_MasterFsm
  4876 ;; This function uses a non-reentrant model
  4877 ;;
  4878                           
  4879                           	psect	text51
  4880   001FF2                     __ptext51:
  4881                           	callstack 0
  4882   001FF2                     _I2C_DO_SEND_STOP:
  4883                           	callstack 16
  4884   001FF2                     
  4885                           ;mcc_generated_files/i2c_master.c: 472:     I2C_MasterStop();
  4886   001FF2  EC2E  F010         	call	_I2C_MasterStop	;wreg free
  4887   001FF6                     
  4888                           ;mcc_generated_files/i2c_master.c: 473:     return I2C_IDLE;
  4889   001FF6  0E00               	movlw	0
  4890   001FF8  0012               	return		;funcret
  4891   001FFA                     __end_of_I2C_DO_SEND_STOP:
  4892                           	callstack 0
  4893                           
  4894 ;; *************** function _I2C_DO_SEND_RESTART *****************
  4895 ;; Defined at:
  4896 ;;		line 464 in file "mcc_generated_files/i2c_master.c"
  4897 ;; Parameters:    Size  Location     Type
  4898 ;;		None
  4899 ;; Auto vars:     Size  Location     Type
  4900 ;;		None
  4901 ;; Return value:  Size  Location     Type
  4902 ;;                  1    wreg      enum E3121
  4903 ;; Registers used:
  4904 ;;		wreg, cstack
  4905 ;; Tracked objects:
  4906 ;;		On entry : 0/0
  4907 ;;		On exit  : 0/0
  4908 ;;		Unchanged: 0/0
  4909 ;; Data sizes:     COMRAM   BANK0   BANK1   BANK2   BANK3   BANK4   BANK5   BANK6   BANK7   BANK8   BANK9  BANK10  BANK1
      +1  BANK12  BANK13  BANK14  BANK15
  4910 ;;      Params:         0       0       0       0       0       0       0       0       0       0       0       0       
      +0       0       0       0       0
  4911 ;;      Locals:         0       0       0       0       0       0       0       0       0       0       0       0       
      +0       0       0       0       0
  4912 ;;      Temps:          0       0       0       0       0       0       0       0       0       0       0       0       
      +0       0       0       0       0
  4913 ;;      Totals:         0       0       0       0       0       0       0       0       0       0       0       0       
      +0       0       0       0       0
  4914 ;;Total ram usage:        0 bytes
  4915 ;; Hardware stack levels used: 1
  4916 ;; Hardware stack levels required when called: 1
  4917 ;; This function calls:
  4918 ;;		_I2C_MasterEnableRestart
  4919 ;; This function is called by:
  4920 ;;		_I2C_DO_TX_EMPTY
  4921 ;;		_I2C_DO_ADDRESS_NACK
  4922 ;;		_I2C_MasterFsm
  4923 ;; This function uses a non-reentrant model
  4924 ;;
  4925                           
  4926                           	psect	text52
  4927   001FFA                     __ptext52:
  4928                           	callstack 0
  4929   001FFA                     _I2C_DO_SEND_RESTART:
  4930                           	callstack 16
  4931   001FFA                     
  4932                           ;mcc_generated_files/i2c_master.c: 466:     I2C_MasterEnableRestart();
  4933   001FFA  EC30  F010         	call	_I2C_MasterEnableRestart	;wreg free
  4934   001FFE                     
  4935                           ;mcc_generated_files/i2c_master.c: 467:     return I2C_SEND_ADR_READ;
  4936   001FFE  0E01               	movlw	1
  4937   002000  0012               	return		;funcret
  4938   002002                     __end_of_I2C_DO_SEND_RESTART:
  4939                           	callstack 0
  4940                           
  4941 ;; *************** function _I2C_DO_SEND_RESTART_WRITE *****************
  4942 ;; Defined at:
  4943 ;;		line 457 in file "mcc_generated_files/i2c_master.c"
  4944 ;; Parameters:    Size  Location     Type
  4945 ;;		None
  4946 ;; Auto vars:     Size  Location     Type
  4947 ;;		None
  4948 ;; Return value:  Size  Location     Type
  4949 ;;                  1    wreg      enum E3121
  4950 ;; Registers used:
  4951 ;;		wreg, cstack
  4952 ;; Tracked objects:
  4953 ;;		On entry : 0/0
  4954 ;;		On exit  : 0/0
  4955 ;;		Unchanged: 0/0
  4956 ;; Data sizes:     COMRAM   BANK0   BANK1   BANK2   BANK3   BANK4   BANK5   BANK6   BANK7   BANK8   BANK9  BANK10  BANK1
      +1  BANK12  BANK13  BANK14  BANK15
  4957 ;;      Params:         0       0       0       0       0       0       0       0       0       0       0       0       
      +0       0       0       0       0
  4958 ;;      Locals:         0       0       0       0       0       0       0       0       0       0       0       0       
      +0       0       0       0       0
  4959 ;;      Temps:          0       0       0       0       0       0       0       0       0       0       0       0       
      +0       0       0       0       0
  4960 ;;      Totals:         0       0       0       0       0       0       0       0       0       0       0       0       
      +0       0       0       0       0
  4961 ;;Total ram usage:        0 bytes
  4962 ;; Hardware stack levels used: 1
  4963 ;; Hardware stack levels required when called: 1
  4964 ;; This function calls:
  4965 ;;		_I2C_MasterEnableRestart
  4966 ;; This function is called by:
  4967 ;;		_I2C_DO_TX
  4968 ;;		_I2C_MasterFsm
  4969 ;; This function uses a non-reentrant model
  4970 ;;
  4971                           
  4972                           	psect	text53
  4973   002002                     __ptext53:
  4974                           	callstack 0
  4975   002002                     _I2C_DO_SEND_RESTART_WRITE:
  4976                           	callstack 16
  4977   002002                     
  4978                           ;mcc_generated_files/i2c_master.c: 459:     I2C_MasterEnableRestart();
  4979   002002  EC30  F010         	call	_I2C_MasterEnableRestart	;wreg free
  4980   002006                     
  4981                           ;mcc_generated_files/i2c_master.c: 460:     return I2C_SEND_ADR_WRITE;
  4982   002006  0E02               	movlw	2
  4983   002008  0012               	return		;funcret
  4984   00200A                     __end_of_I2C_DO_SEND_RESTART_WRITE:
  4985                           	callstack 0
  4986                           
  4987 ;; *************** function _I2C_DO_SEND_RESTART_READ *****************
  4988 ;; Defined at:
  4989 ;;		line 451 in file "mcc_generated_files/i2c_master.c"
  4990 ;; Parameters:    Size  Location     Type
  4991 ;;		None
  4992 ;; Auto vars:     Size  Location     Type
  4993 ;;		None
  4994 ;; Return value:  Size  Location     Type
  4995 ;;                  1    wreg      enum E3121
  4996 ;; Registers used:
  4997 ;;		wreg, cstack
  4998 ;; Tracked objects:
  4999 ;;		On entry : 0/0
  5000 ;;		On exit  : 0/0
  5001 ;;		Unchanged: 0/0
  5002 ;; Data sizes:     COMRAM   BANK0   BANK1   BANK2   BANK3   BANK4   BANK5   BANK6   BANK7   BANK8   BANK9  BANK10  BANK1
      +1  BANK12  BANK13  BANK14  BANK15
  5003 ;;      Params:         0       0       0       0       0       0       0       0       0       0       0       0       
      +0       0       0       0       0
  5004 ;;      Locals:         0       0       0       0       0       0       0       0       0       0       0       0       
      +0       0       0       0       0
  5005 ;;      Temps:          0       0       0       0       0       0       0       0       0       0       0       0       
      +0       0       0       0       0
  5006 ;;      Totals:         0       0       0       0       0       0       0       0       0       0       0       0       
      +0       0       0       0       0
  5007 ;;Total ram usage:        0 bytes
  5008 ;; Hardware stack levels used: 1
  5009 ;; Hardware stack levels required when called: 1
  5010 ;; This function calls:
  5011 ;;		_I2C_MasterEnableRestart
  5012 ;; This function is called by:
  5013 ;;		_I2C_DO_TX
  5014 ;;		_I2C_MasterFsm
  5015 ;; This function uses a non-reentrant model
  5016 ;;
  5017                           
  5018                           	psect	text54
  5019   00200A                     __ptext54:
  5020                           	callstack 0
  5021   00200A                     _I2C_DO_SEND_RESTART_READ:
  5022                           	callstack 16
  5023   00200A                     
  5024                           ;mcc_generated_files/i2c_master.c: 453:     I2C_MasterEnableRestart();
  5025   00200A  EC30  F010         	call	_I2C_MasterEnableRestart	;wreg free
  5026   00200E                     
  5027                           ;mcc_generated_files/i2c_master.c: 454:     return I2C_SEND_ADR_READ;
  5028   00200E  0E01               	movlw	1
  5029   002010  0012               	return		;funcret
  5030   002012                     __end_of_I2C_DO_SEND_RESTART_READ:
  5031                           	callstack 0
  5032                           
  5033 ;; *************** function _I2C_DO_RCEN *****************
  5034 ;; Defined at:
  5035 ;;		line 404 in file "mcc_generated_files/i2c_master.c"
  5036 ;; Parameters:    Size  Location     Type
  5037 ;;		None
  5038 ;; Auto vars:     Size  Location     Type
  5039 ;;		None
  5040 ;; Return value:  Size  Location     Type
  5041 ;;                  1    wreg      enum E3121
  5042 ;; Registers used:
  5043 ;;		wreg, cstack
  5044 ;; Tracked objects:
  5045 ;;		On entry : 0/0
  5046 ;;		On exit  : 0/0
  5047 ;;		Unchanged: 0/0
  5048 ;; Data sizes:     COMRAM   BANK0   BANK1   BANK2   BANK3   BANK4   BANK5   BANK6   BANK7   BANK8   BANK9  BANK10  BANK1
      +1  BANK12  BANK13  BANK14  BANK15
  5049 ;;      Params:         0       0       0       0       0       0       0       0       0       0       0       0       
      +0       0       0       0       0
  5050 ;;      Locals:         0       0       0       0       0       0       0       0       0       0       0       0       
      +0       0       0       0       0
  5051 ;;      Temps:          0       0       0       0       0       0       0       0       0       0       0       0       
      +0       0       0       0       0
  5052 ;;      Totals:         0       0       0       0       0       0       0       0       0       0       0       0       
      +0       0       0       0       0
  5053 ;;Total ram usage:        0 bytes
  5054 ;; Hardware stack levels used: 1
  5055 ;; Hardware stack levels required when called: 1
  5056 ;; This function calls:
  5057 ;;		_I2C_MasterStartRx
  5058 ;; This function is called by:
  5059 ;;		_I2C_MasterFsm
  5060 ;; This function uses a non-reentrant model
  5061 ;;
  5062                           
  5063                           	psect	text55
  5064   001F88                     __ptext55:
  5065                           	callstack 0
  5066   001F88                     _I2C_DO_RCEN:
  5067                           	callstack 17
  5068   001F88                     
  5069                           ;mcc_generated_files/i2c_master.c: 406:     I2C_Status.addressNackCheck = 0;
  5070   001F88  0100               	movlb	0	; () banked
  5071   001F8A  91D9               	bcf	(_I2C_Status+35)& (0+255),0,b
  5072   001F8C                     
  5073                           ; BSR set to: 0
  5074                           ;mcc_generated_files/i2c_master.c: 407:     I2C_MasterStartRx();
  5075   001F8C  EC28  F010         	call	_I2C_MasterStartRx	;wreg free
  5076   001F90                     
  5077                           ;mcc_generated_files/i2c_master.c: 408:     return I2C_RX;
  5078   001F90  0E04               	movlw	4
  5079   001F92  0012               	return		;funcret
  5080   001F94                     __end_of_I2C_DO_RCEN:
  5081                           	callstack 0
  5082                           
  5083 ;; *************** function _I2C_DO_RX *****************
  5084 ;; Defined at:
  5085 ;;		line 380 in file "mcc_generated_files/i2c_master.c"
  5086 ;; Parameters:    Size  Location     Type
  5087 ;;		None
  5088 ;; Auto vars:     Size  Location     Type
  5089 ;;		None
  5090 ;; Return value:  Size  Location     Type
  5091 ;;                  1    wreg      enum E3121
  5092 ;; Registers used:
  5093 ;;		wreg, fsr2l, fsr2h, status,2, status,0, pcl, pclath, pclatu, tosl, prodl, prodh, cstack
  5094 ;; Tracked objects:
  5095 ;;		On entry : 0/0
  5096 ;;		On exit  : 0/0
  5097 ;;		Unchanged: 0/0
  5098 ;; Data sizes:     COMRAM   BANK0   BANK1   BANK2   BANK3   BANK4   BANK5   BANK6   BANK7   BANK8   BANK9  BANK10  BANK1
      +1  BANK12  BANK13  BANK14  BANK15
  5099 ;;      Params:         0       0       0       0       0       0       0       0       0       0       0       0       
      +0       0       0       0       0
  5100 ;;      Locals:         0       0       0       0       0       0       0       0       0       0       0       0       
      +0       0       0       0       0
  5101 ;;      Temps:          2       0       0       0       0       0       0       0       0       0       0       0       
      +0       0       0       0       0
  5102 ;;      Totals:         2       0       0       0       0       0       0       0       0       0       0       0       
      +0       0       0       0       0
  5103 ;;Total ram usage:        2 bytes
  5104 ;; Hardware stack levels used: 1
  5105 ;; Hardware stack levels required when called: 3
  5106 ;; This function calls:
  5107 ;;		NULL
  5108 ;;		_I2C_CallbackReturnReset
  5109 ;;		_I2C_CallbackReturnStop
  5110 ;;		_I2C_DO_RX_NACK_RESTART
  5111 ;;		_I2C_DO_RX_NACK_STOP
  5112 ;;		_I2C_MasterGetRxData
  5113 ;;		_I2C_MasterSendAck
  5114 ;;		_rd1RegCompleteHandler
  5115 ;;		_rd2RegCompleteHandler
  5116 ;;		_rdBlkRegCompleteHandler
  5117 ;;		_wr1RegCompleteHandler
  5118 ;;		_wr2RegCompleteHandler
  5119 ;; This function is called by:
  5120 ;;		_I2C_MasterFsm
  5121 ;; This function uses a non-reentrant model
  5122 ;;
  5123                           
  5124                           	psect	text56
  5125   0014E8                     __ptext56:
  5126                           	callstack 0
  5127   0014E8                     _I2C_DO_RX:
  5128                           	callstack 15
  5129   0014E8                     
  5130                           ;mcc_generated_files/i2c_master.c: 382:     *I2C_Status.data_ptr++ = I2C_MasterGetRxData
      +                          ();
  5131   0014E8  EC26  F010         	call	_I2C_MasterGetRxData	;wreg free
  5132   0014EC  C0D3  FFD9         	movff	_I2C_Status+29,fsr2l
  5133   0014F0  C0D4  FFDA         	movff	_I2C_Status+30,fsr2h
  5134   0014F4  6EDF               	movwf	indf2,c
  5135   0014F6  0100               	movlb	0	; () banked
  5136   0014F8  4BD3               	infsnz	(_I2C_Status+29)& (0+255),f,b
  5137   0014FA  2BD4               	incf	(_I2C_Status+30)& (0+255),f,b
  5138   0014FC                     
  5139                           ; BSR set to: 0
  5140                           ;mcc_generated_files/i2c_master.c: 383:     if(--I2C_Status.data_length)
  5141   0014FC  07D5               	decf	(_I2C_Status+31)& (0+255),f,b
  5142   0014FE  A0D8               	btfss	status,0,c
  5143   001500  07D6               	decf	(_I2C_Status+32)& (0+255),f,b
  5144   001502  51D5               	movf	(_I2C_Status+31)& (0+255),w,b
  5145   001504  11D6               	iorwf	(_I2C_Status+32)& (0+255),w,b
  5146   001506  B4D8               	btfsc	status,2,c
  5147   001508  EF88  F00A         	goto	i2u110_41
  5148   00150C  EF8A  F00A         	goto	i2u110_40
  5149   001510                     i2u110_41:
  5150   001510  EF8F  F00A         	goto	i2l557
  5151   001514                     i2u110_40:
  5152   001514                     
  5153                           ; BSR set to: 0
  5154                           ;mcc_generated_files/i2c_master.c: 384:     {;mcc_generated_files/i2c_master.c: 385:    
      +                               I2C_MasterSendAck();
  5155   001514  EC10  F010         	call	_I2C_MasterSendAck	;wreg free
  5156   001518                     
  5157                           ;mcc_generated_files/i2c_master.c: 386:         return I2C_RCEN;
  5158   001518  0E05               	movlw	5
  5159   00151A  EFC6  F00A         	goto	i2l558
  5160   00151E                     i2l557:
  5161                           
  5162                           ; BSR set to: 0
  5163                           ;mcc_generated_files/i2c_master.c: 389:     {;mcc_generated_files/i2c_master.c: 390:    
      +                               I2C_Status.bufferFree = 1;
  5164   00151E  87D9               	bsf	(_I2C_Status+35)& (0+255),3,b
  5165                           
  5166                           ;mcc_generated_files/i2c_master.c: 391:         switch(I2C_Status.callbackTable[I2C_DATA
      +                          _COMPLETE](I2C_Status.callbackPayload[I2C_DATA_COMPLETE]))
  5167   001520  EF9A  F00A         	goto	i2l3108
  5168   001524                     i2l3098:
  5169                           
  5170                           ;mcc_generated_files/i2c_master.c: 395:                 return I2C_DO_RX_NACK_RESTART();
  5171   001524  ECED  F00F         	call	_I2C_DO_RX_NACK_RESTART	;wreg free
  5172   001528  EFC6  F00A         	goto	i2l558
  5173   00152C                     i2l3102:
  5174                           
  5175                           ;mcc_generated_files/i2c_master.c: 399:                 return I2C_DO_RX_NACK_STOP();
  5176   00152C  ECF1  F00F         	call	_I2C_DO_RX_NACK_STOP	;wreg free
  5177   001530  EFC6  F00A         	goto	i2l558
  5178   001534                     i2l3108:
  5179                           
  5180                           ; BSR set to: 0
  5181   001534  C0C2  F00A         	movff	_I2C_Status+12,I2C_CallbackReturnReset@funPtr
  5182   001538  C0C3  F00B         	movff	_I2C_Status+13,I2C_CallbackReturnReset@funPtr+1
  5183   00153C  D802               	call	i2u111_48
  5184   00153E  EFAA  F00A         	goto	i2u111_49
  5185   001542                     i2u111_48:
  5186   001542  0005               	push	
  5187   001544  6EFA               	movwf	pclath,c
  5188   001546  51B6               	movf	_I2C_Status& (0+255),w,b
  5189   001548  6EFD               	movwf	tosl,c
  5190   00154A  51B7               	movf	(_I2C_Status+1)& (0+255),w,b
  5191   00154C  6EFE               	movwf	tosh,c
  5192   00154E  6AFF               	clrf	tosu,c
  5193   001550  50FA               	movf	pclath,w,c
  5194   001552  0012               	return		;indir
  5195   001554                     i2u111_49:
  5196   001554  6E0C               	movwf	??_I2C_DO_RX^0,c
  5197   001556  6A0D               	clrf	(??_I2C_DO_RX+1)^0,c
  5198                           
  5199                           ; Switch on 2 bytes has been partitioned into a top level switch of size 1, and 1 sub-sw
      +                          itches
  5200                           ; Switch size 1, requested type "simple"
  5201                           ; Number of cases is 1, Range of values is 0 to 0
  5202                           ; switch strategies available:
  5203                           ; Name         Instructions Cycles
  5204                           ; simple_byte            4     3 (average)
  5205                           ;	Chosen strategy is simple_byte
  5206   001558  500D               	movf	(??_I2C_DO_RX+1)^0,w,c
  5207   00155A  0A00               	xorlw	0	; case 0
  5208   00155C  B4D8               	btfsc	status,2,c
  5209   00155E  EFB3  F00A         	goto	i2l4124
  5210   001562  EF96  F00A         	goto	i2l3102
  5211   001566                     i2l4124:
  5212                           
  5213                           ; Switch size 1, requested type "simple"
  5214                           ; Number of cases is 4, Range of values is 1 to 4
  5215                           ; switch strategies available:
  5216                           ; Name         Instructions Cycles
  5217                           ; simple_byte           13     7 (average)
  5218                           ;	Chosen strategy is simple_byte
  5219   001566  500C               	movf	??_I2C_DO_RX^0,w,c
  5220   001568  0A01               	xorlw	1	; case 1
  5221   00156A  B4D8               	btfsc	status,2,c
  5222   00156C  EF96  F00A         	goto	i2l3102
  5223   001570  0A03               	xorlw	3	; case 2
  5224   001572  B4D8               	btfsc	status,2,c
  5225   001574  EF92  F00A         	goto	i2l3098
  5226   001578  0A01               	xorlw	1	; case 3
  5227   00157A  B4D8               	btfsc	status,2,c
  5228   00157C  EF92  F00A         	goto	i2l3098
  5229   001580  0A07               	xorlw	7	; case 4
  5230   001582  B4D8               	btfsc	status,2,c
  5231   001584  EF96  F00A         	goto	i2l3102
  5232   001588  EF96  F00A         	goto	i2l3102
  5233   00158C                     i2l558:
  5234   00158C  0012               	return		;funcret
  5235   00158E                     __end_of_I2C_DO_RX:
  5236                           	callstack 0
  5237                           
  5238 ;; *************** function _I2C_DO_TX *****************
  5239 ;; Defined at:
  5240 ;;		line 356 in file "mcc_generated_files/i2c_master.c"
  5241 ;; Parameters:    Size  Location     Type
  5242 ;;		None
  5243 ;; Auto vars:     Size  Location     Type
  5244 ;;		None
  5245 ;; Return value:  Size  Location     Type
  5246 ;;                  1    wreg      enum E3121
  5247 ;; Registers used:
  5248 ;;		wreg, fsr2l, fsr2h, status,2, status,0, pcl, pclath, pclatu, tosl, prodl, prodh, cstack
  5249 ;; Tracked objects:
  5250 ;;		On entry : 0/0
  5251 ;;		On exit  : 0/0
  5252 ;;		Unchanged: 0/0
  5253 ;; Data sizes:     COMRAM   BANK0   BANK1   BANK2   BANK3   BANK4   BANK5   BANK6   BANK7   BANK8   BANK9  BANK10  BANK1
      +1  BANK12  BANK13  BANK14  BANK15
  5254 ;;      Params:         0       0       0       0       0       0       0       0       0       0       0       0       
      +0       0       0       0       0
  5255 ;;      Locals:         0       0       0       0       0       0       0       0       0       0       0       0       
      +0       0       0       0       0
  5256 ;;      Temps:          2       0       0       0       0       0       0       0       0       0       0       0       
      +0       0       0       0       0
  5257 ;;      Totals:         2       0       0       0       0       0       0       0       0       0       0       0       
      +0       0       0       0       0
  5258 ;;Total ram usage:        2 bytes
  5259 ;; Hardware stack levels used: 1
  5260 ;; Hardware stack levels required when called: 3
  5261 ;; This function calls:
  5262 ;;		NULL
  5263 ;;		_I2C_CallbackReturnReset
  5264 ;;		_I2C_CallbackReturnStop
  5265 ;;		_I2C_DO_SEND_RESTART_READ
  5266 ;;		_I2C_DO_SEND_RESTART_WRITE
  5267 ;;		_I2C_DO_SEND_STOP
  5268 ;;		_I2C_MasterIsNack
  5269 ;;		_I2C_MasterSendTxData
  5270 ;;		_rd1RegCompleteHandler
  5271 ;;		_rd2RegCompleteHandler
  5272 ;;		_rdBlkRegCompleteHandler
  5273 ;;		_wr1RegCompleteHandler
  5274 ;;		_wr2RegCompleteHandler
  5275 ;; This function is called by:
  5276 ;;		_I2C_MasterFsm
  5277 ;; This function uses a non-reentrant model
  5278 ;;
  5279                           
  5280                           	psect	text57
  5281   00136E                     __ptext57:
  5282                           	callstack 0
  5283   00136E                     _I2C_DO_TX:
  5284                           	callstack 15
  5285   00136E                     
  5286                           ;mcc_generated_files/i2c_master.c: 358:     if(I2C_MasterIsNack())
  5287   00136E  EC96  F00F         	call	_I2C_MasterIsNack	;wreg free
  5288   001372  0900               	iorlw	0
  5289   001374  B4D8               	btfsc	status,2,c
  5290   001376  EFBF  F009         	goto	i2u107_41
  5291   00137A  EFC1  F009         	goto	i2u107_40
  5292   00137E                     i2u107_41:
  5293   00137E  EFFC  F009         	goto	i2l541
  5294   001382                     i2u107_40:
  5295   001382  EFCF  F009         	goto	i2l3068
  5296   001386                     i2l3054:
  5297                           
  5298                           ;mcc_generated_files/i2c_master.c: 363:                 return I2C_DO_SEND_RESTART_READ(
      +                          );
  5299   001386  EC05  F010         	call	_I2C_DO_SEND_RESTART_READ	;wreg free
  5300   00138A  EF18  F00A         	goto	i2l544
  5301   00138E                     i2l3058:
  5302                           
  5303                           ;mcc_generated_files/i2c_master.c: 365:                   return I2C_DO_SEND_RESTART_WRI
      +                          TE();
  5304   00138E  EC01  F010         	call	_I2C_DO_SEND_RESTART_WRITE	;wreg free
  5305   001392  EF18  F00A         	goto	i2l544
  5306   001396                     i2l3062:
  5307                           
  5308                           ;mcc_generated_files/i2c_master.c: 369:                 return I2C_DO_SEND_STOP();
  5309   001396  ECF9  F00F         	call	_I2C_DO_SEND_STOP	;wreg free
  5310   00139A  EF18  F00A         	goto	i2l544
  5311   00139E                     i2l3068:
  5312   00139E  C0C8  F00A         	movff	_I2C_Status+18,I2C_CallbackReturnReset@funPtr
  5313   0013A2  C0C9  F00B         	movff	_I2C_Status+19,I2C_CallbackReturnReset@funPtr+1
  5314   0013A6  D802               	call	i2u108_48
  5315   0013A8  EFE0  F009         	goto	i2u108_49
  5316   0013AC                     i2u108_48:
  5317   0013AC  0005               	push	
  5318   0013AE  6EFA               	movwf	pclath,c
  5319   0013B0  0100               	movlb	0	; () banked
  5320   0013B2  51BC               	movf	(_I2C_Status+6)& (0+255),w,b
  5321   0013B4  6EFD               	movwf	tosl,c
  5322   0013B6  51BD               	movf	(_I2C_Status+7)& (0+255),w,b
  5323   0013B8  6EFE               	movwf	tosh,c
  5324   0013BA  6AFF               	clrf	tosu,c
  5325   0013BC  50FA               	movf	pclath,w,c
  5326   0013BE  0012               	return		;indir
  5327   0013C0                     i2u108_49:
  5328   0013C0  6E0C               	movwf	??_I2C_DO_TX^0,c
  5329   0013C2  6A0D               	clrf	(??_I2C_DO_TX+1)^0,c
  5330                           
  5331                           ; Switch on 2 bytes has been partitioned into a top level switch of size 1, and 1 sub-sw
      +                          itches
  5332                           ; Switch size 1, requested type "simple"
  5333                           ; Number of cases is 1, Range of values is 0 to 0
  5334                           ; switch strategies available:
  5335                           ; Name         Instructions Cycles
  5336                           ; simple_byte            4     3 (average)
  5337                           ;	Chosen strategy is simple_byte
  5338   0013C4  500D               	movf	(??_I2C_DO_TX+1)^0,w,c
  5339   0013C6  0A00               	xorlw	0	; case 0
  5340   0013C8  B4D8               	btfsc	status,2,c
  5341   0013CA  EFE9  F009         	goto	i2l4126
  5342   0013CE  EFCB  F009         	goto	i2l3062
  5343   0013D2                     i2l4126:
  5344                           
  5345                           ; Switch size 1, requested type "simple"
  5346                           ; Number of cases is 4, Range of values is 1 to 4
  5347                           ; switch strategies available:
  5348                           ; Name         Instructions Cycles
  5349                           ; simple_byte           13     7 (average)
  5350                           ;	Chosen strategy is simple_byte
  5351   0013D2  500C               	movf	??_I2C_DO_TX^0,w,c
  5352   0013D4  0A01               	xorlw	1	; case 1
  5353   0013D6  B4D8               	btfsc	status,2,c
  5354   0013D8  EFCB  F009         	goto	i2l3062
  5355   0013DC  0A03               	xorlw	3	; case 2
  5356   0013DE  B4D8               	btfsc	status,2,c
  5357   0013E0  EFC3  F009         	goto	i2l3054
  5358   0013E4  0A01               	xorlw	1	; case 3
  5359   0013E6  B4D8               	btfsc	status,2,c
  5360   0013E8  EFC7  F009         	goto	i2l3058
  5361   0013EC  0A07               	xorlw	7	; case 4
  5362   0013EE  B4D8               	btfsc	status,2,c
  5363   0013F0  EFCB  F009         	goto	i2l3062
  5364   0013F4  EFCB  F009         	goto	i2l3062
  5365   0013F8                     i2l541:
  5366                           
  5367                           ;mcc_generated_files/i2c_master.c: 373:     {;mcc_generated_files/i2c_master.c: 374:    
      +                               I2C_Status.addressNackCheck = 0;
  5368   0013F8  0100               	movlb	0	; () banked
  5369   0013FA  91D9               	bcf	(_I2C_Status+35)& (0+255),0,b
  5370   0013FC                     
  5371                           ; BSR set to: 0
  5372                           ;mcc_generated_files/i2c_master.c: 375:         I2C_MasterSendTxData(*I2C_Status.data_pt
      +                          r++);
  5373   0013FC  C0D3  FFD9         	movff	_I2C_Status+29,fsr2l
  5374   001400  C0D4  FFDA         	movff	_I2C_Status+30,fsr2h
  5375   001404  4BD3               	infsnz	(_I2C_Status+29)& (0+255),f,b
  5376   001406  2BD4               	incf	(_I2C_Status+30)& (0+255),f,b
  5377   001408  50DF               	movf	indf2,w,c
  5378   00140A  EC09  F010         	call	_I2C_MasterSendTxData
  5379   00140E                     
  5380                           ;mcc_generated_files/i2c_master.c: 376:         return (--I2C_Status.data_length)?I2C_TX
      +                          :I2C_TX_EMPTY;
  5381   00140E  0100               	movlb	0	; () banked
  5382   001410  07D5               	decf	(_I2C_Status+31)& (0+255),f,b
  5383   001412  A0D8               	btfss	status,0,c
  5384   001414  07D6               	decf	(_I2C_Status+32)& (0+255),f,b
  5385   001416  51D5               	movf	(_I2C_Status+31)& (0+255),w,b
  5386   001418  11D6               	iorwf	(_I2C_Status+32)& (0+255),w,b
  5387   00141A  A4D8               	btfss	status,2,c
  5388   00141C  EF12  F00A         	goto	i2u109_41
  5389   001420  EF14  F00A         	goto	i2u109_40
  5390   001424                     i2u109_41:
  5391   001424  EF17  F00A         	goto	i2l3076
  5392   001428                     i2u109_40:
  5393   001428                     
  5394                           ; BSR set to: 0
  5395   001428  0E06               	movlw	6
  5396   00142A  EF18  F00A         	goto	i2l544
  5397   00142E                     i2l3076:
  5398                           
  5399                           ; BSR set to: 0
  5400   00142E  0E03               	movlw	3
  5401   001430                     i2l544:
  5402   001430  0012               	return		;funcret
  5403   001432                     __end_of_I2C_DO_TX:
  5404                           	callstack 0
  5405                           
  5406 ;; *************** function _I2C_DO_SEND_ADR_WRITE *****************
  5407 ;; Defined at:
  5408 ;;		line 349 in file "mcc_generated_files/i2c_master.c"
  5409 ;; Parameters:    Size  Location     Type
  5410 ;;		None
  5411 ;; Auto vars:     Size  Location     Type
  5412 ;;		None
  5413 ;; Return value:  Size  Location     Type
  5414 ;;                  1    wreg      enum E3121
  5415 ;; Registers used:
  5416 ;;		wreg, status,2, status,0, cstack
  5417 ;; Tracked objects:
  5418 ;;		On entry : 0/0
  5419 ;;		On exit  : 0/0
  5420 ;;		Unchanged: 0/0
  5421 ;; Data sizes:     COMRAM   BANK0   BANK1   BANK2   BANK3   BANK4   BANK5   BANK6   BANK7   BANK8   BANK9  BANK10  BANK1
      +1  BANK12  BANK13  BANK14  BANK15
  5422 ;;      Params:         0       0       0       0       0       0       0       0       0       0       0       0       
      +0       0       0       0       0
  5423 ;;      Locals:         0       0       0       0       0       0       0       0       0       0       0       0       
      +0       0       0       0       0
  5424 ;;      Temps:          0       0       0       0       0       0       0       0       0       0       0       0       
      +0       0       0       0       0
  5425 ;;      Totals:         0       0       0       0       0       0       0       0       0       0       0       0       
      +0       0       0       0       0
  5426 ;;Total ram usage:        0 bytes
  5427 ;; Hardware stack levels used: 1
  5428 ;; Hardware stack levels required when called: 1
  5429 ;; This function calls:
  5430 ;;		_I2C_MasterSendTxData
  5431 ;; This function is called by:
  5432 ;;		_I2C_MasterFsm
  5433 ;; This function uses a non-reentrant model
  5434 ;;
  5435                           
  5436                           	psect	text58
  5437   001F40                     __ptext58:
  5438                           	callstack 0
  5439   001F40                     _I2C_DO_SEND_ADR_WRITE:
  5440                           	callstack 17
  5441   001F40                     
  5442                           ;mcc_generated_files/i2c_master.c: 351:     I2C_Status.addressNackCheck = 1;
  5443   001F40  0100               	movlb	0	; () banked
  5444   001F42  81D9               	bsf	(_I2C_Status+35)& (0+255),0,b
  5445   001F44                     
  5446                           ; BSR set to: 0
  5447                           ;mcc_generated_files/i2c_master.c: 352:     I2C_MasterSendTxData((uint8_t) (I2C_Status.a
      +                          ddress << 1));
  5448   001F44  51D2               	movf	(_I2C_Status+28)& (0+255),w,b
  5449   001F46  25D2               	addwf	(_I2C_Status+28)& (0+255),w,b
  5450   001F48  EC09  F010         	call	_I2C_MasterSendTxData
  5451   001F4C                     
  5452                           ;mcc_generated_files/i2c_master.c: 353:     return I2C_TX;
  5453   001F4C  0E03               	movlw	3
  5454   001F4E  0012               	return		;funcret
  5455   001F50                     __end_of_I2C_DO_SEND_ADR_WRITE:
  5456                           	callstack 0
  5457                           
  5458 ;; *************** function _I2C_DO_SEND_ADR_READ *****************
  5459 ;; Defined at:
  5460 ;;		line 342 in file "mcc_generated_files/i2c_master.c"
  5461 ;; Parameters:    Size  Location     Type
  5462 ;;		None
  5463 ;; Auto vars:     Size  Location     Type
  5464 ;;		None
  5465 ;; Return value:  Size  Location     Type
  5466 ;;                  1    wreg      enum E3121
  5467 ;; Registers used:
  5468 ;;		wreg, status,0, cstack
  5469 ;; Tracked objects:
  5470 ;;		On entry : 0/0
  5471 ;;		On exit  : 0/0
  5472 ;;		Unchanged: 0/0
  5473 ;; Data sizes:     COMRAM   BANK0   BANK1   BANK2   BANK3   BANK4   BANK5   BANK6   BANK7   BANK8   BANK9  BANK10  BANK1
      +1  BANK12  BANK13  BANK14  BANK15
  5474 ;;      Params:         0       0       0       0       0       0       0       0       0       0       0       0       
      +0       0       0       0       0
  5475 ;;      Locals:         0       0       0       0       0       0       0       0       0       0       0       0       
      +0       0       0       0       0
  5476 ;;      Temps:          0       0       0       0       0       0       0       0       0       0       0       0       
      +0       0       0       0       0
  5477 ;;      Totals:         0       0       0       0       0       0       0       0       0       0       0       0       
      +0       0       0       0       0
  5478 ;;Total ram usage:        0 bytes
  5479 ;; Hardware stack levels used: 1
  5480 ;; Hardware stack levels required when called: 1
  5481 ;; This function calls:
  5482 ;;		_I2C_MasterSendTxData
  5483 ;; This function is called by:
  5484 ;;		_I2C_MasterFsm
  5485 ;; This function uses a non-reentrant model
  5486 ;;
  5487                           
  5488                           	psect	text59
  5489   001F50                     __ptext59:
  5490                           	callstack 0
  5491   001F50                     _I2C_DO_SEND_ADR_READ:
  5492                           	callstack 17
  5493   001F50                     
  5494                           ;mcc_generated_files/i2c_master.c: 344:     I2C_Status.addressNackCheck = 1;
  5495   001F50  0100               	movlb	0	; () banked
  5496   001F52  81D9               	bsf	(_I2C_Status+35)& (0+255),0,b
  5497   001F54                     
  5498                           ; BSR set to: 0
  5499                           ;mcc_generated_files/i2c_master.c: 345:     I2C_MasterSendTxData((uint8_t) (I2C_Status.a
      +                          ddress << 1 | 1));
  5500   001F54  80D8               	bsf	status,0,c
  5501   001F56  35D2               	rlcf	(_I2C_Status+28)& (0+255),w,b
  5502   001F58  EC09  F010         	call	_I2C_MasterSendTxData
  5503   001F5C                     
  5504                           ;mcc_generated_files/i2c_master.c: 346:     return I2C_RCEN;
  5505   001F5C  0E05               	movlw	5
  5506   001F5E  0012               	return		;funcret
  5507   001F60                     __end_of_I2C_DO_SEND_ADR_READ:
  5508                           	callstack 0
  5509                           
  5510 ;; *************** function _I2C_DO_IDLE *****************
  5511 ;; Defined at:
  5512 ;;		line 335 in file "mcc_generated_files/i2c_master.c"
  5513 ;; Parameters:    Size  Location     Type
  5514 ;;		None
  5515 ;; Auto vars:     Size  Location     Type
  5516 ;;		None
  5517 ;; Return value:  Size  Location     Type
  5518 ;;                  1    wreg      enum E3121
  5519 ;; Registers used:
  5520 ;;		wreg, status,2
  5521 ;; Tracked objects:
  5522 ;;		On entry : 0/0
  5523 ;;		On exit  : 0/0
  5524 ;;		Unchanged: 0/0
  5525 ;; Data sizes:     COMRAM   BANK0   BANK1   BANK2   BANK3   BANK4   BANK5   BANK6   BANK7   BANK8   BANK9  BANK10  BANK1
      +1  BANK12  BANK13  BANK14  BANK15
  5526 ;;      Params:         0       0       0       0       0       0       0       0       0       0       0       0       
      +0       0       0       0       0
  5527 ;;      Locals:         0       0       0       0       0       0       0       0       0       0       0       0       
      +0       0       0       0       0
  5528 ;;      Temps:          0       0       0       0       0       0       0       0       0       0       0       0       
      +0       0       0       0       0
  5529 ;;      Totals:         0       0       0       0       0       0       0       0       0       0       0       0       
      +0       0       0       0       0
  5530 ;;Total ram usage:        0 bytes
  5531 ;; Hardware stack levels used: 1
  5532 ;; This function calls:
  5533 ;;		Nothing
  5534 ;; This function is called by:
  5535 ;;		_I2C_MasterFsm
  5536 ;; This function uses a non-reentrant model
  5537 ;;
  5538                           
  5539                           	psect	text60
  5540   001F94                     __ptext60:
  5541                           	callstack 0
  5542   001F94                     _I2C_DO_IDLE:
  5543                           	callstack 18
  5544   001F94                     
  5545                           ;mcc_generated_files/i2c_master.c: 337:     I2C_Status.busy = 0;
  5546   001F94  0100               	movlb	0	; () banked
  5547   001F96  93D9               	bcf	(_I2C_Status+35)& (0+255),1,b
  5548   001F98                     
  5549                           ; BSR set to: 0
  5550                           ;mcc_generated_files/i2c_master.c: 338:     I2C_Status.error = I2C_NOERR;
  5551   001F98  0E00               	movlw	0
  5552   001F9A  6FD8               	movwf	(_I2C_Status+34)& (0+255),b
  5553   001F9C                     
  5554                           ; BSR set to: 0
  5555                           ;mcc_generated_files/i2c_master.c: 339:     return I2C_RESET;
  5556   001F9C  0E0E               	movlw	14
  5557   001F9E                     
  5558                           ; BSR set to: 0
  5559   001F9E  0012               	return		;funcret
  5560   001FA0                     __end_of_I2C_DO_IDLE:
  5561                           	callstack 0
  5562                           
  5563 ;; *************** function _I2C_DO_TX_EMPTY *****************
  5564 ;; Defined at:
  5565 ;;		line 411 in file "mcc_generated_files/i2c_master.c"
  5566 ;; Parameters:    Size  Location     Type
  5567 ;;		None
  5568 ;; Auto vars:     Size  Location     Type
  5569 ;;		None
  5570 ;; Return value:  Size  Location     Type
  5571 ;;                  1    wreg      enum E3121
  5572 ;; Registers used:
  5573 ;;		wreg, fsr2l, fsr2h, status,2, status,0, pcl, pclath, pclatu, tosl, prodl, prodh, cstack
  5574 ;; Tracked objects:
  5575 ;;		On entry : 0/0
  5576 ;;		On exit  : 0/0
  5577 ;;		Unchanged: 0/0
  5578 ;; Data sizes:     COMRAM   BANK0   BANK1   BANK2   BANK3   BANK4   BANK5   BANK6   BANK7   BANK8   BANK9  BANK10  BANK1
      +1  BANK12  BANK13  BANK14  BANK15
  5579 ;;      Params:         0       0       0       0       0       0       0       0       0       0       0       0       
      +0       0       0       0       0
  5580 ;;      Locals:         0       0       0       0       0       0       0       0       0       0       0       0       
      +0       0       0       0       0
  5581 ;;      Temps:          2       0       0       0       0       0       0       0       0       0       0       0       
      +0       0       0       0       0
  5582 ;;      Totals:         2       0       0       0       0       0       0       0       0       0       0       0       
      +0       0       0       0       0
  5583 ;;Total ram usage:        2 bytes
  5584 ;; Hardware stack levels used: 1
  5585 ;; Hardware stack levels required when called: 3
  5586 ;; This function calls:
  5587 ;;		NULL
  5588 ;;		_I2C_CallbackReturnReset
  5589 ;;		_I2C_CallbackReturnStop
  5590 ;;		_I2C_DO_SEND_RESTART
  5591 ;;		_I2C_DO_SEND_STOP
  5592 ;;		_I2C_MasterSetIrq
  5593 ;;		_rd1RegCompleteHandler
  5594 ;;		_rd2RegCompleteHandler
  5595 ;;		_rdBlkRegCompleteHandler
  5596 ;;		_wr1RegCompleteHandler
  5597 ;;		_wr2RegCompleteHandler
  5598 ;; This function is called by:
  5599 ;;		_I2C_MasterFsm
  5600 ;; This function uses a non-reentrant model
  5601 ;;
  5602                           
  5603                           	psect	text61
  5604   0017E6                     __ptext61:
  5605                           	callstack 0
  5606   0017E6                     _I2C_DO_TX_EMPTY:
  5607                           	callstack 15
  5608   0017E6                     
  5609                           ;mcc_generated_files/i2c_master.c: 413:     I2C_Status.bufferFree = 1;
  5610   0017E6  0100               	movlb	0	; () banked
  5611   0017E8  87D9               	bsf	(_I2C_Status+35)& (0+255),3,b
  5612                           
  5613                           ;mcc_generated_files/i2c_master.c: 414:     switch(I2C_Status.callbackTable[I2C_DATA_COM
      +                          PLETE](I2C_Status.callbackPayload[I2C_DATA_COMPLETE]))
  5614   0017EA  EF04  F00C         	goto	i2l3140
  5615   0017EE                     i2l3124:
  5616                           
  5617                           ;mcc_generated_files/i2c_master.c: 418:             return I2C_DO_SEND_RESTART();
  5618   0017EE  ECFD  F00F         	call	_I2C_DO_SEND_RESTART	;wreg free
  5619   0017F2  EF30  F00C         	goto	i2l575
  5620   0017F6                     i2l3128:
  5621                           
  5622                           ;mcc_generated_files/i2c_master.c: 420:             I2C_MasterSetIrq();
  5623   0017F6  EC24  F010         	call	_I2C_MasterSetIrq	;wreg free
  5624   0017FA                     
  5625                           ;mcc_generated_files/i2c_master.c: 421:             return I2C_TX;
  5626   0017FA  0E03               	movlw	3
  5627   0017FC  EF30  F00C         	goto	i2l575
  5628   001800                     i2l3134:
  5629                           
  5630                           ;mcc_generated_files/i2c_master.c: 424:             return I2C_DO_SEND_STOP();
  5631   001800  ECF9  F00F         	call	_I2C_DO_SEND_STOP	;wreg free
  5632   001804  EF30  F00C         	goto	i2l575
  5633   001808                     i2l3140:
  5634                           
  5635                           ; BSR set to: 0
  5636   001808  C0C2  F00A         	movff	_I2C_Status+12,I2C_CallbackReturnReset@funPtr
  5637   00180C  C0C3  F00B         	movff	_I2C_Status+13,I2C_CallbackReturnReset@funPtr+1
  5638   001810  D802               	call	i2u112_48
  5639   001812  EF14  F00C         	goto	i2u112_49
  5640   001816                     i2u112_48:
  5641   001816  0005               	push	
  5642   001818  6EFA               	movwf	pclath,c
  5643   00181A  51B6               	movf	_I2C_Status& (0+255),w,b
  5644   00181C  6EFD               	movwf	tosl,c
  5645   00181E  51B7               	movf	(_I2C_Status+1)& (0+255),w,b
  5646   001820  6EFE               	movwf	tosh,c
  5647   001822  6AFF               	clrf	tosu,c
  5648   001824  50FA               	movf	pclath,w,c
  5649   001826  0012               	return		;indir
  5650   001828                     i2u112_49:
  5651   001828  6E0C               	movwf	??_I2C_DO_TX_EMPTY^0,c
  5652   00182A  6A0D               	clrf	(??_I2C_DO_TX_EMPTY+1)^0,c
  5653                           
  5654                           ; Switch on 2 bytes has been partitioned into a top level switch of size 1, and 1 sub-sw
      +                          itches
  5655                           ; Switch size 1, requested type "simple"
  5656                           ; Number of cases is 1, Range of values is 0 to 0
  5657                           ; switch strategies available:
  5658                           ; Name         Instructions Cycles
  5659                           ; simple_byte            4     3 (average)
  5660                           ;	Chosen strategy is simple_byte
  5661   00182C  500D               	movf	(??_I2C_DO_TX_EMPTY+1)^0,w,c
  5662   00182E  0A00               	xorlw	0	; case 0
  5663   001830  B4D8               	btfsc	status,2,c
  5664   001832  EF1D  F00C         	goto	i2l4128
  5665   001836  EF00  F00C         	goto	i2l3134
  5666   00183A                     i2l4128:
  5667                           
  5668                           ; Switch size 1, requested type "simple"
  5669                           ; Number of cases is 4, Range of values is 1 to 4
  5670                           ; switch strategies available:
  5671                           ; Name         Instructions Cycles
  5672                           ; simple_byte           13     7 (average)
  5673                           ;	Chosen strategy is simple_byte
  5674   00183A  500C               	movf	??_I2C_DO_TX_EMPTY^0,w,c
  5675   00183C  0A01               	xorlw	1	; case 1
  5676   00183E  B4D8               	btfsc	status,2,c
  5677   001840  EF00  F00C         	goto	i2l3134
  5678   001844  0A03               	xorlw	3	; case 2
  5679   001846  B4D8               	btfsc	status,2,c
  5680   001848  EFF7  F00B         	goto	i2l3124
  5681   00184C  0A01               	xorlw	1	; case 3
  5682   00184E  B4D8               	btfsc	status,2,c
  5683   001850  EFF7  F00B         	goto	i2l3124
  5684   001854  0A07               	xorlw	7	; case 4
  5685   001856  B4D8               	btfsc	status,2,c
  5686   001858  EFFB  F00B         	goto	i2l3128
  5687   00185C  EF00  F00C         	goto	i2l3134
  5688   001860                     i2l575:
  5689   001860  0012               	return		;funcret
  5690   001862                     __end_of_I2C_DO_TX_EMPTY:
  5691                           	callstack 0
  5692                           
  5693 ;; *************** function _I2C_MasterSetIrq *****************
  5694 ;; Defined at:
  5695 ;;		line 647 in file "mcc_generated_files/i2c_master.c"
  5696 ;; Parameters:    Size  Location     Type
  5697 ;;		None
  5698 ;; Auto vars:     Size  Location     Type
  5699 ;;		None
  5700 ;; Return value:  Size  Location     Type
  5701 ;;                  1    wreg      void 
  5702 ;; Registers used:
  5703 ;;		None
  5704 ;; Tracked objects:
  5705 ;;		On entry : 0/0
  5706 ;;		On exit  : 0/0
  5707 ;;		Unchanged: 0/0
  5708 ;; Data sizes:     COMRAM   BANK0   BANK1   BANK2   BANK3   BANK4   BANK5   BANK6   BANK7   BANK8   BANK9  BANK10  BANK1
      +1  BANK12  BANK13  BANK14  BANK15
  5709 ;;      Params:         0       0       0       0       0       0       0       0       0       0       0       0       
      +0       0       0       0       0
  5710 ;;      Locals:         0       0       0       0       0       0       0       0       0       0       0       0       
      +0       0       0       0       0
  5711 ;;      Temps:          0       0       0       0       0       0       0       0       0       0       0       0       
      +0       0       0       0       0
  5712 ;;      Totals:         0       0       0       0       0       0       0       0       0       0       0       0       
      +0       0       0       0       0
  5713 ;;Total ram usage:        0 bytes
  5714 ;; Hardware stack levels used: 1
  5715 ;; This function calls:
  5716 ;;		Nothing
  5717 ;; This function is called by:
  5718 ;;		_I2C_DO_TX_EMPTY
  5719 ;; This function uses a non-reentrant model
  5720 ;;
  5721                           
  5722                           	psect	text62
  5723   002048                     __ptext62:
  5724                           	callstack 0
  5725   002048                     _I2C_MasterSetIrq:
  5726                           	callstack 17
  5727   002048                     
  5728                           ;mcc_generated_files/i2c_master.c: 649:     PIR1bits.SSPIF = 1;
  5729   002048  869E               	bsf	158,3,c	;volatile
  5730   00204A  0012               	return		;funcret
  5731   00204C                     __end_of_I2C_MasterSetIrq:
  5732                           	callstack 0
  5733                           
  5734 ;; *************** function _I2C_MasterIsNack *****************
  5735 ;; Defined at:
  5736 ;;		line 599 in file "mcc_generated_files/i2c_master.c"
  5737 ;; Parameters:    Size  Location     Type
  5738 ;;		None
  5739 ;; Auto vars:     Size  Location     Type
  5740 ;;		None
  5741 ;; Return value:  Size  Location     Type
  5742 ;;                  1    wreg      _Bool 
  5743 ;; Registers used:
  5744 ;;		wreg
  5745 ;; Tracked objects:
  5746 ;;		On entry : 0/0
  5747 ;;		On exit  : 0/0
  5748 ;;		Unchanged: 0/0
  5749 ;; Data sizes:     COMRAM   BANK0   BANK1   BANK2   BANK3   BANK4   BANK5   BANK6   BANK7   BANK8   BANK9  BANK10  BANK1
      +1  BANK12  BANK13  BANK14  BANK15
  5750 ;;      Params:         0       0       0       0       0       0       0       0       0       0       0       0       
      +0       0       0       0       0
  5751 ;;      Locals:         0       0       0       0       0       0       0       0       0       0       0       0       
      +0       0       0       0       0
  5752 ;;      Temps:          0       0       0       0       0       0       0       0       0       0       0       0       
      +0       0       0       0       0
  5753 ;;      Totals:         0       0       0       0       0       0       0       0       0       0       0       0       
      +0       0       0       0       0
  5754 ;;Total ram usage:        0 bytes
  5755 ;; Hardware stack levels used: 1
  5756 ;; This function calls:
  5757 ;;		Nothing
  5758 ;; This function is called by:
  5759 ;;		_I2C_MasterFsm
  5760 ;;		_I2C_DO_TX
  5761 ;; This function uses a non-reentrant model
  5762 ;;
  5763                           
  5764                           	psect	text63
  5765   001F2C                     __ptext63:
  5766                           	callstack 0
  5767   001F2C                     _I2C_MasterIsNack:
  5768                           	callstack 18
  5769   001F2C                     
  5770                           ;mcc_generated_files/i2c_master.c: 601:     return SSPCON2bits.ACKSTAT;
  5771   001F2C  BCC5               	btfsc	197,6,c	;volatile
  5772   001F2E  EF9B  F00F         	goto	i2u100_41
  5773   001F32  EF9E  F00F         	goto	i2u100_40
  5774   001F36                     i2u100_41:
  5775   001F36  0E01               	movlw	1
  5776   001F38  EF9F  F00F         	goto	i2u100_46
  5777   001F3C                     i2u100_40:
  5778   001F3C  0E00               	movlw	0
  5779   001F3E                     i2u100_46:
  5780   001F3E  0012               	return		;funcret
  5781   001F40                     __end_of_I2C_MasterIsNack:
  5782                           	callstack 0
  5783                           
  5784 ;; *************** function _I2C_MasterSendTxData *****************
  5785 ;; Defined at:
  5786 ;;		line 569 in file "mcc_generated_files/i2c_master.c"
  5787 ;; Parameters:    Size  Location     Type
  5788 ;;  data            1    wreg     unsigned char 
  5789 ;; Auto vars:     Size  Location     Type
  5790 ;;  data            1    0[COMRAM] unsigned char 
  5791 ;; Return value:  Size  Location     Type
  5792 ;;                  1    wreg      void 
  5793 ;; Registers used:
  5794 ;;		wreg
  5795 ;; Tracked objects:
  5796 ;;		On entry : 0/0
  5797 ;;		On exit  : 0/0
  5798 ;;		Unchanged: 0/0
  5799 ;; Data sizes:     COMRAM   BANK0   BANK1   BANK2   BANK3   BANK4   BANK5   BANK6   BANK7   BANK8   BANK9  BANK10  BANK1
      +1  BANK12  BANK13  BANK14  BANK15
  5800 ;;      Params:         0       0       0       0       0       0       0       0       0       0       0       0       
      +0       0       0       0       0
  5801 ;;      Locals:         1       0       0       0       0       0       0       0       0       0       0       0       
      +0       0       0       0       0
  5802 ;;      Temps:          0       0       0       0       0       0       0       0       0       0       0       0       
      +0       0       0       0       0
  5803 ;;      Totals:         1       0       0       0       0       0       0       0       0       0       0       0       
      +0       0       0       0       0
  5804 ;;Total ram usage:        1 bytes
  5805 ;; Hardware stack levels used: 1
  5806 ;; This function calls:
  5807 ;;		Nothing
  5808 ;; This function is called by:
  5809 ;;		_I2C_DO_SEND_ADR_READ
  5810 ;;		_I2C_DO_SEND_ADR_WRITE
  5811 ;;		_I2C_DO_TX
  5812 ;; This function uses a non-reentrant model
  5813 ;;
  5814                           
  5815                           	psect	text64
  5816   002012                     __ptext64:
  5817                           	callstack 0
  5818   002012                     _I2C_MasterSendTxData:
  5819                           	callstack 17
  5820                           
  5821                           ;incstack = 0
  5822                           ;I2C_MasterSendTxData@data stored from wreg
  5823   002012  6E01               	movwf	I2C_MasterSendTxData@data^0,c
  5824   002014                     
  5825                           ;mcc_generated_files/i2c_master.c: 569: static __attribute__((inline)) void I2C_MasterSe
      +                          ndTxData(uint8_t data);mcc_generated_files/i2c_master.c: 570: {;mcc_generated_files/i2c_
      +                          master.c: 571:     SSPBUF = data;
  5826   002014  C001  FFC9         	movff	I2C_MasterSendTxData@data,4041	;volatile
  5827   002018  0012               	return		;funcret
  5828   00201A                     __end_of_I2C_MasterSendTxData:
  5829                           	callstack 0
  5830                           
  5831 ;; *************** function _I2C_MasterSendAck *****************
  5832 ;; Defined at:
  5833 ;;		line 604 in file "mcc_generated_files/i2c_master.c"
  5834 ;; Parameters:    Size  Location     Type
  5835 ;;		None
  5836 ;; Auto vars:     Size  Location     Type
  5837 ;;		None
  5838 ;; Return value:  Size  Location     Type
  5839 ;;                  1    wreg      void 
  5840 ;; Registers used:
  5841 ;;		None
  5842 ;; Tracked objects:
  5843 ;;		On entry : 0/0
  5844 ;;		On exit  : 0/0
  5845 ;;		Unchanged: 0/0
  5846 ;; Data sizes:     COMRAM   BANK0   BANK1   BANK2   BANK3   BANK4   BANK5   BANK6   BANK7   BANK8   BANK9  BANK10  BANK1
      +1  BANK12  BANK13  BANK14  BANK15
  5847 ;;      Params:         0       0       0       0       0       0       0       0       0       0       0       0       
      +0       0       0       0       0
  5848 ;;      Locals:         0       0       0       0       0       0       0       0       0       0       0       0       
      +0       0       0       0       0
  5849 ;;      Temps:          0       0       0       0       0       0       0       0       0       0       0       0       
      +0       0       0       0       0
  5850 ;;      Totals:         0       0       0       0       0       0       0       0       0       0       0       0       
      +0       0       0       0       0
  5851 ;;Total ram usage:        0 bytes
  5852 ;; Hardware stack levels used: 1
  5853 ;; This function calls:
  5854 ;;		Nothing
  5855 ;; This function is called by:
  5856 ;;		_I2C_DO_RX
  5857 ;;		_I2C_DO_RX_ACK
  5858 ;; This function uses a non-reentrant model
  5859 ;;
  5860                           
  5861                           	psect	text65
  5862   002020                     __ptext65:
  5863                           	callstack 0
  5864   002020                     _I2C_MasterSendAck:
  5865                           	callstack 17
  5866   002020                     
  5867                           ;mcc_generated_files/i2c_master.c: 606:     SSPCON2bits.ACKDT = 0;
  5868   002020  9AC5               	bcf	197,5,c	;volatile
  5869                           
  5870                           ;mcc_generated_files/i2c_master.c: 607:     SSPCON2bits.ACKEN = 1;
  5871   002022  88C5               	bsf	197,4,c	;volatile
  5872   002024  0012               	return		;funcret
  5873   002026                     __end_of_I2C_MasterSendAck:
  5874                           	callstack 0
  5875                           
  5876 ;; *************** function _I2C_MasterGetRxData *****************
  5877 ;; Defined at:
  5878 ;;		line 564 in file "mcc_generated_files/i2c_master.c"
  5879 ;; Parameters:    Size  Location     Type
  5880 ;;		None
  5881 ;; Auto vars:     Size  Location     Type
  5882 ;;		None
  5883 ;; Return value:  Size  Location     Type
  5884 ;;                  1    wreg      unsigned char 
  5885 ;; Registers used:
  5886 ;;		wreg, status,2
  5887 ;; Tracked objects:
  5888 ;;		On entry : 0/0
  5889 ;;		On exit  : 0/0
  5890 ;;		Unchanged: 0/0
  5891 ;; Data sizes:     COMRAM   BANK0   BANK1   BANK2   BANK3   BANK4   BANK5   BANK6   BANK7   BANK8   BANK9  BANK10  BANK1
      +1  BANK12  BANK13  BANK14  BANK15
  5892 ;;      Params:         0       0       0       0       0       0       0       0       0       0       0       0       
      +0       0       0       0       0
  5893 ;;      Locals:         0       0       0       0       0       0       0       0       0       0       0       0       
      +0       0       0       0       0
  5894 ;;      Temps:          0       0       0       0       0       0       0       0       0       0       0       0       
      +0       0       0       0       0
  5895 ;;      Totals:         0       0       0       0       0       0       0       0       0       0       0       0       
      +0       0       0       0       0
  5896 ;;Total ram usage:        0 bytes
  5897 ;; Hardware stack levels used: 1
  5898 ;; This function calls:
  5899 ;;		Nothing
  5900 ;; This function is called by:
  5901 ;;		_I2C_DO_RX
  5902 ;; This function uses a non-reentrant model
  5903 ;;
  5904                           
  5905                           	psect	text66
  5906   00204C                     __ptext66:
  5907                           	callstack 0
  5908   00204C                     _I2C_MasterGetRxData:
  5909                           	callstack 17
  5910   00204C                     
  5911                           ;mcc_generated_files/i2c_master.c: 566:     return SSPBUF;
  5912   00204C  50C9               	movf	201,w,c	;volatile
  5913   00204E  0012               	return		;funcret
  5914   002050                     __end_of_I2C_MasterGetRxData:
  5915                           	callstack 0
  5916                           
  5917 ;; *************** function _I2C_MasterSendNack *****************
  5918 ;; Defined at:
  5919 ;;		line 610 in file "mcc_generated_files/i2c_master.c"
  5920 ;; Parameters:    Size  Location     Type
  5921 ;;		None
  5922 ;; Auto vars:     Size  Location     Type
  5923 ;;		None
  5924 ;; Return value:  Size  Location     Type
  5925 ;;                  1    wreg      void 
  5926 ;; Registers used:
  5927 ;;		None
  5928 ;; Tracked objects:
  5929 ;;		On entry : 0/0
  5930 ;;		On exit  : 0/0
  5931 ;;		Unchanged: 0/0
  5932 ;; Data sizes:     COMRAM   BANK0   BANK1   BANK2   BANK3   BANK4   BANK5   BANK6   BANK7   BANK8   BANK9  BANK10  BANK1
      +1  BANK12  BANK13  BANK14  BANK15
  5933 ;;      Params:         0       0       0       0       0       0       0       0       0       0       0       0       
      +0       0       0       0       0
  5934 ;;      Locals:         0       0       0       0       0       0       0       0       0       0       0       0       
      +0       0       0       0       0
  5935 ;;      Temps:          0       0       0       0       0       0       0       0       0       0       0       0       
      +0       0       0       0       0
  5936 ;;      Totals:         0       0       0       0       0       0       0       0       0       0       0       0       
      +0       0       0       0       0
  5937 ;;Total ram usage:        0 bytes
  5938 ;; Hardware stack levels used: 1
  5939 ;; This function calls:
  5940 ;;		Nothing
  5941 ;; This function is called by:
  5942 ;;		_I2C_DO_RX_NACK_STOP
  5943 ;;		_I2C_DO_RX_NACK_RESTART
  5944 ;; This function uses a non-reentrant model
  5945 ;;
  5946                           
  5947                           	psect	text67
  5948   002026                     __ptext67:
  5949                           	callstack 0
  5950   002026                     _I2C_MasterSendNack:
  5951                           	callstack 17
  5952   002026                     
  5953                           ;mcc_generated_files/i2c_master.c: 612:     SSPCON2bits.ACKDT = 1;
  5954   002026  8AC5               	bsf	197,5,c	;volatile
  5955                           
  5956                           ;mcc_generated_files/i2c_master.c: 613:     SSPCON2bits.ACKEN = 1;
  5957   002028  88C5               	bsf	197,4,c	;volatile
  5958   00202A  0012               	return		;funcret
  5959   00202C                     __end_of_I2C_MasterSendNack:
  5960                           	callstack 0
  5961                           
  5962 ;; *************** function _I2C_MasterStartRx *****************
  5963 ;; Defined at:
  5964 ;;		line 584 in file "mcc_generated_files/i2c_master.c"
  5965 ;; Parameters:    Size  Location     Type
  5966 ;;		None
  5967 ;; Auto vars:     Size  Location     Type
  5968 ;;		None
  5969 ;; Return value:  Size  Location     Type
  5970 ;;                  1    wreg      void 
  5971 ;; Registers used:
  5972 ;;		None
  5973 ;; Tracked objects:
  5974 ;;		On entry : 0/0
  5975 ;;		On exit  : 0/0
  5976 ;;		Unchanged: 0/0
  5977 ;; Data sizes:     COMRAM   BANK0   BANK1   BANK2   BANK3   BANK4   BANK5   BANK6   BANK7   BANK8   BANK9  BANK10  BANK1
      +1  BANK12  BANK13  BANK14  BANK15
  5978 ;;      Params:         0       0       0       0       0       0       0       0       0       0       0       0       
      +0       0       0       0       0
  5979 ;;      Locals:         0       0       0       0       0       0       0       0       0       0       0       0       
      +0       0       0       0       0
  5980 ;;      Temps:          0       0       0       0       0       0       0       0       0       0       0       0       
      +0       0       0       0       0
  5981 ;;      Totals:         0       0       0       0       0       0       0       0       0       0       0       0       
      +0       0       0       0       0
  5982 ;;Total ram usage:        0 bytes
  5983 ;; Hardware stack levels used: 1
  5984 ;; This function calls:
  5985 ;;		Nothing
  5986 ;; This function is called by:
  5987 ;;		_I2C_DO_RCEN
  5988 ;; This function uses a non-reentrant model
  5989 ;;
  5990                           
  5991                           	psect	text68
  5992   002050                     __ptext68:
  5993                           	callstack 0
  5994   002050                     _I2C_MasterStartRx:
  5995                           	callstack 17
  5996   002050                     
  5997                           ;mcc_generated_files/i2c_master.c: 586:     SSPCON2bits.RCEN = 1;
  5998   002050  86C5               	bsf	197,3,c	;volatile
  5999   002052  0012               	return		;funcret
  6000   002054                     __end_of_I2C_MasterStartRx:
  6001                           	callstack 0
  6002                           
  6003 ;; *************** function _I2C_CallbackReturnReset *****************
  6004 ;; Defined at:
  6005 ;;		line 526 in file "mcc_generated_files/i2c_master.c"
  6006 ;; Parameters:    Size  Location     Type
  6007 ;;  funPtr          2    9[COMRAM] PTR void 
  6008 ;;		 -> I2C_ReadDataBlock@bufferBlock(4), I2C_Write2ByteRegister@data(2), I2C_Write1ByteRegister@data(1), I2C_Read2ByteR
      +egister@returnValue(2), 
  6009 ;;		 -> NULL(0), I2C_Read1ByteRegister@returnValue(1), 
  6010 ;; Auto vars:     Size  Location     Type
  6011 ;;		None
  6012 ;; Return value:  Size  Location     Type
  6013 ;;                  1    wreg      enum E363
  6014 ;; Registers used:
  6015 ;;		wreg
  6016 ;; Tracked objects:
  6017 ;;		On entry : 0/0
  6018 ;;		On exit  : 0/0
  6019 ;;		Unchanged: 0/0
  6020 ;; Data sizes:     COMRAM   BANK0   BANK1   BANK2   BANK3   BANK4   BANK5   BANK6   BANK7   BANK8   BANK9  BANK10  BANK1
      +1  BANK12  BANK13  BANK14  BANK15
  6021 ;;      Params:         2       0       0       0       0       0       0       0       0       0       0       0       
      +0       0       0       0       0
  6022 ;;      Locals:         0       0       0       0       0       0       0       0       0       0       0       0       
      +0       0       0       0       0
  6023 ;;      Temps:          0       0       0       0       0       0       0       0       0       0       0       0       
      +0       0       0       0       0
  6024 ;;      Totals:         2       0       0       0       0       0       0       0       0       0       0       0       
      +0       0       0       0       0
  6025 ;;Total ram usage:        2 bytes
  6026 ;; Hardware stack levels used: 1
  6027 ;; This function calls:
  6028 ;;		Nothing
  6029 ;; This function is called by:
  6030 ;;		_I2C_Open
  6031 ;;		_I2C_DO_TX
  6032 ;;		_I2C_DO_RX
  6033 ;;		_I2C_DO_TX_EMPTY
  6034 ;;		_I2C_DO_ADDRESS_NACK
  6035 ;;		_I2C_DO_RX_EMPTY
  6036 ;; This function uses a non-reentrant model
  6037 ;;
  6038                           
  6039                           	psect	text69
  6040   002054                     __ptext69:
  6041                           	callstack 0
  6042   002054                     _I2C_CallbackReturnReset:
  6043                           	callstack 17
  6044   002054                     
  6045                           ;mcc_generated_files/i2c_master.c: 526: i2c_operations_t I2C_CallbackReturnReset(void *f
      +                          unPtr);mcc_generated_files/i2c_master.c: 527: {;mcc_generated_files/i2c_master.c: 528:  
      +                             return I2C_RESET_LINK;
  6046   002054  0E05               	movlw	5
  6047   002056  0012               	return		;funcret
  6048   002058                     __end_of_I2C_CallbackReturnReset:
  6049                           	callstack 0
  6050                           
  6051 ;; *************** function _I2C_CallbackReturnStop *****************
  6052 ;; Defined at:
  6053 ;;		line 521 in file "mcc_generated_files/i2c_master.c"
  6054 ;; Parameters:    Size  Location     Type
  6055 ;;  funPtr          2    9[COMRAM] PTR void 
  6056 ;;		 -> I2C_ReadDataBlock@bufferBlock(4), I2C_Write2ByteRegister@data(2), I2C_Write1ByteRegister@data(1), I2C_Read2ByteR
      +egister@returnValue(2), 
  6057 ;;		 -> NULL(0), I2C_Read1ByteRegister@returnValue(1), 
  6058 ;; Auto vars:     Size  Location     Type
  6059 ;;		None
  6060 ;; Return value:  Size  Location     Type
  6061 ;;                  1    wreg      enum E363
  6062 ;; Registers used:
  6063 ;;		wreg
  6064 ;; Tracked objects:
  6065 ;;		On entry : 0/0
  6066 ;;		On exit  : 0/0
  6067 ;;		Unchanged: 0/0
  6068 ;; Data sizes:     COMRAM   BANK0   BANK1   BANK2   BANK3   BANK4   BANK5   BANK6   BANK7   BANK8   BANK9  BANK10  BANK1
      +1  BANK12  BANK13  BANK14  BANK15
  6069 ;;      Params:         2       0       0       0       0       0       0       0       0       0       0       0       
      +0       0       0       0       0
  6070 ;;      Locals:         0       0       0       0       0       0       0       0       0       0       0       0       
      +0       0       0       0       0
  6071 ;;      Temps:          0       0       0       0       0       0       0       0       0       0       0       0       
      +0       0       0       0       0
  6072 ;;      Totals:         2       0       0       0       0       0       0       0       0       0       0       0       
      +0       0       0       0       0
  6073 ;;Total ram usage:        2 bytes
  6074 ;; Hardware stack levels used: 1
  6075 ;; This function calls:
  6076 ;;		Nothing
  6077 ;; This function is called by:
  6078 ;;		_I2C_Open
  6079 ;;		_I2C_SetCallback
  6080 ;;		i2_I2C_SetCallback
  6081 ;;		_I2C_DO_TX
  6082 ;;		_I2C_DO_RX
  6083 ;;		_I2C_DO_TX_EMPTY
  6084 ;;		_I2C_DO_ADDRESS_NACK
  6085 ;;		_I2C_DO_RX_EMPTY
  6086 ;; This function uses a non-reentrant model
  6087 ;;
  6088                           
  6089                           	psect	text70
  6090   002058                     __ptext70:
  6091                           	callstack 0
  6092   002058                     _I2C_CallbackReturnStop:
  6093                           	callstack 17
  6094   002058                     
  6095                           ;mcc_generated_files/i2c_master.c: 521: i2c_operations_t I2C_CallbackReturnStop(void *fu
      +                          nPtr);mcc_generated_files/i2c_master.c: 522: {;mcc_generated_files/i2c_master.c: 523:   
      +                            return I2C_STOP;
  6096   002058  0E01               	movlw	1
  6097   00205A  0012               	return		;funcret
  6098   00205C                     __end_of_I2C_CallbackReturnStop:
  6099                           	callstack 0
  6100                           
  6101 ;; *************** function _rdBlkRegCompleteHandler *****************
  6102 ;; Defined at:
  6103 ;;		line 170 in file "mcc_generated_files/examples/i2c_master_example.c"
  6104 ;; Parameters:    Size  Location     Type
  6105 ;;  ptr             2    9[COMRAM] PTR void 
  6106 ;;		 -> I2C_ReadDataBlock@bufferBlock(4), I2C_Write2ByteRegister@data(2), I2C_Write1ByteRegister@data(1), I2C_Read2ByteR
      +egister@returnValue(2), 
  6107 ;;		 -> NULL(0), I2C_Read1ByteRegister@returnValue(1), 
  6108 ;; Auto vars:     Size  Location     Type
  6109 ;;		None
  6110 ;; Return value:  Size  Location     Type
  6111 ;;                  1    wreg      enum E363
  6112 ;; Registers used:
  6113 ;;		wreg, fsr2l, fsr2h, status,2, status,0, prodl, prodh, cstack
  6114 ;; Tracked objects:
  6115 ;;		On entry : 0/0
  6116 ;;		On exit  : 0/0
  6117 ;;		Unchanged: 0/0
  6118 ;; Data sizes:     COMRAM   BANK0   BANK1   BANK2   BANK3   BANK4   BANK5   BANK6   BANK7   BANK8   BANK9  BANK10  BANK1
      +1  BANK12  BANK13  BANK14  BANK15
  6119 ;;      Params:         2       0       0       0       0       0       0       0       0       0       0       0       
      +0       0       0       0       0
  6120 ;;      Locals:         0       0       0       0       0       0       0       0       0       0       0       0       
      +0       0       0       0       0
  6121 ;;      Temps:          0       0       0       0       0       0       0       0       0       0       0       0       
      +0       0       0       0       0
  6122 ;;      Totals:         2       0       0       0       0       0       0       0       0       0       0       0       
      +0       0       0       0       0
  6123 ;;Total ram usage:        2 bytes
  6124 ;; Hardware stack levels used: 1
  6125 ;; Hardware stack levels required when called: 2
  6126 ;; This function calls:
  6127 ;;		i2_I2C_SetBuffer
  6128 ;;		i2_I2C_SetDataCompleteCallback
  6129 ;; This function is called by:
  6130 ;;		_I2C_ReadDataBlock
  6131 ;;		_I2C_DO_TX
  6132 ;;		_I2C_DO_RX
  6133 ;;		_I2C_DO_TX_EMPTY
  6134 ;;		_I2C_DO_ADDRESS_NACK
  6135 ;;		_I2C_DO_RX_EMPTY
  6136 ;; This function uses a non-reentrant model
  6137 ;;
  6138                           
  6139                           	psect	text71
  6140   001C2E                     __ptext71:
  6141                           	callstack 0
  6142   001C2E                     _rdBlkRegCompleteHandler:
  6143                           	callstack 15
  6144   001C2E                     
  6145                           ;mcc_generated_files/examples/i2c_master_example.c: 170: static i2c_operations_t rdBlkRe
      +                          gCompleteHandler(void *ptr);mcc_generated_files/examples/i2c_master_example.c: 171: {;mc
      +                          c_generated_files/examples/i2c_master_example.c: 172:     I2C_SetBuffer(((i2c_buffer_t *
      +                          )ptr)->data,((i2c_buffer_t*)ptr)->len);
  6146   001C2E  EE20 F002          	lfsr	2,2
  6147   001C32  500A               	movf	rdBlkRegCompleteHandler@ptr^0,w,c
  6148   001C34  26D9               	addwf	fsr2l,f,c
  6149   001C36  500B               	movf	(rdBlkRegCompleteHandler@ptr+1)^0,w,c
  6150   001C38  22DA               	addwfc	fsr2h,f,c
  6151   001C3A  CFDE F001          	movff	postinc2,i2I2C_SetBuffer@buffer
  6152   001C3E  CFDD F002          	movff	postdec2,i2I2C_SetBuffer@buffer+1
  6153   001C42  C00A  FFD9         	movff	rdBlkRegCompleteHandler@ptr,fsr2l
  6154   001C46  C00B  FFDA         	movff	rdBlkRegCompleteHandler@ptr+1,fsr2h
  6155   001C4A  CFDE F003          	movff	postinc2,i2I2C_SetBuffer@bufferSize
  6156   001C4E  CFDD F004          	movff	postdec2,i2I2C_SetBuffer@bufferSize+1
  6157   001C52  EC22  F00F         	call	i2_I2C_SetBuffer	;wreg free
  6158   001C56                     
  6159                           ;mcc_generated_files/examples/i2c_master_example.c: 173:     I2C_SetDataCompleteCallback
      +                          (((void*)0),((void*)0));
  6160   001C56  0E00               	movlw	0
  6161   001C58  6E06               	movwf	i2I2C_SetDataCompleteCallback@cb^0,c
  6162   001C5A  0E00               	movlw	0
  6163   001C5C  6E07               	movwf	(i2I2C_SetDataCompleteCallback@cb+1)^0,c
  6164   001C5E  0E00               	movlw	0
  6165   001C60  6E08               	movwf	i2I2C_SetDataCompleteCallback@ptr^0,c
  6166   001C62  0E00               	movlw	0
  6167   001C64  6E09               	movwf	(i2I2C_SetDataCompleteCallback@ptr+1)^0,c
  6168   001C66  EC6A  F00F         	call	i2_I2C_SetDataCompleteCallback	;wreg free
  6169   001C6A                     
  6170                           ;mcc_generated_files/examples/i2c_master_example.c: 174:     return I2C_RESTART_READ;
  6171   001C6A  0E02               	movlw	2
  6172   001C6C  0012               	return		;funcret
  6173   001C6E                     __end_of_rdBlkRegCompleteHandler:
  6174                           	callstack 0
  6175                           
  6176 ;; *************** function _wr1RegCompleteHandler *****************
  6177 ;; Defined at:
  6178 ;;		line 156 in file "mcc_generated_files/examples/i2c_master_example.c"
  6179 ;; Parameters:    Size  Location     Type
  6180 ;;  ptr             2    9[COMRAM] PTR void 
  6181 ;;		 -> I2C_ReadDataBlock@bufferBlock(4), I2C_Write2ByteRegister@data(2), I2C_Write1ByteRegister@data(1), I2C_Read2ByteR
      +egister@returnValue(2), 
  6182 ;;		 -> NULL(0), I2C_Read1ByteRegister@returnValue(1), 
  6183 ;; Auto vars:     Size  Location     Type
  6184 ;;		None
  6185 ;; Return value:  Size  Location     Type
  6186 ;;                  1    wreg      enum E363
  6187 ;; Registers used:
  6188 ;;		wreg, fsr2l, fsr2h, status,2, status,0, prodl, prodh, cstack
  6189 ;; Tracked objects:
  6190 ;;		On entry : 0/0
  6191 ;;		On exit  : 0/0
  6192 ;;		Unchanged: 0/0
  6193 ;; Data sizes:     COMRAM   BANK0   BANK1   BANK2   BANK3   BANK4   BANK5   BANK6   BANK7   BANK8   BANK9  BANK10  BANK1
      +1  BANK12  BANK13  BANK14  BANK15
  6194 ;;      Params:         2       0       0       0       0       0       0       0       0       0       0       0       
      +0       0       0       0       0
  6195 ;;      Locals:         0       0       0       0       0       0       0       0       0       0       0       0       
      +0       0       0       0       0
  6196 ;;      Temps:          0       0       0       0       0       0       0       0       0       0       0       0       
      +0       0       0       0       0
  6197 ;;      Totals:         2       0       0       0       0       0       0       0       0       0       0       0       
      +0       0       0       0       0
  6198 ;;Total ram usage:        2 bytes
  6199 ;; Hardware stack levels used: 1
  6200 ;; Hardware stack levels required when called: 2
  6201 ;; This function calls:
  6202 ;;		i2_I2C_SetBuffer
  6203 ;;		i2_I2C_SetDataCompleteCallback
  6204 ;; This function is called by:
  6205 ;;		_I2C_Write1ByteRegister
  6206 ;;		_I2C_DO_TX
  6207 ;;		_I2C_DO_RX
  6208 ;;		_I2C_DO_TX_EMPTY
  6209 ;;		_I2C_DO_ADDRESS_NACK
  6210 ;;		_I2C_DO_RX_EMPTY
  6211 ;; This function uses a non-reentrant model
  6212 ;;
  6213                           
  6214                           	psect	text72
  6215   001D70                     __ptext72:
  6216                           	callstack 0
  6217   001D70                     _wr1RegCompleteHandler:
  6218                           	callstack 15
  6219   001D70                     
  6220                           ;mcc_generated_files/examples/i2c_master_example.c: 156: static i2c_operations_t wr1RegC
      +                          ompleteHandler(void *ptr);mcc_generated_files/examples/i2c_master_example.c: 157: {;mcc_
      +                          generated_files/examples/i2c_master_example.c: 158:     I2C_SetBuffer(ptr,1);
  6221   001D70  C00A  F001         	movff	wr1RegCompleteHandler@ptr,i2I2C_SetBuffer@buffer
  6222   001D74  C00B  F002         	movff	wr1RegCompleteHandler@ptr+1,i2I2C_SetBuffer@buffer+1
  6223   001D78  0E00               	movlw	0
  6224   001D7A  6E04               	movwf	(i2I2C_SetBuffer@bufferSize+1)^0,c
  6225   001D7C  0E01               	movlw	1
  6226   001D7E  6E03               	movwf	i2I2C_SetBuffer@bufferSize^0,c
  6227   001D80  EC22  F00F         	call	i2_I2C_SetBuffer	;wreg free
  6228   001D84                     
  6229                           ;mcc_generated_files/examples/i2c_master_example.c: 159:     I2C_SetDataCompleteCallback
      +                          (((void*)0),((void*)0));
  6230   001D84  0E00               	movlw	0
  6231   001D86  6E06               	movwf	i2I2C_SetDataCompleteCallback@cb^0,c
  6232   001D88  0E00               	movlw	0
  6233   001D8A  6E07               	movwf	(i2I2C_SetDataCompleteCallback@cb+1)^0,c
  6234   001D8C  0E00               	movlw	0
  6235   001D8E  6E08               	movwf	i2I2C_SetDataCompleteCallback@ptr^0,c
  6236   001D90  0E00               	movlw	0
  6237   001D92  6E09               	movwf	(i2I2C_SetDataCompleteCallback@ptr+1)^0,c
  6238   001D94  EC6A  F00F         	call	i2_I2C_SetDataCompleteCallback	;wreg free
  6239   001D98                     
  6240                           ;mcc_generated_files/examples/i2c_master_example.c: 160:     return I2C_CONTINUE;
  6241   001D98  0E04               	movlw	4
  6242   001D9A  0012               	return		;funcret
  6243   001D9C                     __end_of_wr1RegCompleteHandler:
  6244                           	callstack 0
  6245                           
  6246 ;; *************** function _rd2RegCompleteHandler *****************
  6247 ;; Defined at:
  6248 ;;		line 149 in file "mcc_generated_files/examples/i2c_master_example.c"
  6249 ;; Parameters:    Size  Location     Type
  6250 ;;  ptr             2    9[COMRAM] PTR void 
  6251 ;;		 -> I2C_ReadDataBlock@bufferBlock(4), I2C_Write2ByteRegister@data(2), I2C_Write1ByteRegister@data(1), I2C_Read2ByteR
      +egister@returnValue(2), 
  6252 ;;		 -> NULL(0), I2C_Read1ByteRegister@returnValue(1), 
  6253 ;; Auto vars:     Size  Location     Type
  6254 ;;		None
  6255 ;; Return value:  Size  Location     Type
  6256 ;;                  1    wreg      enum E363
  6257 ;; Registers used:
  6258 ;;		wreg, fsr2l, fsr2h, status,2, status,0, prodl, prodh, cstack
  6259 ;; Tracked objects:
  6260 ;;		On entry : 0/0
  6261 ;;		On exit  : 0/0
  6262 ;;		Unchanged: 0/0
  6263 ;; Data sizes:     COMRAM   BANK0   BANK1   BANK2   BANK3   BANK4   BANK5   BANK6   BANK7   BANK8   BANK9  BANK10  BANK1
      +1  BANK12  BANK13  BANK14  BANK15
  6264 ;;      Params:         2       0       0       0       0       0       0       0       0       0       0       0       
      +0       0       0       0       0
  6265 ;;      Locals:         0       0       0       0       0       0       0       0       0       0       0       0       
      +0       0       0       0       0
  6266 ;;      Temps:          0       0       0       0       0       0       0       0       0       0       0       0       
      +0       0       0       0       0
  6267 ;;      Totals:         2       0       0       0       0       0       0       0       0       0       0       0       
      +0       0       0       0       0
  6268 ;;Total ram usage:        2 bytes
  6269 ;; Hardware stack levels used: 1
  6270 ;; Hardware stack levels required when called: 2
  6271 ;; This function calls:
  6272 ;;		i2_I2C_SetBuffer
  6273 ;;		i2_I2C_SetDataCompleteCallback
  6274 ;; This function is called by:
  6275 ;;		_I2C_Read2ByteRegister
  6276 ;;		_I2C_DO_TX
  6277 ;;		_I2C_DO_RX
  6278 ;;		_I2C_DO_TX_EMPTY
  6279 ;;		_I2C_DO_ADDRESS_NACK
  6280 ;;		_I2C_DO_RX_EMPTY
  6281 ;; This function uses a non-reentrant model
  6282 ;;
  6283                           
  6284                           	psect	text73
  6285   001D9C                     __ptext73:
  6286                           	callstack 0
  6287   001D9C                     _rd2RegCompleteHandler:
  6288                           	callstack 15
  6289   001D9C                     
  6290                           ;mcc_generated_files/examples/i2c_master_example.c: 149: static i2c_operations_t rd2RegC
      +                          ompleteHandler(void *ptr);mcc_generated_files/examples/i2c_master_example.c: 150: {;mcc_
      +                          generated_files/examples/i2c_master_example.c: 151:     I2C_SetBuffer(ptr,2);
  6291   001D9C  C00A  F001         	movff	rd2RegCompleteHandler@ptr,i2I2C_SetBuffer@buffer
  6292   001DA0  C00B  F002         	movff	rd2RegCompleteHandler@ptr+1,i2I2C_SetBuffer@buffer+1
  6293   001DA4  0E00               	movlw	0
  6294   001DA6  6E04               	movwf	(i2I2C_SetBuffer@bufferSize+1)^0,c
  6295   001DA8  0E02               	movlw	2
  6296   001DAA  6E03               	movwf	i2I2C_SetBuffer@bufferSize^0,c
  6297   001DAC  EC22  F00F         	call	i2_I2C_SetBuffer	;wreg free
  6298   001DB0                     
  6299                           ;mcc_generated_files/examples/i2c_master_example.c: 152:     I2C_SetDataCompleteCallback
      +                          (((void*)0),((void*)0));
  6300   001DB0  0E00               	movlw	0
  6301   001DB2  6E06               	movwf	i2I2C_SetDataCompleteCallback@cb^0,c
  6302   001DB4  0E00               	movlw	0
  6303   001DB6  6E07               	movwf	(i2I2C_SetDataCompleteCallback@cb+1)^0,c
  6304   001DB8  0E00               	movlw	0
  6305   001DBA  6E08               	movwf	i2I2C_SetDataCompleteCallback@ptr^0,c
  6306   001DBC  0E00               	movlw	0
  6307   001DBE  6E09               	movwf	(i2I2C_SetDataCompleteCallback@ptr+1)^0,c
  6308   001DC0  EC6A  F00F         	call	i2_I2C_SetDataCompleteCallback	;wreg free
  6309   001DC4                     
  6310                           ;mcc_generated_files/examples/i2c_master_example.c: 153:     return I2C_RESTART_READ;
  6311   001DC4  0E02               	movlw	2
  6312   001DC6  0012               	return		;funcret
  6313   001DC8                     __end_of_rd2RegCompleteHandler:
  6314                           	callstack 0
  6315                           
  6316 ;; *************** function _rd1RegCompleteHandler *****************
  6317 ;; Defined at:
  6318 ;;		line 142 in file "mcc_generated_files/examples/i2c_master_example.c"
  6319 ;; Parameters:    Size  Location     Type
  6320 ;;  ptr             2    9[COMRAM] PTR void 
  6321 ;;		 -> I2C_ReadDataBlock@bufferBlock(4), I2C_Write2ByteRegister@data(2), I2C_Write1ByteRegister@data(1), I2C_Read2ByteR
      +egister@returnValue(2), 
  6322 ;;		 -> NULL(0), I2C_Read1ByteRegister@returnValue(1), 
  6323 ;; Auto vars:     Size  Location     Type
  6324 ;;		None
  6325 ;; Return value:  Size  Location     Type
  6326 ;;                  1    wreg      enum E363
  6327 ;; Registers used:
  6328 ;;		wreg, fsr2l, fsr2h, status,2, status,0, prodl, prodh, cstack
  6329 ;; Tracked objects:
  6330 ;;		On entry : 0/0
  6331 ;;		On exit  : 0/0
  6332 ;;		Unchanged: 0/0
  6333 ;; Data sizes:     COMRAM   BANK0   BANK1   BANK2   BANK3   BANK4   BANK5   BANK6   BANK7   BANK8   BANK9  BANK10  BANK1
      +1  BANK12  BANK13  BANK14  BANK15
  6334 ;;      Params:         2       0       0       0       0       0       0       0       0       0       0       0       
      +0       0       0       0       0
  6335 ;;      Locals:         0       0       0       0       0       0       0       0       0       0       0       0       
      +0       0       0       0       0
  6336 ;;      Temps:          0       0       0       0       0       0       0       0       0       0       0       0       
      +0       0       0       0       0
  6337 ;;      Totals:         2       0       0       0       0       0       0       0       0       0       0       0       
      +0       0       0       0       0
  6338 ;;Total ram usage:        2 bytes
  6339 ;; Hardware stack levels used: 1
  6340 ;; Hardware stack levels required when called: 2
  6341 ;; This function calls:
  6342 ;;		i2_I2C_SetBuffer
  6343 ;;		i2_I2C_SetDataCompleteCallback
  6344 ;; This function is called by:
  6345 ;;		_I2C_Read1ByteRegister
  6346 ;;		_I2C_DO_TX
  6347 ;;		_I2C_DO_RX
  6348 ;;		_I2C_DO_TX_EMPTY
  6349 ;;		_I2C_DO_ADDRESS_NACK
  6350 ;;		_I2C_DO_RX_EMPTY
  6351 ;; This function uses a non-reentrant model
  6352 ;;
  6353                           
  6354                           	psect	text74
  6355   001DC8                     __ptext74:
  6356                           	callstack 0
  6357   001DC8                     _rd1RegCompleteHandler:
  6358                           	callstack 15
  6359   001DC8                     
  6360                           ;mcc_generated_files/examples/i2c_master_example.c: 142: static i2c_operations_t rd1RegC
      +                          ompleteHandler(void *ptr);mcc_generated_files/examples/i2c_master_example.c: 143: {;mcc_
      +                          generated_files/examples/i2c_master_example.c: 144:     I2C_SetBuffer(ptr,1);
  6361   001DC8  C00A  F001         	movff	rd1RegCompleteHandler@ptr,i2I2C_SetBuffer@buffer
  6362   001DCC  C00B  F002         	movff	rd1RegCompleteHandler@ptr+1,i2I2C_SetBuffer@buffer+1
  6363   001DD0  0E00               	movlw	0
  6364   001DD2  6E04               	movwf	(i2I2C_SetBuffer@bufferSize+1)^0,c
  6365   001DD4  0E01               	movlw	1
  6366   001DD6  6E03               	movwf	i2I2C_SetBuffer@bufferSize^0,c
  6367   001DD8  EC22  F00F         	call	i2_I2C_SetBuffer	;wreg free
  6368   001DDC                     
  6369                           ;mcc_generated_files/examples/i2c_master_example.c: 145:     I2C_SetDataCompleteCallback
      +                          (((void*)0),((void*)0));
  6370   001DDC  0E00               	movlw	0
  6371   001DDE  6E06               	movwf	i2I2C_SetDataCompleteCallback@cb^0,c
  6372   001DE0  0E00               	movlw	0
  6373   001DE2  6E07               	movwf	(i2I2C_SetDataCompleteCallback@cb+1)^0,c
  6374   001DE4  0E00               	movlw	0
  6375   001DE6  6E08               	movwf	i2I2C_SetDataCompleteCallback@ptr^0,c
  6376   001DE8  0E00               	movlw	0
  6377   001DEA  6E09               	movwf	(i2I2C_SetDataCompleteCallback@ptr+1)^0,c
  6378   001DEC  EC6A  F00F         	call	i2_I2C_SetDataCompleteCallback	;wreg free
  6379   001DF0                     
  6380                           ;mcc_generated_files/examples/i2c_master_example.c: 146:     return I2C_RESTART_READ;
  6381   001DF0  0E02               	movlw	2
  6382   001DF2  0012               	return		;funcret
  6383   001DF4                     __end_of_rd1RegCompleteHandler:
  6384                           	callstack 0
  6385                           
  6386 ;; *************** function _wr2RegCompleteHandler *****************
  6387 ;; Defined at:
  6388 ;;		line 163 in file "mcc_generated_files/examples/i2c_master_example.c"
  6389 ;; Parameters:    Size  Location     Type
  6390 ;;  ptr             2    9[COMRAM] PTR void 
  6391 ;;		 -> I2C_ReadDataBlock@bufferBlock(4), I2C_Write2ByteRegister@data(2), I2C_Write1ByteRegister@data(1), I2C_Read2ByteR
      +egister@returnValue(2), 
  6392 ;;		 -> NULL(0), I2C_Read1ByteRegister@returnValue(1), 
  6393 ;; Auto vars:     Size  Location     Type
  6394 ;;		None
  6395 ;; Return value:  Size  Location     Type
  6396 ;;                  1    wreg      enum E363
  6397 ;; Registers used:
  6398 ;;		wreg, fsr2l, fsr2h, status,2, status,0, prodl, prodh, cstack
  6399 ;; Tracked objects:
  6400 ;;		On entry : 0/0
  6401 ;;		On exit  : 0/0
  6402 ;;		Unchanged: 0/0
  6403 ;; Data sizes:     COMRAM   BANK0   BANK1   BANK2   BANK3   BANK4   BANK5   BANK6   BANK7   BANK8   BANK9  BANK10  BANK1
      +1  BANK12  BANK13  BANK14  BANK15
  6404 ;;      Params:         2       0       0       0       0       0       0       0       0       0       0       0       
      +0       0       0       0       0
  6405 ;;      Locals:         0       0       0       0       0       0       0       0       0       0       0       0       
      +0       0       0       0       0
  6406 ;;      Temps:          0       0       0       0       0       0       0       0       0       0       0       0       
      +0       0       0       0       0
  6407 ;;      Totals:         2       0       0       0       0       0       0       0       0       0       0       0       
      +0       0       0       0       0
  6408 ;;Total ram usage:        2 bytes
  6409 ;; Hardware stack levels used: 1
  6410 ;; Hardware stack levels required when called: 2
  6411 ;; This function calls:
  6412 ;;		i2_I2C_SetBuffer
  6413 ;;		i2_I2C_SetDataCompleteCallback
  6414 ;; This function is called by:
  6415 ;;		_I2C_Write2ByteRegister
  6416 ;;		_I2C_DO_TX
  6417 ;;		_I2C_DO_RX
  6418 ;;		_I2C_DO_TX_EMPTY
  6419 ;;		_I2C_DO_ADDRESS_NACK
  6420 ;;		_I2C_DO_RX_EMPTY
  6421 ;; This function uses a non-reentrant model
  6422 ;;
  6423                           
  6424                           	psect	text75
  6425   001DF4                     __ptext75:
  6426                           	callstack 0
  6427   001DF4                     _wr2RegCompleteHandler:
  6428                           	callstack 15
  6429   001DF4                     
  6430                           ;mcc_generated_files/examples/i2c_master_example.c: 163: static i2c_operations_t wr2RegC
      +                          ompleteHandler(void *ptr);mcc_generated_files/examples/i2c_master_example.c: 164: {;mcc_
      +                          generated_files/examples/i2c_master_example.c: 165:     I2C_SetBuffer(ptr,2);
  6431   001DF4  C00A  F001         	movff	wr2RegCompleteHandler@ptr,i2I2C_SetBuffer@buffer
  6432   001DF8  C00B  F002         	movff	wr2RegCompleteHandler@ptr+1,i2I2C_SetBuffer@buffer+1
  6433   001DFC  0E00               	movlw	0
  6434   001DFE  6E04               	movwf	(i2I2C_SetBuffer@bufferSize+1)^0,c
  6435   001E00  0E02               	movlw	2
  6436   001E02  6E03               	movwf	i2I2C_SetBuffer@bufferSize^0,c
  6437   001E04  EC22  F00F         	call	i2_I2C_SetBuffer	;wreg free
  6438   001E08                     
  6439                           ;mcc_generated_files/examples/i2c_master_example.c: 166:     I2C_SetDataCompleteCallback
      +                          (((void*)0),((void*)0));
  6440   001E08  0E00               	movlw	0
  6441   001E0A  6E06               	movwf	i2I2C_SetDataCompleteCallback@cb^0,c
  6442   001E0C  0E00               	movlw	0
  6443   001E0E  6E07               	movwf	(i2I2C_SetDataCompleteCallback@cb+1)^0,c
  6444   001E10  0E00               	movlw	0
  6445   001E12  6E08               	movwf	i2I2C_SetDataCompleteCallback@ptr^0,c
  6446   001E14  0E00               	movlw	0
  6447   001E16  6E09               	movwf	(i2I2C_SetDataCompleteCallback@ptr+1)^0,c
  6448   001E18  EC6A  F00F         	call	i2_I2C_SetDataCompleteCallback	;wreg free
  6449   001E1C                     
  6450                           ;mcc_generated_files/examples/i2c_master_example.c: 167:     return I2C_CONTINUE;
  6451   001E1C  0E04               	movlw	4
  6452   001E1E  0012               	return		;funcret
  6453   001E20                     __end_of_wr2RegCompleteHandler:
  6454                           	callstack 0
  6455                           
  6456 ;; *************** function i2_I2C_SetDataCompleteCallback *****************
  6457 ;; Defined at:
  6458 ;;		line 274 in file "mcc_generated_files/i2c_master.c"
  6459 ;; Parameters:    Size  Location     Type
  6460 ;;  cb              2    5[COMRAM] PTR FTN(PTR void ,)enum 
  6461 ;;		 -> NULL(1), rdBlkRegCompleteHandler(1), wr2RegCompleteHandler(1), wr1RegCompleteHandler(1), 
  6462 ;;		 -> rd2RegCompleteHandler(1), rd1RegCompleteHandler(1), 
  6463 ;;  ptr             2    7[COMRAM] PTR void 
  6464 ;;		 -> I2C_ReadDataBlock@bufferBlock(4), I2C_Write2ByteRegister@data(2), I2C_Write1ByteRegister@data(1), I2C_Read2ByteR
      +egister@returnValue(2), 
  6465 ;;		 -> NULL(0), I2C_Read1ByteRegister@returnValue(1), 
  6466 ;; Auto vars:     Size  Location     Type
  6467 ;;		None
  6468 ;; Return value:  Size  Location     Type
  6469 ;;                  1    wreg      void 
  6470 ;; Registers used:
  6471 ;;		wreg, fsr2l, fsr2h, status,2, status,0, prodl, prodh, cstack
  6472 ;; Tracked objects:
  6473 ;;		On entry : 0/0
  6474 ;;		On exit  : 0/0
  6475 ;;		Unchanged: 0/0
  6476 ;; Data sizes:     COMRAM   BANK0   BANK1   BANK2   BANK3   BANK4   BANK5   BANK6   BANK7   BANK8   BANK9  BANK10  BANK1
      +1  BANK12  BANK13  BANK14  BANK15
  6477 ;;      Params:         4       0       0       0       0       0       0       0       0       0       0       0       
      +0       0       0       0       0
  6478 ;;      Locals:         0       0       0       0       0       0       0       0       0       0       0       0       
      +0       0       0       0       0
  6479 ;;      Temps:          0       0       0       0       0       0       0       0       0       0       0       0       
      +0       0       0       0       0
  6480 ;;      Totals:         4       0       0       0       0       0       0       0       0       0       0       0       
      +0       0       0       0       0
  6481 ;;Total ram usage:        4 bytes
  6482 ;; Hardware stack levels used: 1
  6483 ;; Hardware stack levels required when called: 1
  6484 ;; This function calls:
  6485 ;;		i2_I2C_SetCallback
  6486 ;; This function is called by:
  6487 ;;		_rd1RegCompleteHandler
  6488 ;;		_rd2RegCompleteHandler
  6489 ;;		_wr1RegCompleteHandler
  6490 ;;		_wr2RegCompleteHandler
  6491 ;;		_rdBlkRegCompleteHandler
  6492 ;; This function uses a non-reentrant model
  6493 ;;
  6494                           
  6495                           	psect	text76
  6496   001ED4                     __ptext76:
  6497                           	callstack 0
  6498   001ED4                     i2_I2C_SetDataCompleteCallback:
  6499                           	callstack 15
  6500   001ED4                     
  6501                           ;mcc_generated_files/i2c_master.c: 274: void I2C_SetDataCompleteCallback(i2c_callback_t 
      +                          cb, void *ptr);mcc_generated_files/i2c_master.c: 275: {;mcc_generated_files/i2c_master.c
      +                          : 276:     I2C_SetCallback(I2C_DATA_COMPLETE, cb, ptr);
  6502   001ED4  C006  F001         	movff	i2I2C_SetDataCompleteCallback@cb,i2I2C_SetCallback@cb
  6503   001ED8  C007  F002         	movff	i2I2C_SetDataCompleteCallback@cb+1,i2I2C_SetCallback@cb+1
  6504   001EDC  C008  F003         	movff	i2I2C_SetDataCompleteCallback@ptr,i2I2C_SetCallback@ptr
  6505   001EE0  C009  F004         	movff	i2I2C_SetDataCompleteCallback@ptr+1,i2I2C_SetCallback@ptr+1
  6506   001EE4  0E00               	movlw	0
  6507   001EE6  EC6C  F00C         	call	i2_I2C_SetCallback
  6508   001EEA  0012               	return		;funcret
  6509   001EEC                     __end_ofi2_I2C_SetDataCompleteCallback:
  6510                           	callstack 0
  6511                           
  6512 ;; *************** function i2_I2C_SetCallback *****************
  6513 ;; Defined at:
  6514 ;;		line 304 in file "mcc_generated_files/i2c_master.c"
  6515 ;; Parameters:    Size  Location     Type
  6516 ;;  idx             1    wreg     enum E3139
  6517 ;;  cb              2    0[COMRAM] PTR FTN(PTR void ,)enum 
  6518 ;;		 -> NULL(1), rdBlkRegCompleteHandler(1), wr2RegCompleteHandler(1), wr1RegCompleteHandler(1), 
  6519 ;;		 -> rd2RegCompleteHandler(1), rd1RegCompleteHandler(1), 
  6520 ;;  ptr             2    2[COMRAM] PTR void 
  6521 ;;		 -> I2C_ReadDataBlock@bufferBlock(4), I2C_Write2ByteRegister@data(2), I2C_Write1ByteRegister@data(1), I2C_Read2ByteR
      +egister@returnValue(2), 
  6522 ;;		 -> NULL(0), I2C_Read1ByteRegister@returnValue(1), 
  6523 ;; Auto vars:     Size  Location     Type
  6524 ;;  idx             1    4[COMRAM] enum E3139
  6525 ;; Return value:  Size  Location     Type
  6526 ;;                  1    wreg      void 
  6527 ;; Registers used:
  6528 ;;		wreg, fsr2l, fsr2h, status,2, status,0, prodl, prodh
  6529 ;; Tracked objects:
  6530 ;;		On entry : 0/0
  6531 ;;		On exit  : 0/0
  6532 ;;		Unchanged: 0/0
  6533 ;; Data sizes:     COMRAM   BANK0   BANK1   BANK2   BANK3   BANK4   BANK5   BANK6   BANK7   BANK8   BANK9  BANK10  BANK1
      +1  BANK12  BANK13  BANK14  BANK15
  6534 ;;      Params:         4       0       0       0       0       0       0       0       0       0       0       0       
      +0       0       0       0       0
  6535 ;;      Locals:         1       0       0       0       0       0       0       0       0       0       0       0       
      +0       0       0       0       0
  6536 ;;      Temps:          0       0       0       0       0       0       0       0       0       0       0       0       
      +0       0       0       0       0
  6537 ;;      Totals:         5       0       0       0       0       0       0       0       0       0       0       0       
      +0       0       0       0       0
  6538 ;;Total ram usage:        5 bytes
  6539 ;; Hardware stack levels used: 1
  6540 ;; This function calls:
  6541 ;;		Nothing
  6542 ;; This function is called by:
  6543 ;;		i2_I2C_SetDataCompleteCallback
  6544 ;; This function uses a non-reentrant model
  6545 ;;
  6546                           
  6547                           	psect	text77
  6548   0018D8                     __ptext77:
  6549                           	callstack 0
  6550   0018D8                     i2_I2C_SetCallback:
  6551                           	callstack 15
  6552                           
  6553                           ;incstack = 0
  6554                           ;i2I2C_SetCallback@idx stored from wreg
  6555   0018D8  6E05               	movwf	i2I2C_SetCallback@idx^0,c
  6556   0018DA                     
  6557                           ;mcc_generated_files/i2c_master.c: 304: static void I2C_SetCallback(i2c_callbackIndex_t 
      +                          idx, i2c_callback_t cb, void *ptr);mcc_generated_files/i2c_master.c: 305: {;mcc_generate
      +                          d_files/i2c_master.c: 306:     if(cb)
  6558   0018DA  5001               	movf	i2I2C_SetCallback@cb^0,w,c
  6559   0018DC  1002               	iorwf	(i2I2C_SetCallback@cb+1)^0,w,c
  6560   0018DE  B4D8               	btfsc	status,2,c
  6561   0018E0  EF74  F00C         	goto	i2u88_41
  6562   0018E4  EF76  F00C         	goto	i2u88_40
  6563   0018E8                     i2u88_41:
  6564   0018E8  EF90  F00C         	goto	i2l2696
  6565   0018EC                     i2u88_40:
  6566   0018EC                     
  6567                           ;mcc_generated_files/i2c_master.c: 307:     {;mcc_generated_files/i2c_master.c: 308:    
      +                               I2C_Status.callbackTable[idx] = cb;
  6568   0018EC  5005               	movf	i2I2C_SetCallback@idx^0,w,c
  6569   0018EE  0D02               	mullw	2
  6570   0018F0  0EB6               	movlw	low _I2C_Status
  6571   0018F2  24F3               	addwf	243,w,c
  6572   0018F4  6ED9               	movwf	fsr2l,c
  6573   0018F6  0E00               	movlw	high _I2C_Status
  6574   0018F8  20F4               	addwfc	prodh,w,c
  6575   0018FA  6EDA               	movwf	fsr2h,c
  6576   0018FC  C001  FFDE         	movff	i2I2C_SetCallback@cb,postinc2
  6577   001900  C002  FFDD         	movff	i2I2C_SetCallback@cb+1,postdec2
  6578                           
  6579                           ;mcc_generated_files/i2c_master.c: 309:         I2C_Status.callbackPayload[idx] = ptr;
  6580   001904  5005               	movf	i2I2C_SetCallback@idx^0,w,c
  6581   001906  0D02               	mullw	2
  6582   001908  0EC2               	movlw	low (_I2C_Status+12)
  6583   00190A  24F3               	addwf	243,w,c
  6584   00190C  6ED9               	movwf	fsr2l,c
  6585   00190E  0E00               	movlw	high (_I2C_Status+12)
  6586   001910  20F4               	addwfc	prodh,w,c
  6587   001912  6EDA               	movwf	fsr2h,c
  6588   001914  C003  FFDE         	movff	i2I2C_SetCallback@ptr,postinc2
  6589   001918  C004  FFDD         	movff	i2I2C_SetCallback@ptr+1,postdec2
  6590                           
  6591                           ;mcc_generated_files/i2c_master.c: 310:     }
  6592   00191C  EFA6  F00C         	goto	i2l522
  6593   001920                     i2l2696:
  6594                           
  6595                           ;mcc_generated_files/i2c_master.c: 312:     {;mcc_generated_files/i2c_master.c: 313:    
      +                               I2C_Status.callbackTable[idx] = I2C_CallbackReturnStop;
  6596   001920  5005               	movf	i2I2C_SetCallback@idx^0,w,c
  6597   001922  0D02               	mullw	2
  6598   001924  0EB6               	movlw	low _I2C_Status
  6599   001926  24F3               	addwf	243,w,c
  6600   001928  6ED9               	movwf	fsr2l,c
  6601   00192A  0E00               	movlw	high _I2C_Status
  6602   00192C  20F4               	addwfc	prodh,w,c
  6603   00192E  6EDA               	movwf	fsr2h,c
  6604   001930  0E58               	movlw	low _I2C_CallbackReturnStop
  6605   001932  6EDE               	movwf	postinc2,c
  6606   001934  0E20               	movlw	high _I2C_CallbackReturnStop
  6607   001936  6EDD               	movwf	postdec2,c
  6608                           
  6609                           ;mcc_generated_files/i2c_master.c: 314:         I2C_Status.callbackPayload[idx] = ((void
      +                          *)0);
  6610   001938  5005               	movf	i2I2C_SetCallback@idx^0,w,c
  6611   00193A  0D02               	mullw	2
  6612   00193C  0EC2               	movlw	low (_I2C_Status+12)
  6613   00193E  24F3               	addwf	243,w,c
  6614   001940  6ED9               	movwf	fsr2l,c
  6615   001942  0E00               	movlw	high (_I2C_Status+12)
  6616   001944  20F4               	addwfc	prodh,w,c
  6617   001946  6EDA               	movwf	fsr2h,c
  6618   001948  6ADE               	clrf	postinc2,c
  6619   00194A  6ADD               	clrf	postdec2,c
  6620   00194C                     i2l522:
  6621   00194C  0012               	return		;funcret
  6622   00194E                     __end_ofi2_I2C_SetCallback:
  6623                           	callstack 0
  6624                           
  6625 ;; *************** function i2_I2C_SetBuffer *****************
  6626 ;; Defined at:
  6627 ;;		line 264 in file "mcc_generated_files/i2c_master.c"
  6628 ;; Parameters:    Size  Location     Type
  6629 ;;  buffer          2    0[COMRAM] PTR void 
  6630 ;;		 -> I2C_Read1ByteRegister@returnValue.data(3), I2C_Read2ByteRegister@returnValue.data(3), I2C_Write1ByteRegister@dat
      +a.data(3), I2C_Write2ByteRegister@data.data(3), 
  6631 ;;		 -> I2C_ReadDataBlock@reg(1), I2C_ReadDataBlock@bufferBlock(4), bufferBlock.data(3), I2C_Write2ByteRegister@reg(1), 
  6632 ;;		 -> I2C_Write2ByteRegister@data(2), I2C_Write1ByteRegister@reg(1), I2C_Write1ByteRegister@data(1), I2C_Read2ByteRegi
      +ster@reg(1), 
  6633 ;;		 -> I2C_Read2ByteRegister@returnValue(2), NULL(0), I2C_Read1ByteRegister@reg(1), I2C_Read1ByteRegister@returnValue(1
      +), 
  6634 ;;  bufferSize      2    2[COMRAM] unsigned int 
  6635 ;; Auto vars:     Size  Location     Type
  6636 ;;		None
  6637 ;; Return value:  Size  Location     Type
  6638 ;;                  1    wreg      void 
  6639 ;; Registers used:
  6640 ;;		wreg, status,2, status,0
  6641 ;; Tracked objects:
  6642 ;;		On entry : 0/0
  6643 ;;		On exit  : 0/0
  6644 ;;		Unchanged: 0/0
  6645 ;; Data sizes:     COMRAM   BANK0   BANK1   BANK2   BANK3   BANK4   BANK5   BANK6   BANK7   BANK8   BANK9  BANK10  BANK1
      +1  BANK12  BANK13  BANK14  BANK15
  6646 ;;      Params:         4       0       0       0       0       0       0       0       0       0       0       0       
      +0       0       0       0       0
  6647 ;;      Locals:         0       0       0       0       0       0       0       0       0       0       0       0       
      +0       0       0       0       0
  6648 ;;      Temps:          0       0       0       0       0       0       0       0       0       0       0       0       
      +0       0       0       0       0
  6649 ;;      Totals:         4       0       0       0       0       0       0       0       0       0       0       0       
      +0       0       0       0       0
  6650 ;;Total ram usage:        4 bytes
  6651 ;; Hardware stack levels used: 1
  6652 ;; This function calls:
  6653 ;;		Nothing
  6654 ;; This function is called by:
  6655 ;;		_rd1RegCompleteHandler
  6656 ;;		_rd2RegCompleteHandler
  6657 ;;		_wr1RegCompleteHandler
  6658 ;;		_wr2RegCompleteHandler
  6659 ;;		_rdBlkRegCompleteHandler
  6660 ;; This function uses a non-reentrant model
  6661 ;;
  6662                           
  6663                           	psect	text78
  6664   001E44                     __ptext78:
  6665                           	callstack 0
  6666   001E44                     i2_I2C_SetBuffer:
  6667                           	callstack 16
  6668   001E44                     
  6669                           ;mcc_generated_files/i2c_master.c: 264: void I2C_SetBuffer(void *buffer, size_t bufferSi
      +                          ze);mcc_generated_files/i2c_master.c: 265: {;mcc_generated_files/i2c_master.c: 266:     
      +                          if(I2C_Status.bufferFree)
  6670   001E44  0100               	movlb	0	; () banked
  6671   001E46  A7D9               	btfss	(_I2C_Status+35)& (0+255),3,b
  6672   001E48  EF28  F00F         	goto	i2u95_41
  6673   001E4C  EF2A  F00F         	goto	i2u95_40
  6674   001E50                     i2u95_41:
  6675   001E50  EF33  F00F         	goto	i2l499
  6676   001E54                     i2u95_40:
  6677   001E54                     
  6678                           ; BSR set to: 0
  6679                           ;mcc_generated_files/i2c_master.c: 267:     {;mcc_generated_files/i2c_master.c: 268:    
      +                               I2C_Status.data_ptr = buffer;
  6680   001E54  C001  F0D3         	movff	i2I2C_SetBuffer@buffer,_I2C_Status+29
  6681   001E58  C002  F0D4         	movff	i2I2C_SetBuffer@buffer+1,_I2C_Status+30
  6682   001E5C                     
  6683                           ; BSR set to: 0
  6684                           ;mcc_generated_files/i2c_master.c: 269:         I2C_Status.data_length = bufferSize;
  6685   001E5C  C003  F0D5         	movff	i2I2C_SetBuffer@bufferSize,_I2C_Status+31
  6686   001E60  C004  F0D6         	movff	i2I2C_SetBuffer@bufferSize+1,_I2C_Status+32
  6687   001E64                     
  6688                           ; BSR set to: 0
  6689                           ;mcc_generated_files/i2c_master.c: 270:         I2C_Status.bufferFree = 0;
  6690   001E64  97D9               	bcf	(_I2C_Status+35)& (0+255),3,b
  6691   001E66                     i2l499:
  6692                           
  6693                           ; BSR set to: 0
  6694   001E66  0012               	return		;funcret
  6695   001E68                     __end_ofi2_I2C_SetBuffer:
  6696                           	callstack 0
  6697                           
  6698 ;; *************** function _I2C_MasterStop *****************
  6699 ;; Defined at:
  6700 ;;		line 594 in file "mcc_generated_files/i2c_master.c"
  6701 ;; Parameters:    Size  Location     Type
  6702 ;;		None
  6703 ;; Auto vars:     Size  Location     Type
  6704 ;;		None
  6705 ;; Return value:  Size  Location     Type
  6706 ;;                  1    wreg      void 
  6707 ;; Registers used:
  6708 ;;		None
  6709 ;; Tracked objects:
  6710 ;;		On entry : 0/0
  6711 ;;		On exit  : 0/0
  6712 ;;		Unchanged: 0/0
  6713 ;; Data sizes:     COMRAM   BANK0   BANK1   BANK2   BANK3   BANK4   BANK5   BANK6   BANK7   BANK8   BANK9  BANK10  BANK1
      +1  BANK12  BANK13  BANK14  BANK15
  6714 ;;      Params:         0       0       0       0       0       0       0       0       0       0       0       0       
      +0       0       0       0       0
  6715 ;;      Locals:         0       0       0       0       0       0       0       0       0       0       0       0       
      +0       0       0       0       0
  6716 ;;      Temps:          0       0       0       0       0       0       0       0       0       0       0       0       
      +0       0       0       0       0
  6717 ;;      Totals:         0       0       0       0       0       0       0       0       0       0       0       0       
      +0       0       0       0       0
  6718 ;;Total ram usage:        0 bytes
  6719 ;; Hardware stack levels used: 1
  6720 ;; This function calls:
  6721 ;;		Nothing
  6722 ;; This function is called by:
  6723 ;;		_I2C_DO_SEND_STOP
  6724 ;; This function uses a non-reentrant model
  6725 ;;
  6726                           
  6727                           	psect	text79
  6728   00205C                     __ptext79:
  6729                           	callstack 0
  6730   00205C                     _I2C_MasterStop:
  6731                           	callstack 16
  6732   00205C                     
  6733                           ;mcc_generated_files/i2c_master.c: 596:     SSPCON2bits.PEN = 1;
  6734   00205C  84C5               	bsf	197,2,c	;volatile
  6735   00205E  0012               	return		;funcret
  6736   002060                     __end_of_I2C_MasterStop:
  6737                           	callstack 0
  6738                           
  6739 ;; *************** function _I2C_MasterEnableRestart *****************
  6740 ;; Defined at:
  6741 ;;		line 574 in file "mcc_generated_files/i2c_master.c"
  6742 ;; Parameters:    Size  Location     Type
  6743 ;;		None
  6744 ;; Auto vars:     Size  Location     Type
  6745 ;;		None
  6746 ;; Return value:  Size  Location     Type
  6747 ;;                  1    wreg      void 
  6748 ;; Registers used:
  6749 ;;		None
  6750 ;; Tracked objects:
  6751 ;;		On entry : 0/0
  6752 ;;		On exit  : 0/0
  6753 ;;		Unchanged: 0/0
  6754 ;; Data sizes:     COMRAM   BANK0   BANK1   BANK2   BANK3   BANK4   BANK5   BANK6   BANK7   BANK8   BANK9  BANK10  BANK1
      +1  BANK12  BANK13  BANK14  BANK15
  6755 ;;      Params:         0       0       0       0       0       0       0       0       0       0       0       0       
      +0       0       0       0       0
  6756 ;;      Locals:         0       0       0       0       0       0       0       0       0       0       0       0       
      +0       0       0       0       0
  6757 ;;      Temps:          0       0       0       0       0       0       0       0       0       0       0       0       
      +0       0       0       0       0
  6758 ;;      Totals:         0       0       0       0       0       0       0       0       0       0       0       0       
      +0       0       0       0       0
  6759 ;;Total ram usage:        0 bytes
  6760 ;; Hardware stack levels used: 1
  6761 ;; This function calls:
  6762 ;;		Nothing
  6763 ;; This function is called by:
  6764 ;;		_I2C_DO_SEND_RESTART_READ
  6765 ;;		_I2C_DO_SEND_RESTART_WRITE
  6766 ;;		_I2C_DO_SEND_RESTART
  6767 ;;		_I2C_DO_RX_EMPTY
  6768 ;; This function uses a non-reentrant model
  6769 ;;
  6770                           
  6771                           	psect	text80
  6772   002060                     __ptext80:
  6773                           	callstack 0
  6774   002060                     _I2C_MasterEnableRestart:
  6775                           	callstack 16
  6776   002060                     
  6777                           ;mcc_generated_files/i2c_master.c: 576:     SSPCON2bits.RSEN = 1;
  6778   002060  82C5               	bsf	197,1,c	;volatile
  6779   002062  0012               	return		;funcret
  6780   002064                     __end_of_I2C_MasterEnableRestart:
  6781                           	callstack 0
  6782                           
  6783                           	psect	text81
  6784   000000                     __ptext81:
  6785                           	callstack 0
  6786   000000                     
  6787                           	psect	rparam
  6788   000000                     
  6789                           	psect	temp
  6790   000045                     btemp:
  6791                           	callstack 0
  6792   000045                     	ds	1
  6793   000000                     int$flags	set	btemp
  6794   000000                     wtemp8	set	btemp+1
  6795   000000                     ttemp5	set	btemp+1
  6796   000000                     ttemp6	set	btemp+4
  6797   000000                     ttemp7	set	btemp+8
  6798                           
  6799                           	psect	idloc
  6800                           
  6801                           ;Config register IDLOC0 @ 0x200000
  6802                           ;	unspecified, using default values
  6803   200000                     	org	2097152
  6804   200000  FF                 	db	255
  6805                           
  6806                           ;Config register IDLOC1 @ 0x200001
  6807                           ;	unspecified, using default values
  6808   200001                     	org	2097153
  6809   200001  FF                 	db	255
  6810                           
  6811                           ;Config register IDLOC2 @ 0x200002
  6812                           ;	unspecified, using default values
  6813   200002                     	org	2097154
  6814   200002  FF                 	db	255
  6815                           
  6816                           ;Config register IDLOC3 @ 0x200003
  6817                           ;	unspecified, using default values
  6818   200003                     	org	2097155
  6819   200003  FF                 	db	255
  6820                           
  6821                           ;Config register IDLOC4 @ 0x200004
  6822                           ;	unspecified, using default values
  6823   200004                     	org	2097156
  6824   200004  FF                 	db	255
  6825                           
  6826                           ;Config register IDLOC5 @ 0x200005
  6827                           ;	unspecified, using default values
  6828   200005                     	org	2097157
  6829   200005  FF                 	db	255
  6830                           
  6831                           ;Config register IDLOC6 @ 0x200006
  6832                           ;	unspecified, using default values
  6833   200006                     	org	2097158
  6834   200006  FF                 	db	255
  6835                           
  6836                           ;Config register IDLOC7 @ 0x200007
  6837                           ;	unspecified, using default values
  6838   200007                     	org	2097159
  6839   200007  FF                 	db	255
  6840                           
  6841                           	psect	config
  6842                           
  6843                           ; Padding undefined space
  6844   300000                     	org	3145728
  6845   300000  FF                 	db	255
  6846                           
  6847                           ;Config register CONFIG1H @ 0x300001
  6848                           ;	Oscillator Selection bits
  6849                           ;	FOSC = HS, HS oscillator
  6850                           ;	Fail-Safe Clock Monitor Enable bit
  6851                           ;	FCMEN = OFF, Fail-Safe Clock Monitor disabled
  6852                           ;	Internal/External Oscillator Switchover bit
  6853                           ;	IESO = OFF, Oscillator Switchover mode disabled
  6854   300001                     	org	3145729
  6855   300001  02                 	db	2
  6856                           
  6857                           ;Config register CONFIG2L @ 0x300002
  6858                           ;	Power-up Timer Enable bit
  6859                           ;	PWRTEN = OFF, PWRT disabled
  6860                           ;	Brown-out Reset Enable bits
  6861                           ;	BOREN = SBORDIS, Brown-out Reset enabled in hardware only (SBOREN is disabled)
  6862                           ;	Brown Out Reset Voltage bits
  6863                           ;	BORV = 18, VBOR set to 1.8 V nominal
  6864   300002                     	org	3145730
  6865   300002  1F                 	db	31
  6866                           
  6867                           ;Config register CONFIG2H @ 0x300003
  6868                           ;	Watchdog Timer Enable bit
  6869                           ;	WDTEN = OFF, WDT is controlled by SWDTEN bit of the WDTCON register
  6870                           ;	Watchdog Timer Postscale Select bits
  6871                           ;	WDTPS = 32768, 1:32768
  6872   300003                     	org	3145731
  6873   300003  1E                 	db	30
  6874                           
  6875                           ; Padding undefined space
  6876   300004                     	org	3145732
  6877   300004  FF                 	db	255
  6878                           
  6879                           ;Config register CONFIG3H @ 0x300005
  6880                           ;	CCP2 MUX bit
  6881                           ;	CCP2MX = PORTC, CCP2 input/output is multiplexed with RC1
  6882                           ;	PORTB A/D Enable bit
  6883                           ;	PBADEN = ON, PORTB<4:0> pins are configured as analog input channels on Reset
  6884                           ;	Low-Power Timer1 Oscillator Enable bit
  6885                           ;	LPT1OSC = OFF, Timer1 configured for higher power operation
  6886                           ;	HFINTOSC Fast Start-up
  6887                           ;	HFOFST = ON, HFINTOSC starts clocking the CPU without waiting for the oscillator to st
      +                          ablize.
  6888                           ;	MCLR Pin Enable bit
  6889                           ;	MCLRE = ON, MCLR pin enabled; RE3 input pin disabled
  6890   300005                     	org	3145733
  6891   300005  8B                 	db	139
  6892                           
  6893                           ;Config register CONFIG4L @ 0x300006
  6894                           ;	Stack Full/Underflow Reset Enable bit
  6895                           ;	STVREN = ON, Stack full/underflow will cause Reset
  6896                           ;	Single-Supply ICSP Enable bit
  6897                           ;	LVP = ON, Single-Supply ICSP enabled
  6898                           ;	Extended Instruction Set Enable bit
  6899                           ;	XINST = OFF, Instruction set extension and Indexed Addressing mode disabled (Legacy mo
      +                          de)
  6900                           ;	Background Debugger Enable bit
  6901                           ;	DEBUG = OFF, Background debugger disabled, RB6 and RB7 configured as general purpose I
      +                          /O pins
  6902   300006                     	org	3145734
  6903   300006  85                 	db	133
  6904                           
  6905                           ; Padding undefined space
  6906   300007                     	org	3145735
  6907   300007  FF                 	db	255
  6908                           
  6909                           ;Config register CONFIG5L @ 0x300008
  6910                           ;	Code Protection Block 0
  6911                           ;	CP0 = OFF, Block 0 (000800-003FFFh) not code-protected
  6912                           ;	Code Protection Block 1
  6913                           ;	CP1 = OFF, Block 1 (004000-007FFFh) not code-protected
  6914                           ;	Code Protection Block 2
  6915                           ;	CP2 = OFF, Block 2 (008000-00BFFFh) not code-protected
  6916                           ;	Code Protection Block 3
  6917                           ;	CP3 = OFF, Block 3 (00C000-00FFFFh) not code-protected
  6918   300008                     	org	3145736
  6919   300008  0F                 	db	15
  6920                           
  6921                           ;Config register CONFIG5H @ 0x300009
  6922                           ;	Boot Block Code Protection bit
  6923                           ;	CPB = OFF, Boot block (000000-0007FFh) not code-protected
  6924                           ;	Data EEPROM Code Protection bit
  6925                           ;	CPD = OFF, Data EEPROM not code-protected
  6926   300009                     	org	3145737
  6927   300009  C0                 	db	192
  6928                           
  6929                           ;Config register CONFIG6L @ 0x30000A
  6930                           ;	Write Protection Block 0
  6931                           ;	WRT0 = OFF, Block 0 (000800-003FFFh) not write-protected
  6932                           ;	Write Protection Block 1
  6933                           ;	WRT1 = OFF, Block 1 (004000-007FFFh) not write-protected
  6934                           ;	Write Protection Block 2
  6935                           ;	WRT2 = OFF, Block 2 (008000-00BFFFh) not write-protected
  6936                           ;	Write Protection Block 3
  6937                           ;	WRT3 = OFF, Block 3 (00C000h-00FFFFh) not write-protected
  6938   30000A                     	org	3145738
  6939   30000A  0F                 	db	15
  6940                           
  6941                           ;Config register CONFIG6H @ 0x30000B
  6942                           ;	Configuration Register Write Protection bit
  6943                           ;	WRTC = OFF, Configuration registers (300000-3000FFh) not write-protected
  6944                           ;	Boot Block Write Protection bit
  6945                           ;	WRTB = OFF, Boot Block (000000-0007FFh) not write-protected
  6946                           ;	Data EEPROM Write Protection bit
  6947                           ;	WRTD = OFF, Data EEPROM not write-protected
  6948   30000B                     	org	3145739
  6949   30000B  E0                 	db	224
  6950                           
  6951                           ;Config register CONFIG7L @ 0x30000C
  6952                           ;	Table Read Protection Block 0
  6953                           ;	EBTR0 = OFF, Block 0 (000800-003FFFh) not protected from table reads executed in other
      +                           blocks
  6954                           ;	Table Read Protection Block 1
  6955                           ;	EBTR1 = OFF, Block 1 (004000-007FFFh) not protected from table reads executed in other
      +                           blocks
  6956                           ;	Table Read Protection Block 2
  6957                           ;	EBTR2 = OFF, Block 2 (008000-00BFFFh) not protected from table reads executed in other
      +                           blocks
  6958                           ;	Table Read Protection Block 3
  6959                           ;	EBTR3 = OFF, Block 3 (00C000-00FFFFh) not protected from table reads executed in other
      +                           blocks
  6960   30000C                     	org	3145740
  6961   30000C  0F                 	db	15
  6962                           
  6963                           ;Config register CONFIG7H @ 0x30000D
  6964                           ;	Boot Block Table Read Protection bit
  6965                           ;	EBTRB = OFF, Boot Block (000000-0007FFh) not protected from table reads executed in ot
      +                          her blocks
  6966   30000D                     	org	3145741
  6967   30000D  40                 	db	64
  6968                           tosu	equ	0xFFF
  6969                           tosh	equ	0xFFE
  6970                           tosl	equ	0xFFD
  6971                           stkptr	equ	0xFFC
  6972                           pclatu	equ	0xFFB
  6973                           pclath	equ	0xFFA
  6974                           pcl	equ	0xFF9
  6975                           tblptru	equ	0xFF8
  6976                           tblptrh	equ	0xFF7
  6977                           tblptrl	equ	0xFF6
  6978                           tablat	equ	0xFF5
  6979                           prodh	equ	0xFF4
  6980                           prodl	equ	0xFF3
  6981                           indf0	equ	0xFEF
  6982                           postinc0	equ	0xFEE
  6983                           postdec0	equ	0xFED
  6984                           preinc0	equ	0xFEC
  6985                           plusw0	equ	0xFEB
  6986                           fsr0h	equ	0xFEA
  6987                           fsr0l	equ	0xFE9
  6988                           wreg	equ	0xFE8
  6989                           indf1	equ	0xFE7
  6990                           postinc1	equ	0xFE6
  6991                           postdec1	equ	0xFE5
  6992                           preinc1	equ	0xFE4
  6993                           plusw1	equ	0xFE3
  6994                           fsr1h	equ	0xFE2
  6995                           fsr1l	equ	0xFE1
  6996                           bsr	equ	0xFE0
  6997                           indf2	equ	0xFDF
  6998                           postinc2	equ	0xFDE
  6999                           postdec2	equ	0xFDD
  7000                           preinc2	equ	0xFDC
  7001                           plusw2	equ	0xFDB
  7002                           fsr2h	equ	0xFDA
  7003                           fsr2l	equ	0xFD9
  7004                           status	equ	0xFD8

Data Sizes:
    Strings     33
    Constant    32
    Data        0
    BSS         143
    Persistent  6
    Stack       0

Auto Spaces:
    Space          Size  Autos    Used
    COMRAM           94     42      68
    BANK0           160     86     159
    BANK1           256      2      52
    BANK2           256      0       0
    BANK3           256      0       0
    BANK4           256      0       0
    BANK5           256      0       0
    BANK6           256      0       0
    BANK7           256      0       0
    BANK8           256      0       0
    BANK9           256      0       0
    BANK10          256      0       0
    BANK11          256      0       0
    BANK12          256      0       0
    BANK13          256      0       0
    BANK14          256      0       0
    BANK15           96      0       0

Pointer List with Targets:

    I2C_Read1ByteRegister@returnValue.data	PTR unsigned char  size(2) Largest target is 0

    I2C_Read2ByteRegister@returnValue.data	PTR unsigned char  size(2) Largest target is 0

    I2C_Write1ByteRegister@data.data	PTR unsigned char  size(2) Largest target is 0

    I2C_Write2ByteRegister@data.data	PTR unsigned char  size(2) Largest target is 0

    I2C_DO_TX$2642$0	PTR void  size(2) Largest target is 5
		 -> I2C_ReadDataBlock@bufferBlock(COMRAM[4]), I2C_Write2ByteRegister@data(COMRAM[2]), I2C_Write1ByteRegister@data(COMRAM[1]), I2C_Read2ByteRegister@returnValue(COMRAM[2]), 
		 -> NULL(NULL[0]), I2C_Read1ByteRegister@returnValue(COMRAM[1]), 

    I2C_DO_RX$2648$0	PTR void  size(2) Largest target is 5
		 -> I2C_ReadDataBlock@bufferBlock(COMRAM[4]), I2C_Write2ByteRegister@data(COMRAM[2]), I2C_Write1ByteRegister@data(COMRAM[1]), I2C_Read2ByteRegister@returnValue(COMRAM[2]), 
		 -> NULL(NULL[0]), I2C_Read1ByteRegister@returnValue(COMRAM[1]), 

    I2C_DO_TX_EMPTY$2654$0	PTR void  size(2) Largest target is 5
		 -> I2C_ReadDataBlock@bufferBlock(COMRAM[4]), I2C_Write2ByteRegister@data(COMRAM[2]), I2C_Write1ByteRegister@data(COMRAM[1]), I2C_Read2ByteRegister@returnValue(COMRAM[2]), 
		 -> NULL(NULL[0]), I2C_Read1ByteRegister@returnValue(COMRAM[1]), 

    I2C_DO_RX_EMPTY$2660$0	PTR void  size(2) Largest target is 5
		 -> I2C_ReadDataBlock@bufferBlock(COMRAM[4]), I2C_Write2ByteRegister@data(COMRAM[2]), I2C_Write1ByteRegister@data(COMRAM[1]), I2C_Read2ByteRegister@returnValue(COMRAM[2]), 
		 -> NULL(NULL[0]), I2C_Read1ByteRegister@returnValue(COMRAM[1]), 

    I2C_DO_TX_EMPTY$2659	PTR void  size(2) Largest target is 5
		 -> I2C_ReadDataBlock@bufferBlock(COMRAM[4]), I2C_Write2ByteRegister@data(COMRAM[2]), I2C_Write1ByteRegister@data(COMRAM[1]), I2C_Read2ByteRegister@returnValue(COMRAM[2]), 
		 -> NULL(NULL[0]), I2C_Read1ByteRegister@returnValue(COMRAM[1]), 

    I2C_DO_TX_EMPTY$2654	PTR FTN(PTR void ,)enum E363 size(2) Largest target is 1
		 -> I2C_CallbackReturnReset(), I2C_CallbackReturnStop(), NULL(), rdBlkRegCompleteHandler(), 
		 -> wr2RegCompleteHandler(), wr1RegCompleteHandler(), rd2RegCompleteHandler(), rd1RegCompleteHandler(), 

    I2C_DO_RX$2653	PTR void  size(2) Largest target is 5
		 -> I2C_ReadDataBlock@bufferBlock(COMRAM[4]), I2C_Write2ByteRegister@data(COMRAM[2]), I2C_Write1ByteRegister@data(COMRAM[1]), I2C_Read2ByteRegister@returnValue(COMRAM[2]), 
		 -> NULL(NULL[0]), I2C_Read1ByteRegister@returnValue(COMRAM[1]), 

    I2C_DO_RX$2648	PTR FTN(PTR void ,)enum E363 size(2) Largest target is 1
		 -> I2C_CallbackReturnReset(), I2C_CallbackReturnStop(), NULL(), rdBlkRegCompleteHandler(), 
		 -> wr2RegCompleteHandler(), wr1RegCompleteHandler(), rd2RegCompleteHandler(), rd1RegCompleteHandler(), 

    I2C_DO_TX$2647	PTR void  size(2) Largest target is 5
		 -> I2C_ReadDataBlock@bufferBlock(COMRAM[4]), I2C_Write2ByteRegister@data(COMRAM[2]), I2C_Write1ByteRegister@data(COMRAM[1]), I2C_Read2ByteRegister@returnValue(COMRAM[2]), 
		 -> NULL(NULL[0]), I2C_Read1ByteRegister@returnValue(COMRAM[1]), 

    I2C_DO_TX$2642	PTR FTN(PTR void ,)enum E363 size(2) Largest target is 1
		 -> I2C_CallbackReturnReset(), I2C_CallbackReturnStop(), NULL(), rdBlkRegCompleteHandler(), 
		 -> wr2RegCompleteHandler(), wr1RegCompleteHandler(), rd2RegCompleteHandler(), rd1RegCompleteHandler(), 

    I2C_MasterFsm$2641	const PTR FTN()enum E3121 size(2) Largest target is 1
		 -> I2C_DO_ADDRESS_NACK(), I2C_DO_RESET(), I2C_DO_RX_NACK_RESTART(), I2C_DO_RX_NACK_STOP(), 
		 -> I2C_DO_RX_ACK(), I2C_DO_SEND_STOP(), I2C_DO_SEND_RESTART(), I2C_DO_SEND_RESTART_WRITE(), 
		 -> I2C_DO_SEND_RESTART_READ(), I2C_DO_TX_EMPTY(), I2C_DO_RCEN(), I2C_DO_RX(), 
		 -> I2C_DO_TX(), I2C_DO_SEND_ADR_WRITE(), I2C_DO_SEND_ADR_READ(), I2C_DO_IDLE(), 

    I2C_CallbackReturnStop@funPtr	PTR void  size(2) Largest target is 5
		 -> I2C_ReadDataBlock@bufferBlock(COMRAM[4]), I2C_Write2ByteRegister@data(COMRAM[2]), I2C_Write1ByteRegister@data(COMRAM[1]), I2C_Read2ByteRegister@returnValue(COMRAM[2]), 
		 -> NULL(NULL[0]), I2C_Read1ByteRegister@returnValue(COMRAM[1]), 

    I2C_CallbackReturnReset@funPtr	PTR void  size(2) Largest target is 5
		 -> I2C_ReadDataBlock@bufferBlock(COMRAM[4]), I2C_Write2ByteRegister@data(COMRAM[2]), I2C_Write1ByteRegister@data(COMRAM[1]), I2C_Read2ByteRegister@returnValue(COMRAM[2]), 
		 -> NULL(NULL[0]), I2C_Read1ByteRegister@returnValue(COMRAM[1]), 

    cb$0	PTR void  size(2) Largest target is 5
		 -> I2C_ReadDataBlock@bufferBlock(COMRAM[4]), I2C_Write2ByteRegister@data(COMRAM[2]), I2C_Write1ByteRegister@data(COMRAM[1]), I2C_Read2ByteRegister@returnValue(COMRAM[2]), 
		 -> NULL(NULL[0]), I2C_Read1ByteRegister@returnValue(COMRAM[1]), 

    NULL$0	PTR void  size(2) Largest target is 5
		 -> I2C_ReadDataBlock@bufferBlock(COMRAM[4]), I2C_Write2ByteRegister@data(COMRAM[2]), I2C_Write1ByteRegister@data(COMRAM[1]), I2C_Read2ByteRegister@returnValue(COMRAM[2]), 
		 -> NULL(NULL[0]), I2C_Read1ByteRegister@returnValue(COMRAM[1]), 

    cb$0	PTR void  size(2) Largest target is 5
		 -> I2C_ReadDataBlock@bufferBlock(COMRAM[4]), I2C_Write2ByteRegister@data(COMRAM[2]), I2C_Write1ByteRegister@data(COMRAM[1]), I2C_Read2ByteRegister@returnValue(COMRAM[2]), 
		 -> NULL(NULL[0]), I2C_Read1ByteRegister@returnValue(COMRAM[1]), 

    S1062$0$0	PTR void  size(2) Largest target is 5
		 -> I2C_ReadDataBlock@bufferBlock(COMRAM[4]), I2C_Write2ByteRegister@data(COMRAM[2]), I2C_Write1ByteRegister@data(COMRAM[1]), I2C_Read2ByteRegister@returnValue(COMRAM[2]), 
		 -> NULL(NULL[0]), I2C_Read1ByteRegister@returnValue(COMRAM[1]), 

    fputs@s	PTR const unsigned char  size(2) Largest target is 32
		 -> dbuf(BANK0[32]), 

    fputs@fp	PTR struct _IO_FILE size(2) Largest target is 12
		 -> sprintf@f(BANK0[12]), 

    fputc@fp...source	PTR const unsigned char  size(2) Largest target is 0

    fputc@fp...buffer	PTR unsigned char  size(2) Largest target is 0

    fputc@fp	PTR struct _IO_FILE size(2) Largest target is 12
		 -> sprintf@f(BANK0[12]), 

    vfprintf@ap	PTR PTR void  size(2) Largest target is 2
		 -> sprintf@ap(BANK0[2]), 

    vfprintf@fp	PTR struct _IO_FILE size(2) Largest target is 12
		 -> sprintf@f(BANK0[12]), 

    vfprintf@fmt	PTR const unsigned char  size(2) Largest target is 33
		 -> STR_1(CODE[33]), 

    vfprintf@cfmt	PTR unsigned char  size(2) Largest target is 33
		 -> STR_1(CODE[33]), 

    vfpfcnvrt@fp	PTR struct _IO_FILE size(2) Largest target is 12
		 -> sprintf@f(BANK0[12]), 

    vfpfcnvrt@ap	PTR PTR void  size(2) Largest target is 2
		 -> sprintf@ap(BANK0[2]), 

    vfpfcnvrt@cp	PTR unsigned char  size(2) Largest target is 33
		 -> STR_1(CODE[33]), 

    vfpfcnvrt@fmt	PTR PTR unsigned char  size(2) Largest target is 2
		 -> vfprintf@cfmt(BANK0[2]), 

    S2263$vp	PTR void  size(2) Largest target is 0

    convarg.vp	PTR void  size(2) Largest target is 0

    xtoa@fp	PTR struct _IO_FILE size(2) Largest target is 12
		 -> sprintf@f(BANK0[12]), 

    pad@buf	PTR unsigned char  size(2) Largest target is 32
		 -> dbuf(BANK0[32]), 

    pad@fp	PTR struct _IO_FILE size(2) Largest target is 12
		 -> sprintf@f(BANK0[12]), 

    sprintf@fmt	PTR const unsigned char  size(2) Largest target is 33
		 -> STR_1(CODE[33]), 

    sprintf@s	PTR unsigned char  size(2) Largest target is 50
		 -> bufferWrite(BANK1[50]), 

    sprintf@ap	PTR void [1] size(2) Largest target is 2
		 -> ?_sprintf(BANK0[2]), 

    S2215$source	PTR const unsigned char  size(2) Largest target is 0

    f...source	PTR const unsigned char  size(2) Largest target is 0

    S2215$buffer	PTR unsigned char  size(2) Largest target is 0

    f...buffer	PTR unsigned char  size(2) Largest target is 0

    print_rtc_data_time@ptr	PTR const struct . size(2) Largest target is 7
		 -> reading(COMRAM[7]), 

    I2C_SetCallback@ptr	PTR void  size(2) Largest target is 5
		 -> I2C_ReadDataBlock@bufferBlock(COMRAM[4]), I2C_Write2ByteRegister@data(COMRAM[2]), I2C_Write1ByteRegister@data(COMRAM[1]), I2C_Read2ByteRegister@returnValue(COMRAM[2]), 
		 -> NULL(NULL[0]), I2C_Read1ByteRegister@returnValue(COMRAM[1]), 

    I2C_SetCallback@cb	PTR FTN(PTR void ,)enum E363 size(2) Largest target is 1
		 -> NULL(), rdBlkRegCompleteHandler(), wr2RegCompleteHandler(), wr1RegCompleteHandler(), 
		 -> rd2RegCompleteHandler(), rd1RegCompleteHandler(), 

    I2C_SetInterruptHandler@InterruptHandler	PTR FTN()void  size(2) Largest target is 1
		 -> I2C_MasterIsr(), 

    I2C_SetAddressNackCallback@ptr	PTR void  size(2) Largest target is 0
		 -> NULL(NULL[0]), 

    I2C_SetAddressNackCallback@cb	PTR FTN(PTR void ,)enum E363 size(2) Largest target is 1
		 -> NULL(), 

    I2C_SetDataCompleteCallback@ptr	PTR void  size(2) Largest target is 5
		 -> I2C_ReadDataBlock@bufferBlock(COMRAM[4]), I2C_Write2ByteRegister@data(COMRAM[2]), I2C_Write1ByteRegister@data(COMRAM[1]), I2C_Read2ByteRegister@returnValue(COMRAM[2]), 
		 -> NULL(NULL[0]), I2C_Read1ByteRegister@returnValue(COMRAM[1]), 

    I2C_SetDataCompleteCallback@cb	PTR FTN(PTR void ,)enum E363 size(2) Largest target is 1
		 -> NULL(), rdBlkRegCompleteHandler(), wr2RegCompleteHandler(), wr1RegCompleteHandler(), 
		 -> rd2RegCompleteHandler(), rd1RegCompleteHandler(), 

    I2C_SetBuffer@buffer	PTR void  size(2) Largest target is 5
		 -> I2C_ReadDataBlock@reg(COMRAM[1]), I2C_ReadDataBlock@bufferBlock(COMRAM[4]), I2C_Write2ByteRegister@reg(COMRAM[1]), I2C_Write2ByteRegister@data(COMRAM[2]), 
		 -> I2C_Write1ByteRegister@reg(COMRAM[1]), I2C_Write1ByteRegister@data(COMRAM[1]), I2C_Read2ByteRegister@reg(COMRAM[1]), I2C_Read2ByteRegister@returnValue(COMRAM[2]), 
		 -> NULL(NULL[0]), I2C_Read1ByteRegister@reg(COMRAM[1]), I2C_Read1ByteRegister@returnValue(COMRAM[1]), 

    S1062$data_ptr	PTR unsigned char  size(2) Largest target is 5
		 -> I2C_ReadDataBlock@reg(COMRAM[1]), I2C_ReadDataBlock@bufferBlock(COMRAM[4]), I2C_Write2ByteRegister@reg(COMRAM[1]), I2C_Write2ByteRegister@data(COMRAM[2]), 
		 -> I2C_Write1ByteRegister@reg(COMRAM[1]), I2C_Write1ByteRegister@data(COMRAM[1]), I2C_Read2ByteRegister@reg(COMRAM[1]), I2C_Read2ByteRegister@returnValue(COMRAM[2]), 
		 -> NULL(NULL[0]), I2C_Read1ByteRegister@reg(COMRAM[1]), I2C_Read1ByteRegister@returnValue(COMRAM[1]), 

    I2C_Status.data_ptr	PTR unsigned char  size(2) Largest target is 5
		 -> I2C_Read1ByteRegister@returnValue.data(COMRAM[3]), I2C_Read2ByteRegister@returnValue.data(COMRAM[3]), I2C_Write1ByteRegister@data.data(COMRAM[3]), I2C_Write2ByteRegister@data.data(COMRAM[3]), 
		 -> I2C_ReadDataBlock@reg(COMRAM[1]), I2C_ReadDataBlock@bufferBlock(COMRAM[4]), bufferBlock.data(COMRAM[3]), I2C_Write2ByteRegister@reg(COMRAM[1]), 
		 -> I2C_Write2ByteRegister@data(COMRAM[2]), I2C_Write1ByteRegister@reg(COMRAM[1]), I2C_Write1ByteRegister@data(COMRAM[1]), I2C_Read2ByteRegister@reg(COMRAM[1]), 
		 -> I2C_Read2ByteRegister@returnValue(COMRAM[2]), NULL(NULL[0]), I2C_Read1ByteRegister@reg(COMRAM[1]), I2C_Read1ByteRegister@returnValue(COMRAM[1]), 

    S1062$callbackPayload	PTR void [6] size(2) Largest target is 5
		 -> I2C_ReadDataBlock@bufferBlock(COMRAM[4]), I2C_Write2ByteRegister@data(COMRAM[2]), I2C_Write1ByteRegister@data(COMRAM[1]), I2C_Read2ByteRegister@returnValue(COMRAM[2]), 
		 -> NULL(NULL[0]), I2C_Read1ByteRegister@returnValue(COMRAM[1]), 

    I2C_Status.callbackPayload	PTR void [6] size(2) Largest target is 5
		 -> I2C_ReadDataBlock@bufferBlock(COMRAM[4]), I2C_Write2ByteRegister@data(COMRAM[2]), I2C_Write1ByteRegister@data(COMRAM[1]), I2C_Read2ByteRegister@returnValue(COMRAM[2]), 
		 -> NULL(NULL[0]), I2C_Read1ByteRegister@returnValue(COMRAM[1]), 

    S1062$callbackTable	PTR FTN(PTR void ,)enum E363[6] size(2) Largest target is 1
		 -> I2C_CallbackReturnReset(), I2C_CallbackReturnStop(), NULL(), rdBlkRegCompleteHandler(), 
		 -> wr2RegCompleteHandler(), wr1RegCompleteHandler(), rd2RegCompleteHandler(), rd1RegCompleteHandler(), 

    I2C_Status.callbackTable	PTR FTN(PTR void ,)enum E363[6] size(2) Largest target is 1
		 -> I2C_CallbackReturnReset(), I2C_CallbackReturnStop(), NULL(), rdBlkRegCompleteHandler(), 
		 -> wr2RegCompleteHandler(), wr1RegCompleteHandler(), rd2RegCompleteHandler(), rd1RegCompleteHandler(), 

    i2c_fsmStateTable	const PTR FTN()enum E3121[16] size(2) Largest target is 1
		 -> I2C_DO_ADDRESS_NACK(), I2C_DO_RESET(), I2C_DO_RX_NACK_RESTART(), I2C_DO_RX_NACK_STOP(), 
		 -> I2C_DO_RX_ACK(), I2C_DO_SEND_STOP(), I2C_DO_SEND_RESTART(), I2C_DO_SEND_RESTART_WRITE(), 
		 -> I2C_DO_SEND_RESTART_READ(), I2C_DO_TX_EMPTY(), I2C_DO_RCEN(), I2C_DO_RX(), 
		 -> I2C_DO_TX(), I2C_DO_SEND_ADR_WRITE(), I2C_DO_SEND_ADR_READ(), I2C_DO_IDLE(), 

    MSSP_InterruptHandler	PTR FTN()void  size(2) Largest target is 1
		 -> I2C_MasterIsr(), NULL(), 

    EUSART_SetErrorHandler@interruptHandler	PTR FTN()void  size(2) Largest target is 1
		 -> EUSART_DefaultErrorHandler(), 

    EUSART_ErrorHandler	PTR FTN()void  size(2) Largest target is 1
		 -> NULL(), EUSART_DefaultErrorHandler(), 

    EUSART_SetOverrunErrorHandler@interruptHandler	PTR FTN()void  size(2) Largest target is 1
		 -> EUSART_DefaultOverrunErrorHandler(), 

    EUSART_OverrunErrorHandler	PTR FTN()void  size(2) Largest target is 1
		 -> NULL(), EUSART_DefaultOverrunErrorHandler(), 

    EUSART_SetFramingErrorHandler@interruptHandler	PTR FTN()void  size(2) Largest target is 1
		 -> EUSART_DefaultFramingErrorHandler(), 

    EUSART_FramingErrorHandler	PTR FTN()void  size(2) Largest target is 1
		 -> NULL(), EUSART_DefaultFramingErrorHandler(), 

    EUSART_Write_string@data	PTR unsigned char  size(2) Largest target is 50
		 -> bufferWrite(BANK1[50]), 

    rdBlkRegCompleteHandler@ptr.data	PTR unsigned char  size(2) Largest target is 0

    rdBlkRegCompleteHandler@ptr	PTR void  size(2) Largest target is 5
		 -> I2C_ReadDataBlock@bufferBlock(COMRAM[4]), I2C_Write2ByteRegister@data(COMRAM[2]), I2C_Write1ByteRegister@data(COMRAM[1]), I2C_Read2ByteRegister@returnValue(COMRAM[2]), 
		 -> NULL(NULL[0]), I2C_Read1ByteRegister@returnValue(COMRAM[1]), 

    wr2RegCompleteHandler@ptr	PTR void  size(2) Largest target is 5
		 -> I2C_ReadDataBlock@bufferBlock(COMRAM[4]), I2C_Write2ByteRegister@data(COMRAM[2]), I2C_Write1ByteRegister@data(COMRAM[1]), I2C_Read2ByteRegister@returnValue(COMRAM[2]), 
		 -> NULL(NULL[0]), I2C_Read1ByteRegister@returnValue(COMRAM[1]), 

    wr1RegCompleteHandler@ptr	PTR void  size(2) Largest target is 5
		 -> I2C_ReadDataBlock@bufferBlock(COMRAM[4]), I2C_Write2ByteRegister@data(COMRAM[2]), I2C_Write1ByteRegister@data(COMRAM[1]), I2C_Read2ByteRegister@returnValue(COMRAM[2]), 
		 -> NULL(NULL[0]), I2C_Read1ByteRegister@returnValue(COMRAM[1]), 

    rd2RegCompleteHandler@ptr	PTR void  size(2) Largest target is 5
		 -> I2C_ReadDataBlock@bufferBlock(COMRAM[4]), I2C_Write2ByteRegister@data(COMRAM[2]), I2C_Write1ByteRegister@data(COMRAM[1]), I2C_Read2ByteRegister@returnValue(COMRAM[2]), 
		 -> NULL(NULL[0]), I2C_Read1ByteRegister@returnValue(COMRAM[1]), 

    rd1RegCompleteHandler@ptr	PTR void  size(2) Largest target is 5
		 -> I2C_ReadDataBlock@bufferBlock(COMRAM[4]), I2C_Write2ByteRegister@data(COMRAM[2]), I2C_Write1ByteRegister@data(COMRAM[1]), I2C_Read2ByteRegister@returnValue(COMRAM[2]), 
		 -> NULL(NULL[0]), I2C_Read1ByteRegister@returnValue(COMRAM[1]), 

    S125$data	PTR unsigned char  size(2) Largest target is 0

    bufferBlock.data	PTR unsigned char  size(2) Largest target is 0


Critical Paths under _main in COMRAM

    _rtc_get_value->_I2C_Read1ByteRegister
    _xtoa->_pad
    _pad->_fputs
    _fputs->_fputc
    _EUSART_Write_string->_EUSART_Write
    _eeprom_24C01C_write_byte->_I2C_Write1ByteRegister
    _I2C_Write1ByteRegister->_I2C_SetAddressNackCallback
    _I2C_Write1ByteRegister->_I2C_SetDataCompleteCallback
    _eeprom_24C01C_read_byte->_I2C_Read1ByteRegister
    _Temp_sensor_TC74_Read->_I2C_Read1ByteRegister
    _I2C_Read1ByteRegister->_I2C_SetAddressNackCallback
    _I2C_Read1ByteRegister->_I2C_SetDataCompleteCallback
    _I2C_SetDataCompleteCallback->_I2C_SetCallback
    _I2C_SetAddressNackCallback->_I2C_SetCallback
    _I2C_Open->_I2C_SetInterruptHandler
    _I2C_MasterWrite->_I2C_MasterOperation
    _EUSART_Initialize->_EUSART_SetErrorHandler
    _EUSART_Initialize->_EUSART_SetFramingErrorHandler
    _EUSART_Initialize->_EUSART_SetOverrunErrorHandler

Critical Paths under _INTERRUPT_InterruptManager in COMRAM

    _I2C_MasterIsr->_I2C_MasterFsm
    _I2C_MasterFsm->_I2C_DO_ADDRESS_NACK
    _I2C_MasterFsm->_I2C_DO_RX
    _I2C_MasterFsm->_I2C_DO_TX
    _I2C_MasterFsm->_I2C_DO_TX_EMPTY
    _I2C_DO_TX_EMPTY->_I2C_CallbackReturnReset
    _I2C_DO_TX_EMPTY->_I2C_CallbackReturnStop
    _I2C_DO_TX_EMPTY->_rd1RegCompleteHandler
    _I2C_DO_TX_EMPTY->_rd2RegCompleteHandler
    _I2C_DO_TX_EMPTY->_rdBlkRegCompleteHandler
    _I2C_DO_TX_EMPTY->_wr1RegCompleteHandler
    _I2C_DO_TX_EMPTY->_wr2RegCompleteHandler
    _I2C_DO_TX->_I2C_CallbackReturnReset
    _I2C_DO_TX->_I2C_CallbackReturnStop
    _I2C_DO_TX->_rd1RegCompleteHandler
    _I2C_DO_TX->_rd2RegCompleteHandler
    _I2C_DO_TX->_rdBlkRegCompleteHandler
    _I2C_DO_TX->_wr1RegCompleteHandler
    _I2C_DO_TX->_wr2RegCompleteHandler
    _I2C_DO_SEND_ADR_WRITE->_I2C_MasterSendTxData
    _I2C_DO_RX->_I2C_CallbackReturnReset
    _I2C_DO_RX->_I2C_CallbackReturnStop
    _I2C_DO_RX->_rd1RegCompleteHandler
    _I2C_DO_RX->_rd2RegCompleteHandler
    _I2C_DO_RX->_rdBlkRegCompleteHandler
    _I2C_DO_RX->_wr1RegCompleteHandler
    _I2C_DO_RX->_wr2RegCompleteHandler
    _I2C_DO_ADDRESS_NACK->_I2C_CallbackReturnReset
    _I2C_DO_ADDRESS_NACK->_I2C_CallbackReturnStop
    _I2C_DO_ADDRESS_NACK->_rd1RegCompleteHandler
    _I2C_DO_ADDRESS_NACK->_rd2RegCompleteHandler
    _I2C_DO_ADDRESS_NACK->_rdBlkRegCompleteHandler
    _I2C_DO_ADDRESS_NACK->_wr1RegCompleteHandler
    _I2C_DO_ADDRESS_NACK->_wr2RegCompleteHandler
    _wr2RegCompleteHandler->i2_I2C_SetDataCompleteCallback
    _wr1RegCompleteHandler->i2_I2C_SetDataCompleteCallback
    _rdBlkRegCompleteHandler->i2_I2C_SetDataCompleteCallback
    _rd2RegCompleteHandler->i2_I2C_SetDataCompleteCallback
    _rd1RegCompleteHandler->i2_I2C_SetDataCompleteCallback
    i2_I2C_SetDataCompleteCallback->i2_I2C_SetCallback

Critical Paths under _main in BANK0

    _main->_print_rtc_data_time
    _print_rtc_data_time->_sprintf
    _sprintf->_vfprintf
    _vfprintf->_vfpfcnvrt
    _vfpfcnvrt->_xtoa
    _xtoa->_pad

Critical Paths under _INTERRUPT_InterruptManager in BANK0

    None.

Critical Paths under _main in BANK1

    None.

Critical Paths under _INTERRUPT_InterruptManager in BANK1

    None.

Critical Paths under _main in BANK2

    None.

Critical Paths under _INTERRUPT_InterruptManager in BANK2

    None.

Critical Paths under _main in BANK3

    None.

Critical Paths under _INTERRUPT_InterruptManager in BANK3

    None.

Critical Paths under _main in BANK4

    None.

Critical Paths under _INTERRUPT_InterruptManager in BANK4

    None.

Critical Paths under _main in BANK5

    None.

Critical Paths under _INTERRUPT_InterruptManager in BANK5

    None.

Critical Paths under _main in BANK6

    None.

Critical Paths under _INTERRUPT_InterruptManager in BANK6

    None.

Critical Paths under _main in BANK7

    None.

Critical Paths under _INTERRUPT_InterruptManager in BANK7

    None.

Critical Paths under _main in BANK8

    None.

Critical Paths under _INTERRUPT_InterruptManager in BANK8

    None.

Critical Paths under _main in BANK9

    None.

Critical Paths under _INTERRUPT_InterruptManager in BANK9

    None.

Critical Paths under _main in BANK10

    None.

Critical Paths under _INTERRUPT_InterruptManager in BANK10

    None.

Critical Paths under _main in BANK11

    None.

Critical Paths under _INTERRUPT_InterruptManager in BANK11

    None.

Critical Paths under _main in BANK12

    None.

Critical Paths under _INTERRUPT_InterruptManager in BANK12

    None.

Critical Paths under _main in BANK13

    None.

Critical Paths under _INTERRUPT_InterruptManager in BANK13

    None.

Critical Paths under _main in BANK14

    None.

Critical Paths under _INTERRUPT_InterruptManager in BANK14

    None.

Critical Paths under _main in BANK15

    None.

Critical Paths under _INTERRUPT_InterruptManager in BANK15

    None.

Call Graph Tables:

 ---------------------------------------------------------------------------------
 (Depth) Function   	        Calls       Base Space   Used Autos Params    Refs
 ---------------------------------------------------------------------------------
 (0) _main                                                 2     2      0   47135
                                              0 BANK1      2     2      0
             _I2C_Write1ByteRegister
                  _SYSTEM_Initialize
              _Temp_sensor_TC74_Read
            _eeprom_24C01C_read_byte
           _eeprom_24C01C_write_byte
                _print_rtc_data_time
                      _rtc_get_value
 ---------------------------------------------------------------------------------
 (1) _rtc_get_value                                       15     8      7    8679
                                              0 BANK0     15     8      7
              _I2C_Read1ByteRegister
 ---------------------------------------------------------------------------------
 (1) _print_rtc_data_time                                  8     6      2    6223
                                             78 BANK0      8     6      2
                _EUSART_Write_string
                            _sprintf
 ---------------------------------------------------------------------------------
 (2) _sprintf                                             32    16     16    5728
                                             48 BANK0     30    14     16
                           _vfprintf
 ---------------------------------------------------------------------------------
 (3) _vfprintf                                             8     2      6    5242
                                             40 BANK0      8     2      6
                          _vfpfcnvrt
 ---------------------------------------------------------------------------------
 (4) _vfpfcnvrt                                           19    13      6    4781
                                             26 BANK0     14     8      6
                              _fputc
                               _xtoa
 ---------------------------------------------------------------------------------
 (5) _xtoa                                                16    12      4    3214
                                             10 BANK0     16    12      4
                                _pad
 ---------------------------------------------------------------------------------
 (6) _pad                                                 11     5      6    2533
                                             41 COMRAM     1     1      0
                                              0 BANK0     10     4      6
                              _fputc
                              _fputs
 ---------------------------------------------------------------------------------
 (7) _fputs                                                7     3      4    1177
                                             34 COMRAM     7     3      4
                              _fputc
 ---------------------------------------------------------------------------------
 (8) _fputc                                                9     5      4     857
                                             25 COMRAM     9     5      4
                              _putch
 ---------------------------------------------------------------------------------
 (9) _putch                                                1     1      0       0
 ---------------------------------------------------------------------------------
 (2) _EUSART_Write_string                                  3     1      2     188
                                             26 COMRAM     3     1      2
                       _EUSART_Write
 ---------------------------------------------------------------------------------
 (3) _EUSART_Write                                         1     1      0      22
                                             25 COMRAM     1     1      0
 ---------------------------------------------------------------------------------
 (1) _eeprom_24C01C_write_byte                             3     1      2    7984
                                             37 COMRAM     3     1      2
             _I2C_Write1ByteRegister
 ---------------------------------------------------------------------------------
 (2) _I2C_Write1ByteRegister                               3     1      2    7531
                                             34 COMRAM     3     1      2
                          _I2C_Close
                    _I2C_MasterWrite
                           _I2C_Open
         _I2C_SetAddressNackCallback
                      _I2C_SetBuffer
        _I2C_SetDataCompleteCallback
 ---------------------------------------------------------------------------------
 (1) _eeprom_24C01C_read_byte                              2     1      1    8257
                                             37 COMRAM     2     1      1
              _I2C_Read1ByteRegister
 ---------------------------------------------------------------------------------
 (1) _Temp_sensor_TC74_Read                                2     1      1    8167
                                             37 COMRAM     2     1      1
              _I2C_Read1ByteRegister
 ---------------------------------------------------------------------------------
 (2) _I2C_Read1ByteRegister                                3     2      1    8015
                                             34 COMRAM     3     2      1
                          _I2C_Close
                    _I2C_MasterWrite
                           _I2C_Open
         _I2C_SetAddressNackCallback
                      _I2C_SetBuffer
        _I2C_SetDataCompleteCallback
 ---------------------------------------------------------------------------------
 (3) _I2C_SetDataCompleteCallback                          4     0      4    2629
                                             30 COMRAM     4     0      4
                    _I2C_SetCallback
 ---------------------------------------------------------------------------------
 (3) _I2C_SetBuffer                                        4     0      4    1872
                                             25 COMRAM     4     0      4
 ---------------------------------------------------------------------------------
 (3) _I2C_SetAddressNackCallback                           4     0      4    2259
                                             30 COMRAM     4     0      4
                    _I2C_SetCallback
 ---------------------------------------------------------------------------------
 (4) _I2C_SetCallback                                      5     1      4    1117
                                             25 COMRAM     5     1      4
 ---------------------------------------------------------------------------------
 (3) _I2C_Open                                             2     2      0     189
                                             27 COMRAM     2     2      0
                 _I2C_MasterClearIrq
                _I2C_MasterEnableIrq
                     _I2C_MasterOpen
            _I2C_SetInterruptHandler
 ---------------------------------------------------------------------------------
 (4) _I2C_SetInterruptHandler                              2     0      2     121
                                             25 COMRAM     2     0      2
 ---------------------------------------------------------------------------------
 (4) _I2C_MasterOpen                                       0     0      0       0
 ---------------------------------------------------------------------------------
 (4) _I2C_MasterEnableIrq                                  0     0      0       0
 ---------------------------------------------------------------------------------
 (3) _I2C_MasterWrite                                      0     0      0      68
                _I2C_MasterOperation
 ---------------------------------------------------------------------------------
 (4) _I2C_MasterOperation                                  2     2      0      68
                                             25 COMRAM     2     2      0
                    _I2C_MasterStart
 ---------------------------------------------------------------------------------
 (5) _I2C_MasterStart                                      0     0      0       0
 ---------------------------------------------------------------------------------
 (3) _I2C_Close                                            1     1      0      37
                                             25 COMRAM     1     1      0
                 _I2C_MasterClearIrq
                    _I2C_MasterClose
               _I2C_MasterDisableIrq
 ---------------------------------------------------------------------------------
 (4) _I2C_MasterDisableIrq                                 0     0      0       0
 ---------------------------------------------------------------------------------
 (4) _I2C_MasterClose                                      0     0      0       0
 ---------------------------------------------------------------------------------
 (4) _I2C_MasterClearIrq                                   0     0      0       0
 ---------------------------------------------------------------------------------
 (1) _SYSTEM_Initialize                                    0     0      0     294
                  _EUSART_Initialize
                     _I2C_Initialize
               _INTERRUPT_Initialize
              _OSCILLATOR_Initialize
             _PIN_MANAGER_Initialize
 ---------------------------------------------------------------------------------
 (2) _PIN_MANAGER_Initialize                               0     0      0       0
 ---------------------------------------------------------------------------------
 (2) _OSCILLATOR_Initialize                                0     0      0       0
 ---------------------------------------------------------------------------------
 (2) _INTERRUPT_Initialize                                 0     0      0       0
 ---------------------------------------------------------------------------------
 (2) _I2C_Initialize                                       0     0      0       0
 ---------------------------------------------------------------------------------
 (2) _EUSART_Initialize                                    0     0      0     294
             _EUSART_SetErrorHandler
      _EUSART_SetFramingErrorHandler
      _EUSART_SetOverrunErrorHandler
 ---------------------------------------------------------------------------------
 (3) _EUSART_SetOverrunErrorHandler                        2     0      2      98
                                             25 COMRAM     2     0      2
 ---------------------------------------------------------------------------------
 (3) _EUSART_SetFramingErrorHandler                        2     0      2      98
                                             25 COMRAM     2     0      2
 ---------------------------------------------------------------------------------
 (3) _EUSART_SetErrorHandler                               2     0      2      98
                                             25 COMRAM     2     0      2
 ---------------------------------------------------------------------------------
 Estimated maximum stack depth 9
 ---------------------------------------------------------------------------------
 (Depth) Function   	        Calls       Base Space   Used Autos Params    Refs
 ---------------------------------------------------------------------------------
 (10) _INTERRUPT_InterruptManager                         10    10      0   17934
                                             15 COMRAM    10    10      0
                                NULL *
                      _I2C_MasterIsr *
 ---------------------------------------------------------------------------------
 (11) _I2C_MasterIsr                                       0     0      0   17934
                      _I2C_MasterFsm
 ---------------------------------------------------------------------------------
 (12) _I2C_MasterFsm                                       2     2      0   17934
                                             13 COMRAM     2     2      0
                _I2C_DO_ADDRESS_NACK *
                        _I2C_DO_IDLE *
                        _I2C_DO_RCEN *
                       _I2C_DO_RESET *
                          _I2C_DO_RX *
                      _I2C_DO_RX_ACK *
             _I2C_DO_RX_NACK_RESTART *
                _I2C_DO_RX_NACK_STOP *
               _I2C_DO_SEND_ADR_READ *
              _I2C_DO_SEND_ADR_WRITE *
                _I2C_DO_SEND_RESTART *
           _I2C_DO_SEND_RESTART_READ *
          _I2C_DO_SEND_RESTART_WRITE *
                   _I2C_DO_SEND_STOP *
                          _I2C_DO_TX *
                    _I2C_DO_TX_EMPTY *
                   _I2C_MasterIsNack
               i2_I2C_MasterClearIrq
 ---------------------------------------------------------------------------------
 (13) i2_I2C_MasterClearIrq                                0     0      0       0
 ---------------------------------------------------------------------------------
 (13) _I2C_DO_TX_EMPTY                                     2     2      0    4467
                                             11 COMRAM     2     2      0
                                NULL *
            _I2C_CallbackReturnReset *
             _I2C_CallbackReturnStop *
                _I2C_DO_SEND_RESTART
                   _I2C_DO_SEND_STOP
                   _I2C_MasterSetIrq
              _rd1RegCompleteHandler *
              _rd2RegCompleteHandler *
            _rdBlkRegCompleteHandler *
              _wr1RegCompleteHandler *
              _wr2RegCompleteHandler *
 ---------------------------------------------------------------------------------
 (14) _I2C_MasterSetIrq                                    0     0      0       0
 ---------------------------------------------------------------------------------
 (13) _I2C_DO_TX                                           2     2      0    4489
                                             11 COMRAM     2     2      0
                                NULL *
            _I2C_CallbackReturnReset *
             _I2C_CallbackReturnStop *
           _I2C_DO_SEND_RESTART_READ
          _I2C_DO_SEND_RESTART_WRITE
                   _I2C_DO_SEND_STOP
                   _I2C_MasterIsNack
               _I2C_MasterSendTxData
              _rd1RegCompleteHandler *
              _rd2RegCompleteHandler *
            _rdBlkRegCompleteHandler *
              _wr1RegCompleteHandler *
              _wr2RegCompleteHandler *
 ---------------------------------------------------------------------------------
 (13) _I2C_MasterIsNack                                    0     0      0       0
 ---------------------------------------------------------------------------------
 (14) _I2C_DO_SEND_RESTART_WRITE                           0     0      0       0
            _I2C_MasterEnableRestart
 ---------------------------------------------------------------------------------
 (14) _I2C_DO_SEND_RESTART_READ                            0     0      0       0
            _I2C_MasterEnableRestart
 ---------------------------------------------------------------------------------
 (13) _I2C_DO_SEND_ADR_WRITE                               0     0      0      22
               _I2C_MasterSendTxData
 ---------------------------------------------------------------------------------
 (13) _I2C_DO_SEND_ADR_READ                                0     0      0      22
               _I2C_MasterSendTxData
 ---------------------------------------------------------------------------------
 (14) _I2C_MasterSendTxData                                1     1      0      22
                                              0 COMRAM     1     1      0
 ---------------------------------------------------------------------------------
 (13) _I2C_DO_RX_ACK                                       0     0      0       0
                  _I2C_MasterSendAck
 ---------------------------------------------------------------------------------
 (13) _I2C_DO_RX                                           2     2      0    4467
                                             11 COMRAM     2     2      0
                                NULL *
            _I2C_CallbackReturnReset *
             _I2C_CallbackReturnStop *
             _I2C_DO_RX_NACK_RESTART
                _I2C_DO_RX_NACK_STOP
                _I2C_MasterGetRxData
                  _I2C_MasterSendAck
              _rd1RegCompleteHandler *
              _rd2RegCompleteHandler *
            _rdBlkRegCompleteHandler *
              _wr1RegCompleteHandler *
              _wr2RegCompleteHandler *
 ---------------------------------------------------------------------------------
 (14) _I2C_MasterSendAck                                   0     0      0       0
 ---------------------------------------------------------------------------------
 (14) _I2C_MasterGetRxData                                 0     0      0       0
 ---------------------------------------------------------------------------------
 (13) _I2C_DO_RX_NACK_STOP                                 0     0      0       0
                 _I2C_MasterSendNack
 ---------------------------------------------------------------------------------
 (13) _I2C_DO_RX_NACK_RESTART                              0     0      0       0
                 _I2C_MasterSendNack
 ---------------------------------------------------------------------------------
 (14) _I2C_MasterSendNack                                  0     0      0       0
 ---------------------------------------------------------------------------------
 (13) _I2C_DO_RESET                                        0     0      0       0
 ---------------------------------------------------------------------------------
 (13) _I2C_DO_RCEN                                         0     0      0       0
                  _I2C_MasterStartRx
 ---------------------------------------------------------------------------------
 (14) _I2C_MasterStartRx                                   0     0      0       0
 ---------------------------------------------------------------------------------
 (13) _I2C_DO_IDLE                                         0     0      0       0
 ---------------------------------------------------------------------------------
 (13) _I2C_DO_ADDRESS_NACK                                 2     2      0    4467
                                             11 COMRAM     2     2      0
                                NULL *
            _I2C_CallbackReturnReset *
             _I2C_CallbackReturnStop *
                _I2C_DO_SEND_RESTART
                   _I2C_DO_SEND_STOP
              _rd1RegCompleteHandler *
              _rd2RegCompleteHandler *
            _rdBlkRegCompleteHandler *
              _wr1RegCompleteHandler *
              _wr2RegCompleteHandler *
 ---------------------------------------------------------------------------------
 (14) _wr2RegCompleteHandler                               2     0      2     836
                                              9 COMRAM     2     0      2
                    i2_I2C_SetBuffer
      i2_I2C_SetDataCompleteCallback
 ---------------------------------------------------------------------------------
 (14) _wr1RegCompleteHandler                               2     0      2     836
                                              9 COMRAM     2     0      2
                    i2_I2C_SetBuffer
      i2_I2C_SetDataCompleteCallback
 ---------------------------------------------------------------------------------
 (14) _rdBlkRegCompleteHandler                             2     0      2     858
                                              9 COMRAM     2     0      2
                    i2_I2C_SetBuffer
      i2_I2C_SetDataCompleteCallback
 ---------------------------------------------------------------------------------
 (14) _rd2RegCompleteHandler                               2     0      2     836
                                              9 COMRAM     2     0      2
                    i2_I2C_SetBuffer
      i2_I2C_SetDataCompleteCallback
 ---------------------------------------------------------------------------------
 (14) _rd1RegCompleteHandler                               2     0      2     836
                                              9 COMRAM     2     0      2
                    i2_I2C_SetBuffer
      i2_I2C_SetDataCompleteCallback
 ---------------------------------------------------------------------------------
 (15) i2_I2C_SetDataCompleteCallback                       4     0      4     510
                                              5 COMRAM     4     0      4
                  i2_I2C_SetCallback
 ---------------------------------------------------------------------------------
 (16) i2_I2C_SetCallback                                   5     1      4     206
                                              0 COMRAM     5     1      4
 ---------------------------------------------------------------------------------
 (15) i2_I2C_SetBuffer                                     4     0      4     304
                                              0 COMRAM     4     0      4
 ---------------------------------------------------------------------------------
 (14) _I2C_DO_SEND_STOP                                    0     0      0       0
                     _I2C_MasterStop
 ---------------------------------------------------------------------------------
 (15) _I2C_MasterStop                                      0     0      0       0
 ---------------------------------------------------------------------------------
 (14) _I2C_DO_SEND_RESTART                                 0     0      0       0
            _I2C_MasterEnableRestart
 ---------------------------------------------------------------------------------
 (15) _I2C_MasterEnableRestart                             0     0      0       0
 ---------------------------------------------------------------------------------
 (14) _I2C_CallbackReturnStop                              2     0      2       0
                                              9 COMRAM     2     0      2
 ---------------------------------------------------------------------------------
 (14) _I2C_CallbackReturnReset                             2     0      2     265
                                              9 COMRAM     2     0      2
 ---------------------------------------------------------------------------------
 (14) NULL(Fake)                                           2     0      2       0
 ---------------------------------------------------------------------------------
 Estimated maximum stack depth 16
 ---------------------------------------------------------------------------------

 Call Graph Graphs:

 _main (ROOT)
   _I2C_Write1ByteRegister
     _I2C_Close
       _I2C_MasterClearIrq
       _I2C_MasterClose
       _I2C_MasterDisableIrq
     _I2C_MasterWrite
       _I2C_MasterOperation
         _I2C_MasterStart
     _I2C_Open
       _I2C_MasterClearIrq
       _I2C_MasterEnableIrq
       _I2C_MasterOpen
       _I2C_SetInterruptHandler
     _I2C_SetAddressNackCallback
       _I2C_SetCallback
     _I2C_SetBuffer
     _I2C_SetDataCompleteCallback
       _I2C_SetCallback
   _SYSTEM_Initialize
     _EUSART_Initialize
       _EUSART_SetErrorHandler
       _EUSART_SetFramingErrorHandler
       _EUSART_SetOverrunErrorHandler
     _I2C_Initialize
     _INTERRUPT_Initialize
     _OSCILLATOR_Initialize
     _PIN_MANAGER_Initialize
   _Temp_sensor_TC74_Read
     _I2C_Read1ByteRegister
       _I2C_Close
       _I2C_MasterWrite
       _I2C_Open
       _I2C_SetAddressNackCallback
       _I2C_SetBuffer
       _I2C_SetDataCompleteCallback
   _eeprom_24C01C_read_byte
     _I2C_Read1ByteRegister
   _eeprom_24C01C_write_byte
     _I2C_Write1ByteRegister
   _print_rtc_data_time
     _EUSART_Write_string
       _EUSART_Write
     _sprintf
       _vfprintf
         _vfpfcnvrt
           _fputc
             _putch
           _xtoa
             _pad
               _fputc
               _fputs
                 _fputc
   _rtc_get_value
     _I2C_Read1ByteRegister

 _INTERRUPT_InterruptManager (ROOT)
   NULL(Fake) *
   _I2C_MasterIsr *
     _I2C_MasterFsm
       _I2C_DO_ADDRESS_NACK *
         NULL(Fake) *
         _I2C_CallbackReturnReset *
         _I2C_CallbackReturnStop *
         _I2C_DO_SEND_RESTART *
           _I2C_MasterEnableRestart
         _I2C_DO_SEND_STOP *
           _I2C_MasterStop
         _rd1RegCompleteHandler *
           i2_I2C_SetBuffer
           i2_I2C_SetDataCompleteCallback
             i2_I2C_SetCallback
         _rd2RegCompleteHandler *
           i2_I2C_SetBuffer
           i2_I2C_SetDataCompleteCallback
         _rdBlkRegCompleteHandler *
           i2_I2C_SetBuffer
           i2_I2C_SetDataCompleteCallback
         _wr1RegCompleteHandler *
           i2_I2C_SetBuffer
           i2_I2C_SetDataCompleteCallback
         _wr2RegCompleteHandler *
           i2_I2C_SetBuffer
           i2_I2C_SetDataCompleteCallback
       _I2C_DO_IDLE *
       _I2C_DO_RCEN *
         _I2C_MasterStartRx
       _I2C_DO_RESET *
       _I2C_DO_RX *
         NULL(Fake) *
         _I2C_CallbackReturnReset *
         _I2C_CallbackReturnStop *
         _I2C_DO_RX_NACK_RESTART *
           _I2C_MasterSendNack
         _I2C_DO_RX_NACK_STOP *
           _I2C_MasterSendNack
         _I2C_MasterGetRxData *
         _I2C_MasterSendAck *
         _rd1RegCompleteHandler *
         _rd2RegCompleteHandler *
         _rdBlkRegCompleteHandler *
         _wr1RegCompleteHandler *
         _wr2RegCompleteHandler *
       _I2C_DO_RX_ACK *
         _I2C_MasterSendAck
       _I2C_DO_RX_NACK_RESTART *
       _I2C_DO_RX_NACK_STOP *
       _I2C_DO_SEND_ADR_READ *
         _I2C_MasterSendTxData
       _I2C_DO_SEND_ADR_WRITE *
         _I2C_MasterSendTxData
       _I2C_DO_SEND_RESTART *
       _I2C_DO_SEND_RESTART_READ *
         _I2C_MasterEnableRestart
       _I2C_DO_SEND_RESTART_WRITE *
         _I2C_MasterEnableRestart
       _I2C_DO_SEND_STOP *
       _I2C_DO_TX *
         NULL(Fake) *
         _I2C_CallbackReturnReset *
         _I2C_CallbackReturnStop *
         _I2C_DO_SEND_RESTART_READ *
         _I2C_DO_SEND_RESTART_WRITE *
         _I2C_DO_SEND_STOP *
         _I2C_MasterIsNack *
         _I2C_MasterSendTxData *
         _rd1RegCompleteHandler *
         _rd2RegCompleteHandler *
         _rdBlkRegCompleteHandler *
         _wr1RegCompleteHandler *
         _wr2RegCompleteHandler *
       _I2C_DO_TX_EMPTY *
         NULL(Fake) *
         _I2C_CallbackReturnReset *
         _I2C_CallbackReturnStop *
         _I2C_DO_SEND_RESTART *
         _I2C_DO_SEND_STOP *
         _I2C_MasterSetIrq *
         _rd1RegCompleteHandler *
         _rd2RegCompleteHandler *
         _rdBlkRegCompleteHandler *
         _wr1RegCompleteHandler *
         _wr2RegCompleteHandler *
       _I2C_MasterIsNack *
       i2_I2C_MasterClearIrq *

 Address spaces:
Name               Size   Autos  Total    Cost      Usage
BIGRAM             F5F      0       0      52        0.0%
EEDATA             400      0       0       0        0.0%
BITBANK14          100      0       0      33        0.0%
BANK14             100      0       0      34        0.0%
BITBANK13          100      0       0      31        0.0%
BANK13             100      0       0      32        0.0%
BITBANK12          100      0       0      29        0.0%
BANK12             100      0       0      30        0.0%
BITBANK11          100      0       0      26        0.0%
BANK11             100      0       0      27        0.0%
BITBANK10          100      0       0      24        0.0%
BANK10             100      0       0      25        0.0%
BITBANK9           100      0       0      22        0.0%
BANK9              100      0       0      23        0.0%
BITBANK8           100      0       0      20        0.0%
BANK8              100      0       0      21        0.0%
BITBANK7           100      0       0      18        0.0%
BANK7              100      0       0      19        0.0%
BITBANK6           100      0       0      16        0.0%
BANK6              100      0       0      17        0.0%
BITBANK5           100      0       0      14        0.0%
BANK5              100      0       0      15        0.0%
BITBANK4           100      0       0      12        0.0%
BANK4              100      0       0      13        0.0%
BITBANK3           100      0       0      10        0.0%
BANK3              100      0       0      11        0.0%
BITBANK2           100      0       0       8        0.0%
BANK2              100      0       0       9        0.0%
BITBANK1           100      0       0       6        0.0%
BANK1              100      2      34       7       20.3%
BITBANK0            A0      0       0       4        0.0%
BANK0               A0     56      9F       5       99.4%
BITBANK15           60      0       0      35        0.0%
BANK15              60      0       0      36        0.0%
BITCOMRAM           5E      0       0       0        0.0%
COMRAM              5E     2A      44       1       72.3%
BITBIGSFRhllh       1D      0       0      39        0.0%
BITBIGSFRllllll     1C      0       0      51        0.0%
BITBIGSFRhlllll      C      0       0      42        0.0%
BITBIGSFRlllllh      9      0       0      49        0.0%
BITBIGSFRhh          7      0       0      37        0.0%
BITBIGSFRlhh         7      0       0      43        0.0%
BITBIGSFRhllllh      6      0       0      41        0.0%
BITBIGSFRlllhhl      4      0       0      47        0.0%
BITBIGSFRlllhll      4      0       0      48        0.0%
BITBIGSFRllhlh       4      0       0      44        0.0%
BITBIGSFRhlllh       2      0       0      40        0.0%
BITBIGSFRhlh         2      0       0      38        0.0%
BITBIGSFRlllhhh      1      0       0      46        0.0%
BITBIGSFRllllll      1      0       0      50        0.0%
BITBIGSFRllhll       1      0       0      45        0.0%
BIGSFR               0      0       0     200        0.0%
BITSFR               0      0       0     200        0.0%
SFR                  0      0       0     200        0.0%
STACK                0      0       0       2        0.0%
NULL                 0      0       0       0        0.0%
ABS                  0      0     117      28        0.0%
DATA                 0      0     117       3        0.0%
CODE                 0      0       0       0        0.0%


Microchip Technology PIC18 Macro Assembler V2.41 build 20230208172133 
Symbol Table                                                                                   Tue Aug 29 23:28:35 2023

                       ??_I2C_DO_SEND_ADR_READ 0001                        ??_I2C_DO_SEND_ADR_WRITE 0002  
                                  _SSPSTATbits 0FC7                                             l11 1EA2  
                                           l14 1F6C                                             l49 19C0  
                                           l67 1A9E                          ??_I2C_DO_SEND_RESTART 0001  
                                          l212 1FD0                                            l206 1FC6  
                                          l310 1D14                                            l209 1FBC  
                                          l161 1CAA                                            l332 1F16  
                                          l502 1EBA                                            l335 1FB2  
                                          l352 2042                                            l185 1EEE  
                                          l522 18D6                                            l194 1CE4  
                                          l508 1ED2                                            l188 1F00  
                                          l517 1FA8                                            l472 1F2A  
                                          l480 1D6E                                            l641 1E88  
                                          l714 14E6                                            l723 162C  
                                          l644 203A                                            l492 1FD8  
                                          l476 16CA                                            l662 2032  
                                          l486 1C2C                                            l683 202E  
                                          l499 1E42                                            l692 203E  
                                          l766 1F7A                                            l689 2036  
                                          _pad 1768                         fp__I2C_DO_RX_NACK_STOP 0000  
               ?_EUSART_SetFramingErrorHandler 001A                                            prod 0FF3  
                                          tosl 0FFD                                            wreg 0FE8  
                 ??_I2C_SetAddressNackCallback 0023                         _I2C_Write1ByteRegister 1A32  
                     ??_I2C_CallbackReturnStop 000C                                   _I2C_DO_RESET 1F7C  
                      ??_rd2RegCompleteHandler 000C                                           l2120 1D06  
                                         l2130 1F28                                           l2122 1D08  
                                         l2114 1CE6                                           l3020 1FC8  
                                         l2132 1FAA                                           l2124 1D12  
                                         l2116 1CFE                                           l2126 2040  
                                         l2118 1D00                                           l3022 1EEE  
                                         l1503 1B58                                           l3016 1FBE  
                                         l2128 1F18                                           l3024 1EFC  
                                         l4000 16D2                                           l3018 1FB4  
                                         l4010 1708                                           l4002 16D4  
                                         l1515 136C                                           l1523 1BEC  
                                         l4012 1714                                           l4004 16E2  
                                         l3230 1C9A                                           l1526 2064  
                                         l4014 1722                                           l4006 16F0  
                                         l1471 17E4                                           l1447 1BA8  
                                         l3232 1CA6                                           l3224 1C6E  
                                         l3240 1CC8                                           l4120 1138  
                                         l4016 1736                                           l4008 16FC  
                                         l3226 1C82                                           l3234 1CAC  
                                         l4018 1744                                           l1467 178C  
                                         l1475 11A0                                           l3228 1C8E  
                                         l3236 1CB4                                           l1477 11A8  
                                         l3238 1CC6                                           l1487 12A2  
                                         l3280 1F12                                           l3272 1F02  
                                         l3600 1784                                           l1496 1182  
                                         l3274 1F06                                           l3610 2030  
                                         l3602 1798                                           l3276 1F0A  
                                         l3604 17AC                                           l3620 11C2  
                                         l3612 1184                                           l3700 1084  
                                         l3278 1F0E                                           l3606 17B2  
                                         l3630 11FA                                           l3622 11C8  
                                         l3614 1192                                           l3702 1088  
                                         l3800 1D48                                           l3608 17D0  
                                         l3632 11FE                                           l3624 11CE  
                                         l3640 123A                                           l3616 11B0  
                                         l3704 1098                                           l3720 1158  
                                         l3802 1D58                                           l3650 1FA0  
                                         l3730 1630                                           l3642 1256  
                                         l3634 120E                                           l3626 11DE  
                                         l3618 11BA                                           l3714 1118  
                                         l3706 10B6                                           l3652 203C  
                                         l3804 1D5C                                           l3740 164C  
                                         l3732 1634                                           l3580 12D2  
                                         l3644 1268                                           l3636 1214  
                                         l3628 11EE                                           l3708 1100  
                                         l3716 1146                                           l3812 1B06  
                                         l3900 15F6                                           l3806 1D68  
                                         l3670 1BF4                                           l3662 202C  
                                         l3654 1E68                                           l3750 1664  
                                         l3742 164E                                           l3734 1644  
                                         l3830 1A72                                           l3822 1A34  
                                         l3582 12F0                                           l3574 12A4  
                                         l3590 1BB6                                           l3646 1282  
                                         l3638 121A                                           l3814 1B12  
                                         l3902 15FA                                           ?_pad 0060  
                                         l3664 2034                                           l3808 1D6C  
                                         l3680 1C22                                           l3672 1C04  
                                         l3656 1E76                                           l3760 168C  
                                         l3752 166C                                           l3744 1652  
                                         l3736 1648                                           l3840 196A  
                                         l3912 1F70                                           l3832 1A86  
                                         l3824 1A34                                           l3584 1326  
                                         l3576 12B6                                           l3592 1BC8  
                                         l3816 1B30                                           l3904 1608  
                                         l3666 2038                                           l3682 1C26  
                                         l3674 1C06                                           l3658 1E86  
                                         l3770 16B8                                           l3762 1694  
                                         l3754 1674                                           l3746 165A  
                                         l3738 164A                                           l3690 1876  
                                         l3850 19BE                                           l3842 197E  
                                         l3834 1A8A                                           l3826 1A4A  
                                         l3578 12C8                                           l3594 1BCC  
                                         l3818 1B4E                                           l3906 160C  
                                         l3676 1C0A                                           l3684 1C2A  
                                         l3668 1BF0                                           l3772 16BC  
                                         l3764 169C                                           l3756 167C  
                                         l3748 165C                                           l3692 18AA  
                                         l3844 1992                                           l3836 1950  
                                         l3828 1A5E                                           l3588 1BAA  
                                         l3596 1768                                           l3860 1B7C  
                                         l3908 161A                                           l3678 1C1A  
                                         l3774 16C0                                           l3766 16A4  
                                         l3758 1684                                           l3790 1E40  
                                         l3782 1EA4                                           l3846 19A6  
                                         l3838 1954                                           l3870 1F62  
                                         l3598 1778                                           l3694 1044  
                                         l3862 1B98                                           l3854 1B5A  
                                         l3776 16C4                                           l3768 16AC  
                                         l3688 1864                                           l3792 1EBC  
                                         l3784 1E20                                           l3848 19AA  
                                         l3696 106A                                           l3856 1B6C  
                                         l3880 1592                                           l3794 1FD2  
                                         l3778 16C8                                           l3786 1E30  
                                         l3866 1E8C                                           l3698 1078  
                                         l3858 1B74                                           l3874 1432  
                                         l3890 15C6                                           l3882 15A4  
                                         l3788 1E38                                           l3868 1E9A  
                                         l3876 1446                                           l3892 15D4  
                                         l3884 15B4                                           l3798 1D44  
                                         l3878 14DA                                           l3894 15D6  
                                         l3886 15B6                                           l3896 15E4  
                                         l3888 15C4                                           l3898 15E8  
                                         l3996 16CC                                           l3998 16D0  
                                         STR_1 1021                                           u1060 1EFC  
                                         u1061 1EF8                                           u1500 1778  
                                         u1501 1774                                           _LATA 0F89  
                                         u1190 1CE4                                           u1510 17D0  
                                         _LATB 0F8A                                           u1191 1CE0  
                                         u1511 17CC                                           _LATC 0F8B  
                                         u1600 1C1A                                           u1520 1192  
                                         _LATD 0F8C                                           u1601 1C16  
                                         u1521 118E                                           _LATE 0F8D  
                                         u1610 1876                                           u1450 12B6  
                                         u1530 11DE                                           u1611 1872  
                                         u1451 12B2                                           u1531 11DA  
                                         u1700 196A                                           u1460 12C8  
                                         u1620 106A                                           u1701 1966  
                                         u1461 12C4                                           u1621 1066  
                                         u1710 19BE                                           u1470 12F0  
                                         u1550 1256                                           u1630 10B6  
                                         u1711 19BA                                           u1471 12EC  
                                         u1551 1252                                           u1631 10B2  
                                         u1640 1644                                           u1480 1326  
                                         u1560 1268                                           u1720 1446  
                                         u1641 1640                                           u1481 1322  
                                         u1561 1264                                           u1545 1226  
                                         u1721 1442                                           u1650 1E30  
                                         u1490 1BEC                                           u1570 1282  
                                         u1651 1E2C                                           u1491 1BE8  
                                         u1571 127E                                           u1731 159C  
                                         u1660 1D58                                           u1580 1E76  
                                         u1661 1D54                                           u1581 1E72  
                                         u1741 1624                                           u1590 1C04  
                                         u1670 1B4E                                           u1591 1C00  
                                         u1671 1B4A                                           u1680 1A4A  
                                         u1681 1A46                                           u1690 1A9E  
                                         u1691 1A9A                                           u1851 172E  
                                         u1867 1750                                           u1877 1E9C  
                                         _WPUB 0F7C                        ??_wr2RegCompleteHandler 000C  
                                         _dbuf 00DB                                           _main 16CC  
                     ?_I2C_CallbackReturnReset 000A                                           _prec 0034  
                                         pad@i 0066                                           pad@p 0064  
                                         fsr1h 0FE2                                           fsr2h 0FDA  
                                         indf2 0FDF                                           fsr1l 0FE1  
                                         pad@w 0068                                           fsr2l 0FD9  
                             __end_of_I2C_Open 16CC                                           btemp 0045  
                                         _xtoa 1184                          ?i2_I2C_MasterClearIrq 0001  
                     ?_eeprom_24C01C_read_byte 0026                                           prodh 0FF4  
                                         prodl 0FF3                                           start 00C4  
                              ??_rtc_get_value 0026                        _I2C_SetInterruptHandler 1FA0  
                         EUSART_Write_string@i 001D                   fp__I2C_DO_SEND_RESTART_WRITE 0000  
                                 ___param_bank 0000                                          ??_pad 002A  
                             ?_I2C_MasterClose 0001                                  ?_EUSART_Write 0001  
                             ?_I2C_MasterStart 0001                                  _I2C_DO_RX_ACK 1FEA  
                             ?_I2C_MasterWrite 0001                  __end_of_OSCILLATOR_Initialize 1FB4  
                                        ?_main 0001                                          _EEADR 0FA9  
                                        _ANSEL 0F7E                          _I2C_Read1ByteRegister 194E  
                                        ?_xtoa 006A                                          i2l112 1D9A  
                                        i2l106 1DF2                                          i2l115 1E1E  
                                        i2l109 1DC6                                          i2l118 1C6C  
                                        i2l502 1EEA                                          i2l522 194C  
                                        i2l602 1FF8                                          i2l611 1FE0  
                                        i2l363 0098                                          i2l532 1F9E  
                                        i2l620 1B04                                          i2l541 13F8  
                                        i2l605 1FF0                                          i2l525 201E  
                                        i2l614 1F86                                          i2l358 0078  
                                        i2l631 2056                                          i2l535 1F5E  
                                        i2l359 0098                                          i2l544 1430  
                                        i2l608 1FE8                                          i2l529 1A30  
                                        i2l650 2018                                          i2l538 1F4E  
                                        i2l628 205A                                          i2l653 2062  
                                        i2l557 151E                                          i2l558 158C  
                                        i2l647 204E                                          i2l671 2024  
                                        i2l575 1860                                          i2l665 205E  
                                        i2l569 1F92                                          i2l593 2010  
                                        i2l674 202A                                          i2l499 1E66  
                                        i2l659 2052                                          i2l668 1F3E  
                                        i2l596 2008                                          i2l692 2046  
                                        i2l695 204A                                          i2l599 2000  
                                        _RCREG 0FAE                                          _RCSTA 0FAB  
                                 vfpfcnvrt@fmt 007C                                          _SPBRG 0FAF  
                            ??_I2C_DO_TX_EMPTY 000C                                          _TRISA 0F92  
                                        _TRISB 0F93                                          _TRISC 0F94  
                                        _TRISD 0F95                                          _TRISE 0F96  
                                        _TXREG 0FAD                                          _TXSTA 0FAC  
                            __end_of_I2C_DO_RX 158E                              __end_of_I2C_DO_TX 1432  
                                        _flags 00DA                                          _fputc 12A4  
                            __end_of_I2C_Close 1D70                                          _fputs 1BAA  
                             fp__I2C_MasterIsr 0000                 I2C_MasterOperation@returnValue 001B  
                                        pad@fp 0060                                          _width 0032  
                                        _putch 2064                        _I2C_MasterEnableRestart 2060  
                                        pclath 0FFA                                          pclatu 0FFB  
                                        tablat 0FF5                               ?_I2C_SetCallback 001A  
                 I2C_SetAddressNackCallback@cb 001F                                          plusw0 0FEB  
                                        plusw1 0FE3                                          plusw2 0FDB  
                                        ttemp5 0046                                          ttemp6 0049  
                                        ttemp7 004D                                          status 0FD8  
                                        wtemp8 0046                                __end_of_sprintf 1BAA  
                                        xtoa@c 0079                                          xtoa@d 006C  
                            ?_I2C_DO_SEND_STOP 0001                                          xtoa@i 0077  
                                        xtoa@p 0075                                          xtoa@w 0071  
                           ??_I2C_DO_SEND_STOP 0001                       fp__rd1RegCompleteHandler 0000  
                              __initialization 1D16                          i2I2C_SetBuffer@buffer 0001  
                                 __end_of_main 1768                       fp__wr1RegCompleteHandler 0000  
                                 __end_of_xtoa 12A4                      ?_I2C_DO_SEND_RESTART_READ 0001  
                               ??_EUSART_Write 001A                                 ?_I2C_DO_RX_ACK 0001  
                  ?_INTERRUPT_InterruptManager 0001                                         ??_main 0132  
                            ?_I2C_MasterIsNack 0001                                         ??_xtoa 006E  
                                __activetblptr 0003                              ?_I2C_MasterSetIrq 0001  
                           ??_I2C_MasterIsNack 0001                             ??_I2C_MasterSetIrq 0001  
            _EUSART_DefaultFramingErrorHandler 0000                     _EUSART_OverrunErrorHandler 00FD  
              __end_of_I2C_CallbackReturnReset 2058                                         ?_fputc 001A  
                                       ?_fputs 0023                                         _EEADRH 0FAA  
                                       _EEDATA 0FA8                                         _EECON2 0FA7  
                I2C_SetDataCompleteCallback@cb 001F                i2I2C_SetDataCompleteCallback@cb 0006  
                                       ?_putch 0001                                         _ANSELH 0F7F  
                                       i2l3030 1F9C                                         i2l3102 152C  
                                       i2l3130 17FA                                         i2l3122 17E6  
                                       i2l3026 1F94                                         i2l3034 1F50  
                                       i2l3042 1F40                                         i2l3050 136E  
                                       i2l3114 1F88                                         i2l3124 17EE  
                                       i2l3140 1808                                         i2l3028 1F98  
                                       i2l3036 1F54                                         i2l3044 1F44  
                                       i2l3108 1534                                         i2l3116 1F8C  
                                       i2l3134 1800                                         i2l3038 1F5C  
                                       i2l3046 1F4C                                         i2l3070 13FC  
                                       i2l3062 1396                                         i2l3054 1386  
                                       i2l3118 1F90                                         i2l3128 17F6  
                                       i2l3072 140E                                         i2l3152 1F7C  
                                       i2l3160 1AA0                                         i2l3400 005C  
                                       i2l3074 1428                                         i2l3058 138E  
                                       i2l3090 1514                                         i2l3146 1FEA  
                                       i2l3154 1F80                                         i2l4122 1AEE  
                                       i2l3162 1AA4                                         i2l3250 19F0  
                                       i2l3242 19C2                                         i2l3402 0086  
                                       i2l2700 2060                                         i2l3076 142E  
                                       i2l3068 139E                                         i2l4124 1566  
                                       i2l3092 1518                                         i2l3084 14E8  
                                       i2l3148 1FEE                                         i2l3156 1F84  
                                       i2l3164 1AAC                                         i2l3244 19C6  
                                       i2l2702 205C                                         i2l4126 13D2  
                                       i2l3086 14F6                                         i2l3174 1ABC  
                                       i2l3190 2044                                         i2l3246 19D6  
                                       i2l2704 2026                                         i2l4128 183A  
                                       i2l3088 14FC                                         i2l3168 1AB4  
                                       i2l3248 19EA                                         i2l3098 1524  
                                       i2l3282 201A                                         i2l2750 1E64  
                                       i2l2744 1E44                                         i2l2752 1ED4  
                                       i2l2746 1E54                                         i2l2754 1DC8  
                                       i2l2762 1D9C                                         i2l2770 1D70  
                                       i2l2842 2014                                         i2l2850 2002  
                                       i2l3394 0032                                         i2l2748 1E5C  
                                       i2l2692 18DA                                         i2l2780 1E08  
                                       i2l2756 1DDC                                         i2l2764 1DB0  
                                       i2l2772 1D84                                         i2l2844 200A  
                                       i2l2852 2006                                         i2l3396 0040  
                                       i2l2694 18EC                                         i2l2782 1E1C  
                                       i2l2758 1DF0                                         i2l2766 1DC4  
                                       i2l2774 1D98                                         i2l2790 1C6A  
                                       i2l2862 204C                                         i2l2838 1F2C  
                                       i2l2846 200E                                         i2l2870 1FDE  
                                       i2l3398 004E                                         i2l2696 1920  
                                       i2l2880 2050                                         i2l2856 1FF2  
                                       i2l2778 1DF4                                         i2l2786 1C2E  
                                       i2l2890 2058                                         i2l2866 2020  
                                       i2l2882 1FFA                                         i2l2858 1FF6  
                                       i2l2874 1FE2                                         i2l2788 1C56  
                                       i2l2884 1FFE                                         i2l2876 1FE6  
                                       i2l2868 1FDA                                         i2l2894 2054  
                                       i2l2888 2048                                         _TABLAT 0FF5  
                                       _OSCCON 0FD3                         ??i2_I2C_MasterClearIrq 0001  
                    ??_I2C_SetInterruptHandler 001C                                         _SPBRGH 0FB0  
                                       _SSPADD 0FC8                   eeprom_24C01C_write_byte@data 0027  
                                       _SSPBUF 0FC9                            _I2C_MasterEnableIrq 202C  
                          _I2C_MasterGetRxData 204C                                   vfprintf@cfmt 008E  
                            rtc_get_value@F476 002B                                         _data_1 003A  
                                       _data_2 0039                                  _I2C_MasterFsm 19C2  
                                _I2C_MasterIsr 201A                                         clear_0 1D1C  
                                       clear_1 1D28                                         clear_2 1D34  
                            I2C_SetCallback@cb 001A                        fp__I2C_DO_SEND_ADR_READ 0000  
                       ?_I2C_Read1ByteRegister 0023                                         isa$std 0001  
                                       pad@buf 0062                                  _I2C_SetBuffer 1E20  
                     _eeprom_24C01C_write_byte 1E8A                   __end_of_I2C_MasterDisableIrq 2038  
                                       fputc@c 001A                           ?_I2C_MasterEnableIrq 0001  
                                       fputs@c 0027                            _I2C_DO_ADDRESS_NACK 1AA0  
                                       fputs@i 0028                                         fputs@s 0023  
                        _Temp_sensor_TC74_Read 1F6E                           ?_I2C_MasterGetRxData 0001  
                                    ?_I2C_Open 0001             __end_of_I2C_SetAddressNackCallback 1ED4  
                   _I2C_SetAddressNackCallback 1EBC                                   __mediumconst 0000  
                                       tblptrh 0FF7                                         tblptrl 0FF6  
                                       tblptru 0FF8                      ??_I2C_MasterEnableRestart 0001  
                                       putch@c 0001                               __end_of_vfprintf 1B5A  
      I2C_SetInterruptHandler@InterruptHandler 001A                                      ??_sprintf 002B  
                                       xtoa@fp 006A                              _SYSTEM_Initialize 1F02  
                                   __accesstop 0060                        __end_of__initialization 1D3A  
                          _I2C_MasterOperation 1BEE                             ?_SYSTEM_Initialize 0001  
                                ___rparam_used 0001                           ?_I2C_DO_ADDRESS_NACK 0001  
                      _rdBlkRegCompleteHandler 1C2E                     fp__rdBlkRegCompleteHandler 0000  
                               __pcstackCOMRAM 0001                                 ?_I2C_MasterFsm 0001  
                               ?_I2C_MasterIsr 0001                                ??_I2C_DO_RX_ACK 0001  
                       _I2C_CallbackReturnStop 2058                            ??_SYSTEM_Initialize 001C  
                                __end_of_fputc 136E                                  __end_of_fputs 1BEE  
                                __end_of_putch 2066                                 ?_I2C_SetBuffer 001A  
                __end_of_I2C_DO_SEND_ADR_WRITE 1F50                     ?_I2C_DO_SEND_RESTART_WRITE 0001  
                         ?_I2C_MasterOperation 0001                          ??_I2C_MasterEnableIrq 001A  
                        ??_I2C_MasterGetRxData 0001                        ?_I2C_Write1ByteRegister 0023  
                                   ??_I2C_Open 001C                     __end_of_I2C_MasterClearIrq 2040  
              ??_EUSART_SetOverrunErrorHandler 001C                                        ??_fputc 001E  
                    __end_of_SYSTEM_Initialize 1F18                                        ??_fputs 0027  
                                      ??_putch 001A                              _I2C_MasterSendAck 2020  
                                   __pbssBANK0 00B6                                     __pbssBANK1 0100  
                         __end_of_EUSART_Write 1F02                                  ??_I2C_DO_IDLE 0001  
                          _print_rtc_data_time 1432                                  ??_I2C_DO_RCEN 0001  
                __end_of_rd2RegCompleteHandler 1DC8                   __end_of_I2C_MasterSendTxData 201A  
                           ?_I2C_MasterSendAck 0001                              _I2C_MasterStartRx 2050  
                                   __pnvCOMRAM 0043                          ??_I2C_DO_ADDRESS_NACK 000C  
                __end_of_wr2RegCompleteHandler 1E20                            _I2C_DO_RX_NACK_STOP 1FE2  
                        _rd1RegCompleteHandler 1DC8                             ?_I2C_MasterStartRx 0001  
                   __end_of_I2C_MasterSendNack 202C                          _wr1RegCompleteHandler 1D70  
                          ??_I2C_MasterSendAck 0001                         print_rtc_data_time@ptr 00AE  
                     rd1RegCompleteHandler@ptr 000A                    __end_of_I2C_DO_SEND_RESTART 2002  
                              _I2C_DO_TX_EMPTY 17E6                            I2C_SetBuffer@buffer 001A  
                          ??_I2C_MasterStartRx 0001                                        _BAUDCON 0FB8  
                         ?_print_rtc_data_time 00AE                          ??_I2C_MasterOperation 001A  
               I2C_SetDataCompleteCallback@ptr 0021               i2I2C_SetDataCompleteCallback@ptr 0008  
               __end_of_I2C_Write1ByteRegister 1AA0                         ?_Temp_sensor_TC74_Read 0026  
                     ??_I2C_DO_RX_NACK_RESTART 0001              __end_of_I2C_DO_SEND_RESTART_WRITE 200A  
                         ?_I2C_DO_RX_NACK_STOP 0001                                        _TBLPTRH 0FF7  
                                      _TBLPTRL 0FF6                                        _TBLPTRU 0FF8  
                    __end_of_I2C_MasterSendAck 2026                                        _OSCTUNE 0F9B  
                                      i2u95_40 1E54                                        i2u95_41 1E50  
                                      i2u88_40 18EC                                        i2u88_41 18E8  
                     ??_EUSART_SetErrorHandler 001C                                        _SSPCON1 0FC6  
                                      _SSPCON2 0FC5                            _EUSART_Write_string 1CAC  
                                      _SSPSTAT 0FC7                      __end_of_I2C_MasterStartRx 2054  
                         I2C_Close@returnValue 001A                   ?_I2C_SetDataCompleteCallback 001F  
                                    _I2C_DO_RX 14E8                                      _I2C_DO_TX 136E  
             __end_of_I2C_DO_SEND_RESTART_READ 2012                   I2C_Read1ByteRegister@address 0024  
                                    _I2C_Close 1D44                      ??_rdBlkRegCompleteHandler 000C  
                         _I2C_MasterDisableIrq 2034                              ??i2_I2C_SetBuffer 0005  
                              ??_I2C_MasterFsm 000E                                ??_I2C_MasterIsr 0010  
                                      __Hparam 0000                                        __Lparam 0000  
                          __end_of_I2C_DO_IDLE 1FA0                          __end_of_rtc_get_value 162E  
                          __end_of_I2C_DO_RCEN 1F94                           ?_EUSART_Write_string 001B  
                              ??_I2C_SetBuffer 001E                                      ?_vfprintf 0088  
                      I2C_SetBuffer@bufferSize 001C                                   __psmallconst 1000  
                        ??_print_rtc_data_time 00B0                                 _I2C_MasterOpen 1E68  
                                      __pcinit 1D16                                 _I2C_MasterStop 205C  
                               _I2C_Initialize 1F18                                        __ramtop 1000  
                                      __ptext0 16CC                                        __ptext1 158E  
                                      __ptext2 1432                                        __ptext3 1B5A  
                                      __ptext4 1B06                                        __ptext5 1044  
                                      __ptext6 1184                                        __ptext7 1768  
                                      __ptext8 1BAA                                        __ptext9 12A4  
                        ??_I2C_DO_RX_NACK_STOP 0001                          _OSCILLATOR_Initialize 1FAA  
                                      _reading 003C                             I2C_SetCallback@idx 001E  
                     ??_PIN_MANAGER_Initialize 001A                  I2C_CallbackReturnReset@funPtr 000A  
                           I2C_SetCallback@ptr 001C                       wr1RegCompleteHandler@ptr 000A  
                    I2C_Write1ByteRegister@reg 0023                       fp__I2C_DO_SEND_ADR_WRITE 0000  
                                      _sprintf 1B5A                           end_of_initialization 1D3A  
                                   ?_I2C_DO_RX 0001                                     ?_I2C_DO_TX 0001  
        __end_of_EUSART_SetOverrunErrorHandler 1FBE                  _EUSART_SetOverrunErrorHandler 1FB4  
                                      fputc@fp 001C                                     ?_I2C_Close 0001  
                                      fputs@fp 0025                         ?_rd1RegCompleteHandler 000A  
                      __end_of_I2C_DO_TX_EMPTY 1862                          ?_I2C_MasterDisableIrq 0001  
                            _EUSART_Initialize 1C6E                         ?_wr1RegCompleteHandler 000A  
                     fp__rd2RegCompleteHandler 0000                             ?_EUSART_Initialize 0001  
                            __end_of_vfpfcnvrt 1184                     ??_eeprom_24C01C_write_byte 0028  
                        ??_EUSART_Write_string 001D                                      _RCSTAbits 0FAB  
                                      postdec2 0FDD                        ??_I2C_Read1ByteRegister 0024  
                       __end_of_I2C_MasterOpen 1E8A                       fp__wr2RegCompleteHandler 0000  
                                      postinc0 0FEE                                        postinc1 0FE6  
                                      postinc2 0FDE                               vfpfcnvrt@convarg 0082  
                       __end_of_I2C_MasterStop 2060                         __end_of_I2C_Initialize 1F2C  
                                   ??_vfprintf 002B                      fp__I2C_CallbackReturnStop 0000  
                          ??_EUSART_Initialize 001C                __end_of_rdBlkRegCompleteHandler 1C6E  
                         _I2C_MasterSendTxData 2012                                fp__I2C_DO_RESET 0000  
                      EUSART_Write_string@data 001B                    ?_I2C_SetAddressNackCallback 001F  
            eeprom_24C01C_write_byte@eeprom_id 0028                      __end_of_EUSART_Initialize 1CAC  
                                  _I2C_DO_IDLE 1F94                                    _I2C_DO_RCEN 1F88  
                   rdBlkRegCompleteHandler@ptr 000A                  I2C_Write1ByteRegister@address 0025  
                                    _TXSTAbits 0FAC                        ?_I2C_CallbackReturnStop 000A  
                     _I2C_DO_SEND_RESTART_READ 200A                    fp__I2C_DO_SEND_RESTART_READ 0000  
                 Temp_sensor_TC74_Read@address 0027                              i2_I2C_SetCallback 18D8  
                 I2C_CallbackReturnStop@funPtr 000A                                ?_I2C_MasterOpen 0001  
                 __end_of_INTERRUPT_Initialize 2044                                ?_I2C_MasterStop 0001  
                              ?_I2C_Initialize 0001                        _I2C_CallbackReturnReset 2054  
                     I2C_Read1ByteRegister@reg 0023                     fp__I2C_CallbackReturnReset 0000  
                   _EUSART_DefaultErrorHandler 0000                             ?i2_I2C_SetCallback 0001  
                      _eeprom_24C01C_read_byte 1F60                                    vfpfcnvrt@ap 007E  
                                  vfpfcnvrt@cp 0086                                    vfpfcnvrt@fp 007A  
              ??i2_I2C_SetDataCompleteCallback 000A                                   _EUSART_Write 1EEC  
                        ?_I2C_MasterSendTxData 0001                         ?_OSCILLATOR_Initialize 0001  
                  ??_I2C_DO_SEND_RESTART_WRITE 0001                            ??i2_I2C_SetCallback 0005  
                          start_initialization 1D16                                    __end_of_pad 17E6  
                                ?_I2C_DO_RESET 0001                       ?_I2C_SetInterruptHandler 001A  
                                  ??_I2C_DO_RX 000C                                    ??_I2C_DO_TX 000C  
                            ??_I2C_MasterClose 001A                         ??_I2C_MasterDisableIrq 001A  
                                  ??_I2C_Close 001A                              ??_I2C_MasterStart 001A  
                            ??_I2C_MasterWrite 001C                 __end_of_I2C_CallbackReturnStop 205C  
                       _I2C_DO_RX_NACK_RESTART 1FDA                               ?_I2C_DO_TX_EMPTY 0001  
                           _I2C_MasterClearIrq 203C                      __end_ofi2_I2C_SetCallback 194E  
               ?_EUSART_SetOverrunErrorHandler 001A                                    vfprintf@fmt 008A  
                   _EUSART_FramingErrorHandler 0043                         _EUSART_SetErrorHandler 1FC8  
                  __end_of_I2C_MasterEnableIrq 2030                            ?_I2C_MasterClearIrq 0001  
                  __end_of_I2C_MasterGetRxData 2050                        ??_Temp_sensor_TC74_Read 0027  
                        __end_of_I2C_DO_RX_ACK 1FF2                               _I2C_DO_SEND_STOP 1FF2  
                            ??_I2C_SetCallback 001E                            I2C_Open@returnValue 001D  
                           _I2C_MasterSendNack 2026                       ?_I2C_MasterEnableRestart 0001  
                            _i2c_fsmStateTable 1001                         fp__I2C_DO_SEND_RESTART 0000  
                        _I2C_DO_SEND_ADR_WRITE 1F40                                    __pbssCOMRAM 002B  
                                __pcstackBANK0 0060                                  __pcstackBANK1 0132  
                               ??_I2C_DO_RESET 0001                            ?_I2C_MasterSendNack 0001  
                              i2_I2C_SetBuffer 1E44                   __end_of_I2C_DO_SEND_ADR_READ 1F60  
                         ??_I2C_MasterClearIrq 001A                    __end_of_I2C_DO_ADDRESS_NACK 1B06  
                             _I2C_MasterIsNack 1F2C                      _I2C_DO_SEND_RESTART_WRITE 2002  
                             _I2C_MasterSetIrq 2048                                      __pnvBANK0 00FB  
                        _rd2RegCompleteHandler 1D9C                         _PIN_MANAGER_Initialize 1CE6  
             __end_of_eeprom_24C01C_write_byte 1EA4                          _wr2RegCompleteHandler 1DF4  
                    ??_I2C_CallbackReturnReset 000C                      ??_eeprom_24C01C_read_byte 0027  
                  __end_of_I2C_MasterOperation 1C2E                           ??_I2C_MasterSendNack 0001  
                     rd2RegCompleteHandler@ptr 000A                                      __pintcode 0008  
                       ??_I2C_MasterSendTxData 0001                      __end_of_i2c_fsmStateTable 1021  
                 ??_INTERRUPT_InterruptManager 0010                                   fp__I2C_DO_RX 0000  
                                 fp__I2C_DO_TX 0000                                    __smallconst 1000  
              __end_of_I2C_SetInterruptHandler 1FAA          __end_ofi2_I2C_SetDataCompleteCallback 1EEC  
                i2_I2C_SetDataCompleteCallback 1ED4                        I2C_MasterOperation@read 001A  
                                     _I2C_Open 162E                                       ?_sprintf 0090  
                      ??_rd1RegCompleteHandler 000C                           _INTERRUPT_Initialize 2040  
                      ??_wr1RegCompleteHandler 000C         EUSART_SetErrorHandler@interruptHandler 001A  
                                     _PIE1bits 0F9D                                       _PIE2bits 0FA0  
                            _eusartRxLastError 003B                                       i2u100_40 1F3C  
                                     i2u100_41 1F36                                       i2u100_46 1F3E  
                                     i2u110_40 1514                                       i2u110_41 1510  
                                     i2u111_48 1542                                       i2u120_40 19D6  
                                     i2u111_49 1554                                       i2u120_41 19D2  
                                     i2u112_48 1816                                       i2u121_40 19EA  
                                     i2u112_49 1828                                       i2u121_41 19E6  
                                     i2u113_48 1ACA                                       i2u113_49 1ADC  
                                     i2u107_40 1382                                       i2u122_48 1A1A  
                                     i2u107_41 137E                                       i2u122_49 1A2C  
                                     i2u140_40 0086                                       i2u140_41 0082  
                  __end_of_print_rtc_data_time 14E8                                       i2u109_40 1428  
                                     i2u108_48 13AC                                       i2u141_40 0094  
                                     i2u109_41 1424                                       i2u108_49 13C0  
                                     i2u141_41 0090                                       i2u136_40 0040  
                                     i2u136_41 003C                                       i2u137_40 004E  
                                     i2u137_41 004A                                       i2u138_40 005C  
                                     i2u138_41 0058                                       i2u139_48 0062  
                                     i2u139_49 0074                                       _PIR1bits 0F9E  
                                  _bufferWrite 0100                ??_EUSART_SetFramingErrorHandler 001C  
                                     _PIR2bits 0FA1               rtc_get_value@rtc_get_value_local 0068  
                        __end_of_I2C_MasterFsm 1A32                          __end_of_I2C_MasterIsr 2020  
                                     _RCONbits 0FD0                    __end_of_I2C_DO_RX_NACK_STOP 1FEA  
            _EUSART_DefaultOverrunErrorHandler 0000                __end_of_I2C_MasterEnableRestart 2064  
                               fp__I2C_DO_IDLE 0000                                 fp__I2C_DO_RCEN 0000  
                __end_of_I2C_Read1ByteRegister 19C2                                      _vfpfcnvrt 1044  
                        __end_of_I2C_SetBuffer 1E44                                      _xtoa$2290 0073  
                     Temp_sensor_TC74_Read@reg 0026                         ?_I2C_DO_SEND_ADR_WRITE 0001  
                      __end_ofi2_I2C_SetBuffer 1E68                       I2C_MasterSendTxData@data 0001  
              __end_of_eeprom_24C01C_read_byte 1F6E                       wr2RegCompleteHandler@ptr 000A  
                                  _INTCON2bits 0FF1                     ??_I2C_DO_SEND_RESTART_READ 0001  
                        ?_INTERRUPT_Initialize 0001                       ?_rdBlkRegCompleteHandler 000A  
                    i2I2C_SetBuffer@bufferSize 0003                                     _I2C_Status 00B6  
                                 ?_I2C_DO_IDLE 0001                                   ?_I2C_DO_RCEN 0001  
                       ?_rd2RegCompleteHandler 000A                    __end_of_EUSART_Write_string 1CE6  
                                   _EECON1bits 0FA6                               ??_I2C_MasterOpen 001A  
                       ?_wr2RegCompleteHandler 000A                               ??_I2C_MasterStop 0001  
                             ??_I2C_Initialize 001A                      fp__I2C_DO_RX_NACK_RESTART 0000  
                                     __Hrparam 0000                                     vfprintf@ap 008C  
                                     __Lrparam 0000                                     vfprintf@fp 0088  
                         __end_of_I2C_DO_RESET 1F88                       ??_I2C_Write1ByteRegister 0025  
                      ??_OSCILLATOR_Initialize 001A                            _EUSART_ErrorHandler 00FB  
                         _I2C_DO_SEND_ADR_READ 1F50            eeprom_24C01C_read_byte@byte_address 0026  
                                   ?_vfpfcnvrt 007A               I2C_Read1ByteRegister@returnValue 0025  
                 __end_ofi2_I2C_MasterClearIrq 2048                                _I2C_MasterClose 2038  
                I2C_SetAddressNackCallback@ptr 0021                                     sprintf@fmt 0092  
                              I2C_Open@address 001C                            fp__I2C_DO_SEND_STOP 0000  
                         i2I2C_SetCallback@idx 0005                                _I2C_MasterStart 2030  
                         i2I2C_SetCallback@ptr 0003                                _I2C_MasterWrite 1FD2  
                    ?_eeprom_24C01C_write_byte 0026           eeprom_24C01C_write_byte@byte_address 0026  
                                     __ptext10 2064                                       __ptext11 1CAC  
                                     __ptext20 1EBC                                       __ptext12 1EEC  
                                     __ptext21 1862                                       __ptext13 1E8A  
                                     __ptext30 2034                                       __ptext22 162E  
                                     __ptext14 1A32                                       __ptext31 2038  
                                     __ptext23 1FA0                                       __ptext15 1F60  
                                     __ptext40 1FBE                                       __ptext32 203C  
                                     __ptext24 1E68                                       __ptext16 1F6E  
                                     __ptext41 1FC8                                       __ptext33 1F02  
                                     __ptext25 202C                                       __ptext17 194E  
                                     __ptext50 1FEA                                       __ptext34 1CE6  
                                     __ptext26 1FD2                                       __ptext18 1EA4  
                                     __ptext51 1FF2                                       __ptext43 201A  
                                     __ptext35 1FAA                                       __ptext27 1BEE  
                                     __ptext19 1E20                                       __ptext60 1F94  
                                     __ptext52 1FFA                                       __ptext44 19C2  
                                     __ptext36 2040                                       __ptext28 2030  
                                     __ptext61 17E6                                       __ptext53 2002  
                                     __ptext45 2044                                       __ptext37 1F18  
                                     __ptext29 1D44                                       __ptext70 2058  
                                     __ptext62 2048                                       __ptext54 200A  
                                     __ptext46 1AA0                                       __ptext38 1C6E  
                                     __ptext71 1C2E                                       __ptext63 1F2C  
                                     __ptext55 1F88                                       __ptext47 1F7C  
                                     __ptext39 1FB4                                       __ptext80 2060  
                                     __ptext72 1D70                                       __ptext64 2012  
                                     __ptext56 14E8                                       __ptext48 1FDA  
                                     __ptext81 0000                                       __ptext73 1D9C  
                                     __ptext65 2020                                       __ptext57 136E  
                                     __ptext49 1FE2                                       __ptext74 1DC8  
                                     __ptext66 204C                                       __ptext58 1F40  
                                     __ptext75 1DF4                                       __ptext67 2026  
                                     __ptext59 1F50                                       __ptext76 1ED4  
                                     __ptext68 2050                                       __ptext77 18D8  
                                     __ptext69 2054                                       __ptext78 1E44  
                                     __ptext79 205C            __end_of_I2C_SetDataCompleteCallback 1EBC  
               ?i2_I2C_SetDataCompleteCallback 0006                    _I2C_SetDataCompleteCallback 1EA4  
                      ?_I2C_DO_RX_NACK_RESTART 0001                       __end_of_I2C_DO_SEND_STOP 1FFA  
             eeprom_24C01C_read_byte@eeprom_id 0027                            rtc_get_value@adress 0067  
                      ?_EUSART_SetErrorHandler 001A                                _I2C_SetCallback 1862  
                ??_I2C_SetDataCompleteCallback 0023                     I2C_Write1ByteRegister@data 0024  
EUSART_SetOverrunErrorHandler@interruptHandler 001A                                       isa$xinst 0000  
                                _rtc_get_value 158E                                       int$flags 0045  
                        ?_I2C_DO_SEND_ADR_READ 0001                                       _vfprintf 1B06  
           __end_of_INTERRUPT_InterruptManager 00C4                     _INTERRUPT_InterruptManager 0008  
        __end_of_EUSART_SetFramingErrorHandler 1FC8                  _EUSART_SetFramingErrorHandler 1FBE  
                     __end_of_I2C_MasterIsNack 1F40                  __end_of_Temp_sensor_TC74_Read 1F7C  
                     __end_of_I2C_MasterSetIrq 204C                               ?i2_I2C_SetBuffer 0001  
                                 _temp_reading 0038                                     _INTCONbits 0FF2  
                       ??_INTERRUPT_Initialize 001A                 __end_of_I2C_DO_RX_NACK_RESTART 1FE2  
                                     intlevel2 0000                                      sprintf@ap 00A0  
                          i2I2C_SetCallback@cb 0001                        ?_PIN_MANAGER_Initialize 0001  
               __end_of_EUSART_SetErrorHandler 1FD2                            _I2C_DO_SEND_RESTART 1FFA  
                       fp__I2C_DO_ADDRESS_NACK 0000                                 ?_rtc_get_value 0060  
EUSART_SetFramingErrorHandler@interruptHandler 001A                        __end_of_I2C_MasterClose 203C  
                           fp__I2C_DO_TX_EMPTY 0000                                    ??_vfpfcnvrt 0080  
                      __end_of_I2C_MasterStart 2034                        __end_of_I2C_MasterWrite 1FDA  
                         ?_I2C_DO_SEND_RESTART 0001                                       sprintf@f 00A2  
                                     sprintf@s 0090                                    _SSPCON1bits 0FC6  
                                  _SSPCON2bits 0FC5                             EUSART_Write@txData 001A  
                      __end_of_I2C_SetCallback 18D8                 __end_of_PIN_MANAGER_Initialize 1D16  
                __end_of_rd1RegCompleteHandler 1DF4                               fp__I2C_DO_RX_ACK 0000  
                __end_of_wr1RegCompleteHandler 1D9C                          _MSSP_InterruptHandler 0036  
                         i2_I2C_MasterClearIrq 2044  
