

Microchip MPLAB XC8 Assembler V2.41 build 20230208172133 
                                                                                               Mon Aug 28 18:41:30 2023

Microchip MPLAB XC8 C Compiler v2.41 (Free license) build 20230208172133 Og1 
     1                           	processor	18F46K20
     2                           	fnconf	rparam,??,?,0
     3                           	pagewidth 120
     4                           	opt	flic
     5                           	psect	smallconst,global,reloc=2,class=SMALLCONST,delta=1,noexec
     6                           	psect	nvCOMRAM,global,class=COMRAM,space=1,delta=1,lowdata,noexec
     7                           	psect	cinit,global,reloc=2,class=CODE,delta=1
     8                           	psect	bssCOMRAM,global,class=COMRAM,space=1,delta=1,lowdata,noexec
     9                           	psect	bssBANK0,global,class=BANK0,space=1,delta=1,lowdata,noexec
    10                           	psect	cstackBANK0,global,class=BANK0,space=1,delta=1,lowdata,noexec
    11                           	psect	cstackCOMRAM,global,class=COMRAM,space=1,delta=1,lowdata,noexec
    12                           	psect	text0,global,reloc=2,class=CODE,delta=1
    13                           	psect	text1,global,reloc=2,class=CODE,delta=1
    14                           	psect	text2,global,reloc=2,class=CODE,delta=1
    15                           	psect	text3,global,reloc=2,class=CODE,delta=1
    16                           	psect	text4,global,reloc=2,class=CODE,delta=1
    17                           	psect	text5,global,reloc=2,class=CODE,delta=1
    18                           	psect	text6,global,reloc=2,class=CODE,delta=1
    19                           	psect	text7,global,reloc=2,class=CODE,delta=1
    20                           	psect	text8,global,reloc=2,class=CODE,delta=1
    21                           	psect	text9,global,reloc=2,class=CODE,delta=1
    22                           	psect	text10,global,reloc=2,class=CODE,delta=1
    23                           	psect	intcode,global,reloc=2,class=CODE,delta=1
    24                           	psect	text12,global,reloc=2,class=CODE,delta=1
    25                           	psect	text13,global,reloc=2,class=CODE,delta=1,inline
    26                           	psect	text14,global,reloc=2,class=CODE,delta=1,inline
    27                           	psect	text15,global,reloc=2,class=CODE,delta=1
    28                           	psect	text16,global,reloc=2,class=CODE,delta=1
    29                           	psect	text17,global,reloc=2,class=CODE,delta=1
    30                           	psect	text18,global,reloc=2,class=CODE,delta=1
    31                           	psect	text19,global,reloc=2,class=CODE,delta=1
    32                           	psect	text20,global,reloc=2,class=CODE,delta=1
    33                           	psect	text21,global,reloc=2,class=CODE,delta=1
    34                           	psect	text22,global,reloc=2,class=CODE,delta=1
    35                           	psect	text23,global,reloc=2,class=CODE,delta=1
    36                           	psect	text24,global,reloc=2,class=CODE,delta=1
    37                           	psect	text25,global,reloc=2,class=CODE,delta=1
    38                           	psect	text26,global,reloc=2,class=CODE,delta=1
    39                           	psect	text27,global,reloc=2,class=CODE,delta=1
    40                           	psect	text28,global,reloc=2,class=CODE,delta=1
    41                           	psect	text29,global,reloc=2,class=CODE,delta=1
    42                           	psect	text30,global,reloc=2,class=CODE,delta=1
    43                           	psect	text31,global,reloc=2,class=CODE,delta=1,inline
    44                           	psect	text32,global,reloc=2,class=CODE,delta=1,inline
    45                           	psect	text33,global,reloc=2,class=CODE,delta=1,inline
    46                           	psect	text34,global,reloc=2,class=CODE,delta=1,inline
    47                           	psect	text35,global,reloc=2,class=CODE,delta=1,inline
    48                           	psect	text36,global,reloc=2,class=CODE,delta=1,inline
    49                           	psect	text37,global,reloc=2,class=CODE,delta=1,inline
    50                           	psect	text38,global,reloc=2,class=CODE,delta=1
    51                           	psect	text39,global,reloc=2,class=CODE,delta=1
    52                           	psect	text40,global,reloc=2,class=CODE,delta=1
    53                           	psect	text41,global,reloc=2,class=CODE,delta=1
    54                           	psect	text42,global,reloc=2,class=CODE,delta=1
    55                           	psect	text43,global,reloc=2,class=CODE,delta=1
    56                           	psect	text44,global,reloc=2,class=CODE,delta=1
    57                           	psect	text45,global,reloc=2,class=CODE,delta=1
    58                           	psect	text46,global,reloc=2,class=CODE,delta=1
    59                           	psect	text47,global,reloc=2,class=CODE,delta=1
    60                           	psect	text48,global,reloc=2,class=CODE,delta=1,inline
    61                           	psect	text49,global,reloc=2,class=CODE,delta=1,inline
    62                           	psect	intsave_regs,global,class=BIGRAM,space=1,delta=1,noexec
    63                           	psect	text50,global,reloc=2,class=CODE,delta=1,inline
    64                           	psect	rparam,global,class=COMRAM,space=1,delta=1,noexec
    65                           	psect	temp,global,ovrld,common,class=COMRAM,space=1,delta=1
    66                           	psect	idloc,global,abs,ovrld,class=IDLOC,space=5,delta=1,noexec
    67                           	psect	config,global,abs,ovrld,class=CONFIG,space=4,delta=1,noexec
    68   000000                     
    69                           ; Generated 21/07/2023 GMT
    70                           ; 
    71                           ; Copyright © 2023, Microchip Technology Inc. and its subsidiaries ("Microchip")
    72                           ; All rights reserved.
    73                           ; 
    74                           ; This software is developed by Microchip Technology Inc. and its subsidiaries ("Microch
      +                          ip").
    75                           ; 
    76                           ; Redistribution and use in source and binary forms, with or without modification, are
    77                           ; permitted provided that the following conditions are met:
    78                           ; 
    79                           ;     1. Redistributions of source code must retain the above copyright notice, this lis
      +                          t of
    80                           ;        conditions and the following disclaimer.
    81                           ; 
    82                           ;     2. Redistributions in binary form must reproduce the above copyright notice, this 
      +                          list
    83                           ;        of conditions and the following disclaimer in the documentation and/or other
    84                           ;        materials provided with the distribution. Publication is not required when
    85                           ;        this file is used in an embedded application.
    86                           ; 
    87                           ;     3. Microchip's name may not be used to endorse or promote products derived from th
      +                          is
    88                           ;        software without specific prior written permission.
    89                           ; 
    90                           ; THIS SOFTWARE IS PROVIDED BY MICROCHIP "AS IS" AND ANY EXPRESS OR IMPLIED WARRANTIES,
    91                           ; INCLUDING, BUT NOT LIMITED TO, THE IMPLIED WARRANTIES OF MERCHANTABILITY AND FITNESS F
      +                          OR
    92                           ; PURPOSE ARE DISCLAIMED.  IN NO EVENT SHALL MICROCHIP BE LIABLE FOR ANY DIRECT, INDIREC
      +                          T,
    93                           ; INCIDENTAL, SPECIAL, EXEMPLARY, OR CONSEQUENTIAL DAMAGES (INCLUDING BUT NOT LIMITED TO
    94                           ; PROCUREMENT OF SUBSTITUTE GOODS OR SERVICES; LOSS OF USE, DATA OR PROFITS; OR BUSINESS
    95                           ; INTERRUPTION) HOWSOEVER CAUSED AND ON ANY THEORY OF LIABILITY, WHETHER IN CONTRACT, ST
      +                          RICT
    96                           ; LIABILITY, OR TORT (INCLUDING NEGLIGENCE OR OTHERWISE) ARISING IN ANY WAY OUT OF THE U
      +                          SE OF
    97                           ; THIS SOFTWARE, EVEN IF ADVISED OF THE POSSIBILITY OF SUCH DAMAGE.
    98                           ; 
    99                           ; 
   100                           ; Code-generator required, PIC18F46K20 Definitions
   101                           ; 
   102                           ; SFR Addresses
   103   000000                     
   104 ;; Function _EUSART_DefaultFramingErrorHandler is unused but had its address taken
   105   000000                     
   106 ;; Function _EUSART_DefaultOverrunErrorHandler is unused but had its address taken
   107   000000                     
   108 ;; Function _EUSART_DefaultErrorHandler is unused but had its address taken
   109   000000                     
   110                           	psect	smallconst
   111   001000                     __psmallconst:
   112                           	callstack 0
   113   001000  00                 	db	0
   114   001001                     _i2c_fsmStateTable:
   115                           	callstack 0
   116   001001  C4                 	db	low _I2C_DO_IDLE
   117   001002  15                 	db	high _I2C_DO_IDLE
   118   001003  7A                 	db	low _I2C_DO_SEND_ADR_READ
   119   001004  15                 	db	high _I2C_DO_SEND_ADR_READ
   120   001005  6C                 	db	low _I2C_DO_SEND_ADR_WRITE
   121   001006  15                 	db	high _I2C_DO_SEND_ADR_WRITE
   122   001007  22                 	db	low _I2C_DO_TX
   123   001008  10                 	db	high _I2C_DO_TX
   124   001009  E0                 	db	low _I2C_DO_RX
   125   00100A  10                 	db	high _I2C_DO_RX
   126   00100B  BA                 	db	low _I2C_DO_RCEN
   127   00100C  15                 	db	high _I2C_DO_RCEN
   128   00100D  84                 	db	low _I2C_DO_TX_EMPTY
   129   00100E  11                 	db	high _I2C_DO_TX_EMPTY
   130   00100F  FE                 	db	low _I2C_DO_SEND_RESTART_READ
   131   001010  15                 	db	high _I2C_DO_SEND_RESTART_READ
   132   001011  F6                 	db	low _I2C_DO_SEND_RESTART_WRITE
   133   001012  15                 	db	high _I2C_DO_SEND_RESTART_WRITE
   134   001013  EE                 	db	low _I2C_DO_SEND_RESTART
   135   001014  15                 	db	high _I2C_DO_SEND_RESTART
   136   001015  E6                 	db	low _I2C_DO_SEND_STOP
   137   001016  15                 	db	high _I2C_DO_SEND_STOP
   138   001017  DE                 	db	low _I2C_DO_RX_ACK
   139   001018  15                 	db	high _I2C_DO_RX_ACK
   140   001019  D6                 	db	low _I2C_DO_RX_NACK_STOP
   141   00101A  15                 	db	high _I2C_DO_RX_NACK_STOP
   142   00101B  CE                 	db	low _I2C_DO_RX_NACK_RESTART
   143   00101C  15                 	db	high _I2C_DO_RX_NACK_RESTART
   144   00101D  B0                 	db	low _I2C_DO_RESET
   145   00101E  15                 	db	high _I2C_DO_RESET
   146   00101F  DC                 	db	low _I2C_DO_ADDRESS_NACK
   147   001020  12                 	db	high _I2C_DO_ADDRESS_NACK
   148   001021                     __end_of_i2c_fsmStateTable:
   149                           	callstack 0
   150   000000                     _TRISD	set	3989
   151   000000                     _TRISC	set	3988
   152   000000                     _TRISB	set	3987
   153   000000                     _LATC	set	3979
   154   000000                     _LATB	set	3978
   155   000000                     _EEDATA	set	4008
   156   000000                     _EEADR	set	4009
   157   000000                     _EEADRH	set	4010
   158   000000                     _EECON2	set	4007
   159   000000                     _TXREG	set	4013
   160   000000                     _RCREG	set	4014
   161   000000                     _SPBRG	set	4015
   162   000000                     _TXSTA	set	4012
   163   001021  00                 	db	0	; dummy byte at the end
   164   000000                     
   165                           	psect	nvCOMRAM
   166   00004F                     __pnvCOMRAM:
   167                           	callstack 0
   168   00004F                     _EUSART_ErrorHandler:
   169                           	callstack 0
   170   00004F                     	ds	2
   171   000051                     _EUSART_OverrunErrorHandler:
   172                           	callstack 0
   173   000051                     	ds	2
   174   000053                     _EUSART_FramingErrorHandler:
   175                           	callstack 0
   176   000053                     	ds	2
   177   000000                     _SSPSTATbits	set	4039
   178   000000                     _SSPCON2bits	set	4037
   179   000000                     _SSPCON1bits	set	4038
   180   000000                     _RCSTAbits	set	4011
   181   000000                     _TXSTAbits	set	4012
   182   000000                     _WPUB	set	3964
   183   000000                     _ANSEL	set	3966
   184   000000                     _LATA	set	3977
   185   000000                     _LATD	set	3980
   186   000000                     _LATE	set	3981
   187   000000                     _PIR1bits	set	3998
   188   000000                     _RCSTA	set	4011
   189   000000                     _BAUDCON	set	4024
   190   000000                     _SSPCON2	set	4037
   191   000000                     _SSPCON1	set	4038
   192   000000                     _SSPSTAT	set	4039
   193   000000                     _RCONbits	set	4048
   194   000000                     _OSCCON	set	4051
   195   000000                     _INTCON2bits	set	4081
   196   000000                     _INTCONbits	set	4082
   197   000000                     _TABLAT	set	4085
   198   000000                     _TBLPTRL	set	4086
   199   000000                     _TBLPTRH	set	4087
   200   000000                     _TBLPTRU	set	4088
   201   000000                     _SPBRGH	set	4016
   202   000000                     _PIE2bits	set	4000
   203   000000                     _PIR2bits	set	4001
   204   000000                     _EECON1bits	set	4006
   205   000000                     _TRISA	set	3986
   206   000000                     _TRISE	set	3990
   207   000000                     _OSCTUNE	set	3995
   208   000000                     _ANSELH	set	3967
   209   000000                     _PIE1bits	set	3997
   210   000000                     _SSPBUF	set	4041
   211   000000                     _SSPADD	set	4040
   212                           
   213                           ; #config settings
   214                           
   215                           	psect	cinit
   216   0014A4                     __pcinit:
   217                           	callstack 0
   218   0014A4                     start_initialization:
   219                           	callstack 0
   220   0014A4                     __initialization:
   221                           	callstack 0
   222                           
   223                           ; Clear objects allocated to BANK0 (50 bytes)
   224   0014A4  EE00  F060         	lfsr	0,__pbssBANK0
   225   0014A8  0E32               	movlw	50
   226   0014AA                     clear_0:
   227   0014AA  6AEE               	clrf	postinc0,c
   228   0014AC  06E8               	decf	wreg,f,c
   229   0014AE  E1FD               	bnz	clear_0
   230                           
   231                           ; Clear objects allocated to COMRAM (53 bytes)
   232   0014B0  EE00  F001         	lfsr	0,__pbssCOMRAM
   233   0014B4  0E35               	movlw	53
   234   0014B6                     clear_1:
   235   0014B6  6AEE               	clrf	postinc0,c
   236   0014B8  06E8               	decf	wreg,f,c
   237   0014BA  E1FD               	bnz	clear_1
   238   0014BC                     end_of_initialization:
   239                           	callstack 0
   240   0014BC                     __end_of__initialization:
   241                           	callstack 0
   242   0014BC  9055               	bcf	int$flags,0,c	;clear compiler interrupt flag (level 1)
   243   0014BE  9255               	bcf	int$flags,1,c	;clear compiler interrupt flag (level 2)
   244   0014C0  0100               	movlb	0
   245   0014C2  EF8C  F00A         	goto	_main	;jump to C main() function
   246                           
   247                           	psect	bssCOMRAM
   248   000001                     __pbssCOMRAM:
   249                           	callstack 0
   250   000001                     _I2C_Status:
   251                           	callstack 0
   252   000001                     	ds	36
   253   000025                     _reading:
   254                           	callstack 0
   255   000025                     	ds	7
   256   00002C                     rtc_get_value@F476:
   257                           	callstack 0
   258   00002C                     	ds	7
   259   000033                     _MSSP_InterruptHandler:
   260                           	callstack 0
   261   000033                     	ds	2
   262   000035                     _eusartRxLastError:
   263                           	callstack 0
   264   000035                     	ds	1
   265                           
   266                           	psect	bssBANK0
   267   000060                     __pbssBANK0:
   268                           	callstack 0
   269   000060                     _bufferWrite:
   270                           	callstack 0
   271   000060                     	ds	50
   272                           
   273                           	psect	cstackBANK0
   274   000092                     __pcstackBANK0:
   275                           	callstack 0
   276   000092                     EUSART_Write@txData:
   277                           	callstack 0
   278   000092                     EUSART_SetFramingErrorHandler@interruptHandler:
   279                           	callstack 0
   280   000092                     EUSART_SetOverrunErrorHandler@interruptHandler:
   281                           	callstack 0
   282   000092                     EUSART_SetErrorHandler@interruptHandler:
   283                           	callstack 0
   284                           
   285                           ; 2 bytes @ 0x0
   286   000092                     	ds	2
   287   000094                     
   288                           ; 1 bytes @ 0x2
   289                           
   290                           	psect	cstackCOMRAM
   291   000036                     __pcstackCOMRAM:
   292                           	callstack 0
   293   000036                     I2C_MasterSendTxData@data:
   294                           	callstack 0
   295   000036                     I2C_SetBuffer@buffer:
   296                           	callstack 0
   297   000036                     I2C_SetCallback@cb:
   298                           	callstack 0
   299                           
   300                           ; 2 bytes @ 0x0
   301   000036                     	ds	1
   302   000037                     
   303                           ; 1 bytes @ 0x1
   304   000037                     	ds	1
   305   000038                     I2C_SetBuffer@bufferSize:
   306                           	callstack 0
   307   000038                     I2C_SetCallback@ptr:
   308                           	callstack 0
   309                           
   310                           ; 2 bytes @ 0x2
   311   000038                     	ds	2
   312   00003A                     I2C_SetCallback@idx:
   313                           	callstack 0
   314                           
   315                           ; 1 bytes @ 0x4
   316   00003A                     	ds	1
   317   00003B                     I2C_SetDataCompleteCallback@cb:
   318                           	callstack 0
   319                           
   320                           ; 2 bytes @ 0x5
   321   00003B                     	ds	2
   322   00003D                     I2C_SetDataCompleteCallback@ptr:
   323                           	callstack 0
   324                           
   325                           ; 2 bytes @ 0x7
   326   00003D                     	ds	2
   327   00003F                     rd1RegCompleteHandler@ptr:
   328                           	callstack 0
   329   00003F                     rd2RegCompleteHandler@ptr:
   330                           	callstack 0
   331   00003F                     wr1RegCompleteHandler@ptr:
   332                           	callstack 0
   333   00003F                     wr2RegCompleteHandler@ptr:
   334                           	callstack 0
   335   00003F                     rdBlkRegCompleteHandler@ptr:
   336                           	callstack 0
   337   00003F                     I2C_CallbackReturnReset@funPtr:
   338                           	callstack 0
   339                           
   340                           ; 2 bytes @ 0x9
   341   00003F                     	ds	2
   342   000041                     ??_I2C_DO_TX:
   343   000041                     ??_I2C_DO_RX:
   344   000041                     ??_I2C_DO_TX_EMPTY:
   345   000041                     ??_I2C_DO_ADDRESS_NACK:
   346   000041                     
   347                           ; 1 bytes @ 0xB
   348   000041                     	ds	2
   349   000043                     ??_I2C_MasterFsm:
   350                           
   351                           ; 1 bytes @ 0xD
   352   000043                     	ds	2
   353   000045                     ??_INTERRUPT_InterruptManager:
   354                           
   355                           ; 1 bytes @ 0xF
   356   000045                     	ds	10
   357                           
   358 ;;
   359 ;;Main: autosize = 0, tempsize = 0, incstack = 0, save=0
   360 ;;
   361 ;; *************** function _main *****************
   362 ;; Defined at:
   363 ;;		line 67 in file "main.c"
   364 ;; Parameters:    Size  Location     Type
   365 ;;		None
   366 ;; Auto vars:     Size  Location     Type
   367 ;;		None
   368 ;; Return value:  Size  Location     Type
   369 ;;                  1    wreg      void 
   370 ;; Registers used:
   371 ;;		wreg, status,2, status,0, cstack
   372 ;; Tracked objects:
   373 ;;		On entry : 0/0
   374 ;;		On exit  : 0/0
   375 ;;		Unchanged: 0/0
   376 ;; Data sizes:     COMRAM   BANK0   BANK1   BANK2   BANK3   BANK4   BANK5   BANK6   BANK7   BANK8   BANK9  BANK10  BANK1
      +1  BANK12  BANK13  BANK14  BANK15
   377 ;;      Params:         0       0       0       0       0       0       0       0       0       0       0       0       
      +0       0       0       0       0
   378 ;;      Locals:         0       0       0       0       0       0       0       0       0       0       0       0       
      +0       0       0       0       0
   379 ;;      Temps:          0       0       0       0       0       0       0       0       0       0       0       0       
      +0       0       0       0       0
   380 ;;      Totals:         0       0       0       0       0       0       0       0       0       0       0       0       
      +0       0       0       0       0
   381 ;;Total ram usage:        0 bytes
   382 ;; Hardware stack levels required when called: 10
   383 ;; This function calls:
   384 ;;		_EUSART_Write
   385 ;;		_SYSTEM_Initialize
   386 ;; This function is called by:
   387 ;;		Startup code after reset
   388 ;; This function uses a non-reentrant model
   389 ;;
   390                           
   391                           	psect	text0
   392   001518                     __ptext0:
   393                           	callstack 0
   394   001518                     _main:
   395                           	callstack 21
   396   001518                     
   397                           ;main.c: 70:     SYSTEM_Initialize();
   398   001518  EC97  F00A         	call	_SYSTEM_Initialize	;wreg free
   399   00151C                     
   400                           ;main.c: 78:    (INTCONbits.GIE = 1);
   401   00151C  8EF2               	bsf	242,7,c	;volatile
   402   00151E                     
   403                           ;main.c: 84:     (INTCONbits.PEIE = 1);
   404   00151E  8CF2               	bsf	242,6,c	;volatile
   405   001520                     
   406                           ;main.c: 88: EUSART_Write('A');
   407   001520  0E41               	movlw	65
   408   001522  EC74  F00A         	call	_EUSART_Write
   409   001526                     l717:
   410   001526  EF93  F00A         	goto	l717
   411   00152A  EF62  F000         	goto	start
   412   00152E                     __end_of_main:
   413                           	callstack 0
   414                           
   415 ;; *************** function _SYSTEM_Initialize *****************
   416 ;; Defined at:
   417 ;;		line 50 in file "mcc_generated_files/mcc.c"
   418 ;; Parameters:    Size  Location     Type
   419 ;;		None
   420 ;; Auto vars:     Size  Location     Type
   421 ;;		None
   422 ;; Return value:  Size  Location     Type
   423 ;;                  1    wreg      void 
   424 ;; Registers used:
   425 ;;		wreg, status,2, status,0, cstack
   426 ;; Tracked objects:
   427 ;;		On entry : 0/0
   428 ;;		On exit  : 0/0
   429 ;;		Unchanged: 0/0
   430 ;; Data sizes:     COMRAM   BANK0   BANK1   BANK2   BANK3   BANK4   BANK5   BANK6   BANK7   BANK8   BANK9  BANK10  BANK1
      +1  BANK12  BANK13  BANK14  BANK15
   431 ;;      Params:         0       0       0       0       0       0       0       0       0       0       0       0       
      +0       0       0       0       0
   432 ;;      Locals:         0       0       0       0       0       0       0       0       0       0       0       0       
      +0       0       0       0       0
   433 ;;      Temps:          0       0       0       0       0       0       0       0       0       0       0       0       
      +0       0       0       0       0
   434 ;;      Totals:         0       0       0       0       0       0       0       0       0       0       0       0       
      +0       0       0       0       0
   435 ;;Total ram usage:        0 bytes
   436 ;; Hardware stack levels used: 1
   437 ;; Hardware stack levels required when called: 9
   438 ;; This function calls:
   439 ;;		_EUSART_Initialize
   440 ;;		_I2C_Initialize
   441 ;;		_INTERRUPT_Initialize
   442 ;;		_OSCILLATOR_Initialize
   443 ;;		_PIN_MANAGER_Initialize
   444 ;; This function is called by:
   445 ;;		_main
   446 ;; This function uses a non-reentrant model
   447 ;;
   448                           
   449                           	psect	text1
   450   00152E                     __ptext1:
   451                           	callstack 0
   452   00152E                     _SYSTEM_Initialize:
   453                           	callstack 21
   454   00152E                     
   455                           ;mcc_generated_files/mcc.c: 53:     INTERRUPT_Initialize();
   456   00152E  EC10  F00B         	call	_INTERRUPT_Initialize	;wreg free
   457   001532                     
   458                           ;mcc_generated_files/mcc.c: 54:     I2C_Initialize();
   459   001532  ECA2  F00A         	call	_I2C_Initialize	;wreg free
   460   001536                     
   461                           ;mcc_generated_files/mcc.c: 55:     PIN_MANAGER_Initialize();
   462   001536  ECE2  F009         	call	_PIN_MANAGER_Initialize	;wreg free
   463   00153A                     
   464                           ;mcc_generated_files/mcc.c: 56:     OSCILLATOR_Initialize();
   465   00153A  ECC4  F00A         	call	_OSCILLATOR_Initialize	;wreg free
   466   00153E                     
   467                           ;mcc_generated_files/mcc.c: 57:     EUSART_Initialize();
   468   00153E  ECA0  F009         	call	_EUSART_Initialize	;wreg free
   469   001542  0012               	return		;funcret
   470   001544                     __end_of_SYSTEM_Initialize:
   471                           	callstack 0
   472                           
   473 ;; *************** function _PIN_MANAGER_Initialize *****************
   474 ;; Defined at:
   475 ;;		line 55 in file "mcc_generated_files/pin_manager.c"
   476 ;; Parameters:    Size  Location     Type
   477 ;;		None
   478 ;; Auto vars:     Size  Location     Type
   479 ;;		None
   480 ;; Return value:  Size  Location     Type
   481 ;;                  1    wreg      void 
   482 ;; Registers used:
   483 ;;		wreg, status,2
   484 ;; Tracked objects:
   485 ;;		On entry : 0/0
   486 ;;		On exit  : 0/0
   487 ;;		Unchanged: 0/0
   488 ;; Data sizes:     COMRAM   BANK0   BANK1   BANK2   BANK3   BANK4   BANK5   BANK6   BANK7   BANK8   BANK9  BANK10  BANK1
      +1  BANK12  BANK13  BANK14  BANK15
   489 ;;      Params:         0       0       0       0       0       0       0       0       0       0       0       0       
      +0       0       0       0       0
   490 ;;      Locals:         0       0       0       0       0       0       0       0       0       0       0       0       
      +0       0       0       0       0
   491 ;;      Temps:          0       0       0       0       0       0       0       0       0       0       0       0       
      +0       0       0       0       0
   492 ;;      Totals:         0       0       0       0       0       0       0       0       0       0       0       0       
      +0       0       0       0       0
   493 ;;Total ram usage:        0 bytes
   494 ;; Hardware stack levels used: 1
   495 ;; Hardware stack levels required when called: 7
   496 ;; This function calls:
   497 ;;		Nothing
   498 ;; This function is called by:
   499 ;;		_SYSTEM_Initialize
   500 ;; This function uses a non-reentrant model
   501 ;;
   502                           
   503                           	psect	text2
   504   0013C4                     __ptext2:
   505                           	callstack 0
   506   0013C4                     _PIN_MANAGER_Initialize:
   507                           	callstack 22
   508   0013C4                     
   509                           ;mcc_generated_files/pin_manager.c: 60:     LATE = 0x00;
   510   0013C4  0E00               	movlw	0
   511   0013C6  6E8D               	movwf	141,c	;volatile
   512                           
   513                           ;mcc_generated_files/pin_manager.c: 61:     LATD = 0x00;
   514   0013C8  0E00               	movlw	0
   515   0013CA  6E8C               	movwf	140,c	;volatile
   516                           
   517                           ;mcc_generated_files/pin_manager.c: 62:     LATA = 0x00;
   518   0013CC  0E00               	movlw	0
   519   0013CE  6E89               	movwf	137,c	;volatile
   520                           
   521                           ;mcc_generated_files/pin_manager.c: 63:     LATB = 0x00;
   522   0013D0  0E00               	movlw	0
   523   0013D2  6E8A               	movwf	138,c	;volatile
   524                           
   525                           ;mcc_generated_files/pin_manager.c: 64:     LATC = 0x00;
   526   0013D4  0E00               	movlw	0
   527   0013D6  6E8B               	movwf	139,c	;volatile
   528                           
   529                           ;mcc_generated_files/pin_manager.c: 69:     TRISE = 0x07;
   530   0013D8  0E07               	movlw	7
   531   0013DA  6E96               	movwf	150,c	;volatile
   532   0013DC                     
   533                           ;mcc_generated_files/pin_manager.c: 70:     TRISA = 0xFF;
   534   0013DC  6892               	setf	146,c	;volatile
   535   0013DE                     
   536                           ;mcc_generated_files/pin_manager.c: 71:     TRISB = 0xFF;
   537   0013DE  6893               	setf	147,c	;volatile
   538                           
   539                           ;mcc_generated_files/pin_manager.c: 72:     TRISC = 0xBF;
   540   0013E0  0EBF               	movlw	191
   541   0013E2  6E94               	movwf	148,c	;volatile
   542   0013E4                     
   543                           ;mcc_generated_files/pin_manager.c: 73:     TRISD = 0xFF;
   544   0013E4  6895               	setf	149,c	;volatile
   545   0013E6                     
   546                           ;mcc_generated_files/pin_manager.c: 78:     ANSEL = 0xFF;
   547   0013E6  687E               	setf	126,c	;volatile
   548                           
   549                           ;mcc_generated_files/pin_manager.c: 79:     ANSELH = 0x1F;
   550   0013E8  0E1F               	movlw	31
   551   0013EA  6E7F               	movwf	127,c	;volatile
   552                           
   553                           ;mcc_generated_files/pin_manager.c: 84:     WPUB = 0x00;
   554   0013EC  0E00               	movlw	0
   555   0013EE  6E7C               	movwf	124,c	;volatile
   556   0013F0                     
   557                           ;mcc_generated_files/pin_manager.c: 85:     INTCON2bits.nRBPU = 1;
   558   0013F0  8EF1               	bsf	241,7,c	;volatile
   559   0013F2  0012               	return		;funcret
   560   0013F4                     __end_of_PIN_MANAGER_Initialize:
   561                           	callstack 0
   562                           
   563 ;; *************** function _OSCILLATOR_Initialize *****************
   564 ;; Defined at:
   565 ;;		line 60 in file "mcc_generated_files/mcc.c"
   566 ;; Parameters:    Size  Location     Type
   567 ;;		None
   568 ;; Auto vars:     Size  Location     Type
   569 ;;		None
   570 ;; Return value:  Size  Location     Type
   571 ;;                  1    wreg      void 
   572 ;; Registers used:
   573 ;;		wreg, status,2
   574 ;; Tracked objects:
   575 ;;		On entry : 0/0
   576 ;;		On exit  : 0/0
   577 ;;		Unchanged: 0/0
   578 ;; Data sizes:     COMRAM   BANK0   BANK1   BANK2   BANK3   BANK4   BANK5   BANK6   BANK7   BANK8   BANK9  BANK10  BANK1
      +1  BANK12  BANK13  BANK14  BANK15
   579 ;;      Params:         0       0       0       0       0       0       0       0       0       0       0       0       
      +0       0       0       0       0
   580 ;;      Locals:         0       0       0       0       0       0       0       0       0       0       0       0       
      +0       0       0       0       0
   581 ;;      Temps:          0       0       0       0       0       0       0       0       0       0       0       0       
      +0       0       0       0       0
   582 ;;      Totals:         0       0       0       0       0       0       0       0       0       0       0       0       
      +0       0       0       0       0
   583 ;;Total ram usage:        0 bytes
   584 ;; Hardware stack levels used: 1
   585 ;; Hardware stack levels required when called: 7
   586 ;; This function calls:
   587 ;;		Nothing
   588 ;; This function is called by:
   589 ;;		_SYSTEM_Initialize
   590 ;; This function uses a non-reentrant model
   591 ;;
   592                           
   593                           	psect	text3
   594   001588                     __ptext3:
   595                           	callstack 0
   596   001588                     _OSCILLATOR_Initialize:
   597                           	callstack 22
   598   001588                     
   599                           ;mcc_generated_files/mcc.c: 63:     OSCCON = 0x30;
   600   001588  0E30               	movlw	48
   601   00158A  6ED3               	movwf	211,c	;volatile
   602                           
   603                           ;mcc_generated_files/mcc.c: 65:     OSCTUNE = 0x00;
   604   00158C  0E00               	movlw	0
   605   00158E  6E9B               	movwf	155,c	;volatile
   606   001590  0012               	return		;funcret
   607   001592                     __end_of_OSCILLATOR_Initialize:
   608                           	callstack 0
   609                           
   610 ;; *************** function _INTERRUPT_Initialize *****************
   611 ;; Defined at:
   612 ;;		line 52 in file "mcc_generated_files/interrupt_manager.c"
   613 ;; Parameters:    Size  Location     Type
   614 ;;		None
   615 ;; Auto vars:     Size  Location     Type
   616 ;;		None
   617 ;; Return value:  Size  Location     Type
   618 ;;                  1    wreg      void 
   619 ;; Registers used:
   620 ;;		None
   621 ;; Tracked objects:
   622 ;;		On entry : 0/0
   623 ;;		On exit  : 0/0
   624 ;;		Unchanged: 0/0
   625 ;; Data sizes:     COMRAM   BANK0   BANK1   BANK2   BANK3   BANK4   BANK5   BANK6   BANK7   BANK8   BANK9  BANK10  BANK1
      +1  BANK12  BANK13  BANK14  BANK15
   626 ;;      Params:         0       0       0       0       0       0       0       0       0       0       0       0       
      +0       0       0       0       0
   627 ;;      Locals:         0       0       0       0       0       0       0       0       0       0       0       0       
      +0       0       0       0       0
   628 ;;      Temps:          0       0       0       0       0       0       0       0       0       0       0       0       
      +0       0       0       0       0
   629 ;;      Totals:         0       0       0       0       0       0       0       0       0       0       0       0       
      +0       0       0       0       0
   630 ;;Total ram usage:        0 bytes
   631 ;; Hardware stack levels used: 1
   632 ;; Hardware stack levels required when called: 7
   633 ;; This function calls:
   634 ;;		Nothing
   635 ;; This function is called by:
   636 ;;		_SYSTEM_Initialize
   637 ;; This function uses a non-reentrant model
   638 ;;
   639                           
   640                           	psect	text4
   641   001620                     __ptext4:
   642                           	callstack 0
   643   001620                     _INTERRUPT_Initialize:
   644                           	callstack 22
   645   001620                     
   646                           ;mcc_generated_files/interrupt_manager.c: 55:     RCONbits.IPEN = 0;
   647   001620  9ED0               	bcf	208,7,c	;volatile
   648   001622  0012               	return		;funcret
   649   001624                     __end_of_INTERRUPT_Initialize:
   650                           	callstack 0
   651                           
   652 ;; *************** function _I2C_Initialize *****************
   653 ;; Defined at:
   654 ;;		line 167 in file "mcc_generated_files/i2c_master.c"
   655 ;; Parameters:    Size  Location     Type
   656 ;;		None
   657 ;; Auto vars:     Size  Location     Type
   658 ;;		None
   659 ;; Return value:  Size  Location     Type
   660 ;;                  1    wreg      void 
   661 ;; Registers used:
   662 ;;		wreg, status,2
   663 ;; Tracked objects:
   664 ;;		On entry : 0/0
   665 ;;		On exit  : 0/0
   666 ;;		Unchanged: 0/0
   667 ;; Data sizes:     COMRAM   BANK0   BANK1   BANK2   BANK3   BANK4   BANK5   BANK6   BANK7   BANK8   BANK9  BANK10  BANK1
      +1  BANK12  BANK13  BANK14  BANK15
   668 ;;      Params:         0       0       0       0       0       0       0       0       0       0       0       0       
      +0       0       0       0       0
   669 ;;      Locals:         0       0       0       0       0       0       0       0       0       0       0       0       
      +0       0       0       0       0
   670 ;;      Temps:          0       0       0       0       0       0       0       0       0       0       0       0       
      +0       0       0       0       0
   671 ;;      Totals:         0       0       0       0       0       0       0       0       0       0       0       0       
      +0       0       0       0       0
   672 ;;Total ram usage:        0 bytes
   673 ;; Hardware stack levels used: 1
   674 ;; Hardware stack levels required when called: 7
   675 ;; This function calls:
   676 ;;		Nothing
   677 ;; This function is called by:
   678 ;;		_SYSTEM_Initialize
   679 ;; This function uses a non-reentrant model
   680 ;;
   681                           
   682                           	psect	text5
   683   001544                     __ptext5:
   684                           	callstack 0
   685   001544                     _I2C_Initialize:
   686                           	callstack 22
   687   001544                     
   688                           ;mcc_generated_files/i2c_master.c: 169:     SSPSTAT = 0x80;
   689   001544  0E80               	movlw	128
   690   001546  6EC7               	movwf	199,c	;volatile
   691                           
   692                           ;mcc_generated_files/i2c_master.c: 170:     SSPCON1 = 0x08;
   693   001548  0E08               	movlw	8
   694   00154A  6EC6               	movwf	198,c	;volatile
   695                           
   696                           ;mcc_generated_files/i2c_master.c: 171:     SSPCON2 = 0x00;
   697   00154C  0E00               	movlw	0
   698   00154E  6EC5               	movwf	197,c	;volatile
   699                           
   700                           ;mcc_generated_files/i2c_master.c: 172:     SSPADD = 0x27;
   701   001550  0E27               	movlw	39
   702   001552  6EC8               	movwf	200,c	;volatile
   703   001554                     
   704                           ;mcc_generated_files/i2c_master.c: 173:     SSPCON1bits.SSPEN = 0;
   705   001554  9AC6               	bcf	198,5,c	;volatile
   706   001556  0012               	return		;funcret
   707   001558                     __end_of_I2C_Initialize:
   708                           	callstack 0
   709                           
   710 ;; *************** function _EUSART_Initialize *****************
   711 ;; Defined at:
   712 ;;		line 66 in file "mcc_generated_files/eusart.c"
   713 ;; Parameters:    Size  Location     Type
   714 ;;		None
   715 ;; Auto vars:     Size  Location     Type
   716 ;;		None
   717 ;; Return value:  Size  Location     Type
   718 ;;                  1    wreg      void 
   719 ;; Registers used:
   720 ;;		wreg, status,2, status,0, cstack
   721 ;; Tracked objects:
   722 ;;		On entry : 0/0
   723 ;;		On exit  : 0/0
   724 ;;		Unchanged: 0/0
   725 ;; Data sizes:     COMRAM   BANK0   BANK1   BANK2   BANK3   BANK4   BANK5   BANK6   BANK7   BANK8   BANK9  BANK10  BANK1
      +1  BANK12  BANK13  BANK14  BANK15
   726 ;;      Params:         0       0       0       0       0       0       0       0       0       0       0       0       
      +0       0       0       0       0
   727 ;;      Locals:         0       0       0       0       0       0       0       0       0       0       0       0       
      +0       0       0       0       0
   728 ;;      Temps:          0       0       0       0       0       0       0       0       0       0       0       0       
      +0       0       0       0       0
   729 ;;      Totals:         0       0       0       0       0       0       0       0       0       0       0       0       
      +0       0       0       0       0
   730 ;;Total ram usage:        0 bytes
   731 ;; Hardware stack levels used: 1
   732 ;; Hardware stack levels required when called: 8
   733 ;; This function calls:
   734 ;;		_EUSART_SetErrorHandler
   735 ;;		_EUSART_SetFramingErrorHandler
   736 ;;		_EUSART_SetOverrunErrorHandler
   737 ;; This function is called by:
   738 ;;		_SYSTEM_Initialize
   739 ;; This function uses a non-reentrant model
   740 ;;
   741                           
   742                           	psect	text6
   743   001340                     __ptext6:
   744                           	callstack 0
   745   001340                     _EUSART_Initialize:
   746                           	callstack 21
   747   001340                     
   748                           ;mcc_generated_files/eusart.c: 71:     BAUDCON = 0x08;
   749   001340  0E08               	movlw	8
   750   001342  6EB8               	movwf	184,c	;volatile
   751                           
   752                           ;mcc_generated_files/eusart.c: 74:     RCSTA = 0x90;
   753   001344  0E90               	movlw	144
   754   001346  6EAB               	movwf	171,c	;volatile
   755                           
   756                           ;mcc_generated_files/eusart.c: 77:     TXSTA = 0x24;
   757   001348  0E24               	movlw	36
   758   00134A  6EAC               	movwf	172,c	;volatile
   759                           
   760                           ;mcc_generated_files/eusart.c: 80:     SPBRG = 0xA0;
   761   00134C  0EA0               	movlw	160
   762   00134E  6EAF               	movwf	175,c	;volatile
   763                           
   764                           ;mcc_generated_files/eusart.c: 83:     SPBRGH = 0x01;
   765   001350  0E01               	movlw	1
   766   001352  6EB0               	movwf	176,c	;volatile
   767   001354                     
   768                           ;mcc_generated_files/eusart.c: 86:     EUSART_SetFramingErrorHandler(EUSART_DefaultFrami
      +                          ngErrorHandler);
   769   001354  0E00               	movlw	0
   770   001356  0100               	movlb	0	; () banked
   771   001358  6F92               	movwf	EUSART_SetFramingErrorHandler@interruptHandler& (0+255),b
   772   00135A  0E00               	movlw	0
   773   00135C  6F93               	movwf	(EUSART_SetFramingErrorHandler@interruptHandler+1)& (0+255),b
   774   00135E  ECCE  F00A         	call	_EUSART_SetFramingErrorHandler	;wreg free
   775   001362                     
   776                           ;mcc_generated_files/eusart.c: 87:     EUSART_SetOverrunErrorHandler(EUSART_DefaultOverr
      +                          unErrorHandler);
   777   001362  0E00               	movlw	0
   778   001364  0100               	movlb	0	; () banked
   779   001366  6F92               	movwf	EUSART_SetOverrunErrorHandler@interruptHandler& (0+255),b
   780   001368  0E00               	movlw	0
   781   00136A  6F93               	movwf	(EUSART_SetOverrunErrorHandler@interruptHandler+1)& (0+255),b
   782   00136C  ECC9  F00A         	call	_EUSART_SetOverrunErrorHandler	;wreg free
   783   001370                     
   784                           ;mcc_generated_files/eusart.c: 88:     EUSART_SetErrorHandler(EUSART_DefaultErrorHandler
      +                          );
   785   001370  0E00               	movlw	0
   786   001372  0100               	movlb	0	; () banked
   787   001374  6F92               	movwf	EUSART_SetErrorHandler@interruptHandler& (0+255),b
   788   001376  0E00               	movlw	0
   789   001378  6F93               	movwf	(EUSART_SetErrorHandler@interruptHandler+1)& (0+255),b
   790   00137A  ECD3  F00A         	call	_EUSART_SetErrorHandler	;wreg free
   791   00137E                     
   792                           ;mcc_generated_files/eusart.c: 90:     eusartRxLastError.status = 0;
   793   00137E  0E00               	movlw	0
   794   001380  6E35               	movwf	_eusartRxLastError^0,c	;volatile
   795   001382  0012               	return		;funcret
   796   001384                     __end_of_EUSART_Initialize:
   797                           	callstack 0
   798                           
   799 ;; *************** function _EUSART_SetOverrunErrorHandler *****************
   800 ;; Defined at:
   801 ;;		line 161 in file "mcc_generated_files/eusart.c"
   802 ;; Parameters:    Size  Location     Type
   803 ;;  interruptHan    2    0[BANK0 ] PTR FTN()void 
   804 ;;		 -> EUSART_DefaultOverrunErrorHandler(1), 
   805 ;; Auto vars:     Size  Location     Type
   806 ;;		None
   807 ;; Return value:  Size  Location     Type
   808 ;;                  1    wreg      void 
   809 ;; Registers used:
   810 ;;		wreg, status,2, status,0
   811 ;; Tracked objects:
   812 ;;		On entry : 0/0
   813 ;;		On exit  : 0/0
   814 ;;		Unchanged: 0/0
   815 ;; Data sizes:     COMRAM   BANK0   BANK1   BANK2   BANK3   BANK4   BANK5   BANK6   BANK7   BANK8   BANK9  BANK10  BANK1
      +1  BANK12  BANK13  BANK14  BANK15
   816 ;;      Params:         0       2       0       0       0       0       0       0       0       0       0       0       
      +0       0       0       0       0
   817 ;;      Locals:         0       0       0       0       0       0       0       0       0       0       0       0       
      +0       0       0       0       0
   818 ;;      Temps:          0       0       0       0       0       0       0       0       0       0       0       0       
      +0       0       0       0       0
   819 ;;      Totals:         0       2       0       0       0       0       0       0       0       0       0       0       
      +0       0       0       0       0
   820 ;;Total ram usage:        2 bytes
   821 ;; Hardware stack levels used: 1
   822 ;; Hardware stack levels required when called: 7
   823 ;; This function calls:
   824 ;;		Nothing
   825 ;; This function is called by:
   826 ;;		_EUSART_Initialize
   827 ;; This function uses a non-reentrant model
   828 ;;
   829                           
   830                           	psect	text7
   831   001592                     __ptext7:
   832                           	callstack 0
   833   001592                     _EUSART_SetOverrunErrorHandler:
   834                           	callstack 21
   835   001592                     
   836                           ;mcc_generated_files/eusart.c: 162:     EUSART_OverrunErrorHandler = interruptHandler;
   837   001592  C092  F051         	movff	EUSART_SetOverrunErrorHandler@interruptHandler,_EUSART_OverrunErrorHandler
   838   001596  C093  F052         	movff	EUSART_SetOverrunErrorHandler@interruptHandler+1,_EUSART_OverrunErrorHandler+1
   839   00159A  0012               	return		;funcret
   840   00159C                     __end_of_EUSART_SetOverrunErrorHandler:
   841                           	callstack 0
   842                           
   843 ;; *************** function _EUSART_SetFramingErrorHandler *****************
   844 ;; Defined at:
   845 ;;		line 157 in file "mcc_generated_files/eusart.c"
   846 ;; Parameters:    Size  Location     Type
   847 ;;  interruptHan    2    0[BANK0 ] PTR FTN()void 
   848 ;;		 -> EUSART_DefaultFramingErrorHandler(1), 
   849 ;; Auto vars:     Size  Location     Type
   850 ;;		None
   851 ;; Return value:  Size  Location     Type
   852 ;;                  1    wreg      void 
   853 ;; Registers used:
   854 ;;		wreg, status,2, status,0
   855 ;; Tracked objects:
   856 ;;		On entry : 0/0
   857 ;;		On exit  : 0/0
   858 ;;		Unchanged: 0/0
   859 ;; Data sizes:     COMRAM   BANK0   BANK1   BANK2   BANK3   BANK4   BANK5   BANK6   BANK7   BANK8   BANK9  BANK10  BANK1
      +1  BANK12  BANK13  BANK14  BANK15
   860 ;;      Params:         0       2       0       0       0       0       0       0       0       0       0       0       
      +0       0       0       0       0
   861 ;;      Locals:         0       0       0       0       0       0       0       0       0       0       0       0       
      +0       0       0       0       0
   862 ;;      Temps:          0       0       0       0       0       0       0       0       0       0       0       0       
      +0       0       0       0       0
   863 ;;      Totals:         0       2       0       0       0       0       0       0       0       0       0       0       
      +0       0       0       0       0
   864 ;;Total ram usage:        2 bytes
   865 ;; Hardware stack levels used: 1
   866 ;; Hardware stack levels required when called: 7
   867 ;; This function calls:
   868 ;;		Nothing
   869 ;; This function is called by:
   870 ;;		_EUSART_Initialize
   871 ;; This function uses a non-reentrant model
   872 ;;
   873                           
   874                           	psect	text8
   875   00159C                     __ptext8:
   876                           	callstack 0
   877   00159C                     _EUSART_SetFramingErrorHandler:
   878                           	callstack 21
   879   00159C                     
   880                           ;mcc_generated_files/eusart.c: 158:     EUSART_FramingErrorHandler = interruptHandler;
   881   00159C  C092  F053         	movff	EUSART_SetFramingErrorHandler@interruptHandler,_EUSART_FramingErrorHandler
   882   0015A0  C093  F054         	movff	EUSART_SetFramingErrorHandler@interruptHandler+1,_EUSART_FramingErrorHandler+1
   883   0015A4  0012               	return		;funcret
   884   0015A6                     __end_of_EUSART_SetFramingErrorHandler:
   885                           	callstack 0
   886                           
   887 ;; *************** function _EUSART_SetErrorHandler *****************
   888 ;; Defined at:
   889 ;;		line 165 in file "mcc_generated_files/eusart.c"
   890 ;; Parameters:    Size  Location     Type
   891 ;;  interruptHan    2    0[BANK0 ] PTR FTN()void 
   892 ;;		 -> EUSART_DefaultErrorHandler(1), 
   893 ;; Auto vars:     Size  Location     Type
   894 ;;		None
   895 ;; Return value:  Size  Location     Type
   896 ;;                  1    wreg      void 
   897 ;; Registers used:
   898 ;;		wreg, status,2, status,0
   899 ;; Tracked objects:
   900 ;;		On entry : 0/0
   901 ;;		On exit  : 0/0
   902 ;;		Unchanged: 0/0
   903 ;; Data sizes:     COMRAM   BANK0   BANK1   BANK2   BANK3   BANK4   BANK5   BANK6   BANK7   BANK8   BANK9  BANK10  BANK1
      +1  BANK12  BANK13  BANK14  BANK15
   904 ;;      Params:         0       2       0       0       0       0       0       0       0       0       0       0       
      +0       0       0       0       0
   905 ;;      Locals:         0       0       0       0       0       0       0       0       0       0       0       0       
      +0       0       0       0       0
   906 ;;      Temps:          0       0       0       0       0       0       0       0       0       0       0       0       
      +0       0       0       0       0
   907 ;;      Totals:         0       2       0       0       0       0       0       0       0       0       0       0       
      +0       0       0       0       0
   908 ;;Total ram usage:        2 bytes
   909 ;; Hardware stack levels used: 1
   910 ;; Hardware stack levels required when called: 7
   911 ;; This function calls:
   912 ;;		Nothing
   913 ;; This function is called by:
   914 ;;		_EUSART_Initialize
   915 ;; This function uses a non-reentrant model
   916 ;;
   917                           
   918                           	psect	text9
   919   0015A6                     __ptext9:
   920                           	callstack 0
   921   0015A6                     _EUSART_SetErrorHandler:
   922                           	callstack 21
   923   0015A6                     
   924                           ;mcc_generated_files/eusart.c: 166:     EUSART_ErrorHandler = interruptHandler;
   925   0015A6  C092  F04F         	movff	EUSART_SetErrorHandler@interruptHandler,_EUSART_ErrorHandler
   926   0015AA  C093  F050         	movff	EUSART_SetErrorHandler@interruptHandler+1,_EUSART_ErrorHandler+1
   927   0015AE  0012               	return		;funcret
   928   0015B0                     __end_of_EUSART_SetErrorHandler:
   929                           	callstack 0
   930                           
   931 ;; *************** function _EUSART_Write *****************
   932 ;; Defined at:
   933 ;;		line 132 in file "mcc_generated_files/eusart.c"
   934 ;; Parameters:    Size  Location     Type
   935 ;;  txData          1    wreg     unsigned char 
   936 ;; Auto vars:     Size  Location     Type
   937 ;;  txData          1    0[BANK0 ] unsigned char 
   938 ;; Return value:  Size  Location     Type
   939 ;;                  1    wreg      void 
   940 ;; Registers used:
   941 ;;		wreg
   942 ;; Tracked objects:
   943 ;;		On entry : 0/0
   944 ;;		On exit  : 0/0
   945 ;;		Unchanged: 0/0
   946 ;; Data sizes:     COMRAM   BANK0   BANK1   BANK2   BANK3   BANK4   BANK5   BANK6   BANK7   BANK8   BANK9  BANK10  BANK1
      +1  BANK12  BANK13  BANK14  BANK15
   947 ;;      Params:         0       0       0       0       0       0       0       0       0       0       0       0       
      +0       0       0       0       0
   948 ;;      Locals:         0       1       0       0       0       0       0       0       0       0       0       0       
      +0       0       0       0       0
   949 ;;      Temps:          0       0       0       0       0       0       0       0       0       0       0       0       
      +0       0       0       0       0
   950 ;;      Totals:         0       1       0       0       0       0       0       0       0       0       0       0       
      +0       0       0       0       0
   951 ;;Total ram usage:        1 bytes
   952 ;; Hardware stack levels used: 1
   953 ;; Hardware stack levels required when called: 7
   954 ;; This function calls:
   955 ;;		Nothing
   956 ;; This function is called by:
   957 ;;		_main
   958 ;;		_EUSART_Write_string
   959 ;; This function uses a non-reentrant model
   960 ;;
   961                           
   962                           	psect	text10
   963   0014E8                     __ptext10:
   964                           	callstack 0
   965   0014E8                     _EUSART_Write:
   966                           	callstack 23
   967                           
   968                           ;incstack = 0
   969                           ;EUSART_Write@txData stored from wreg
   970   0014E8  0100               	movlb	0	; () banked
   971   0014EA  6F92               	movwf	EUSART_Write@txData& (0+255),b
   972   0014EC                     l171:
   973                           
   974                           ;mcc_generated_files/eusart.c: 134:     while(0 == PIR1bits.TX1IF)
   975   0014EC  A89E               	btfss	158,4,c	;volatile
   976   0014EE  EF7B  F00A         	goto	u971
   977   0014F2  EF7D  F00A         	goto	u970
   978   0014F6                     u971:
   979   0014F6  EF76  F00A         	goto	l171
   980   0014FA                     u970:
   981   0014FA                     
   982                           ;mcc_generated_files/eusart.c: 138:     TXREG = txData;
   983   0014FA  C092  FFAD         	movff	EUSART_Write@txData,4013	;volatile
   984   0014FE  0012               	return		;funcret
   985   001500                     __end_of_EUSART_Write:
   986                           	callstack 0
   987                           
   988 ;; *************** function _INTERRUPT_InterruptManager *****************
   989 ;; Defined at:
   990 ;;		line 58 in file "mcc_generated_files/interrupt_manager.c"
   991 ;; Parameters:    Size  Location     Type
   992 ;;		None
   993 ;; Auto vars:     Size  Location     Type
   994 ;;		None
   995 ;; Return value:  Size  Location     Type
   996 ;;                  1    wreg      void 
   997 ;; Registers used:
   998 ;;		wreg, fsr2l, fsr2h, status,2, status,0, pcl, pclath, pclatu, tosl, tblptrl, tblptrh, tblptru, prodl, prodh, cstack
   999 ;; Tracked objects:
  1000 ;;		On entry : 0/0
  1001 ;;		On exit  : 0/0
  1002 ;;		Unchanged: 0/0
  1003 ;; Data sizes:     COMRAM   BANK0   BANK1   BANK2   BANK3   BANK4   BANK5   BANK6   BANK7   BANK8   BANK9  BANK10  BANK1
      +1  BANK12  BANK13  BANK14  BANK15
  1004 ;;      Params:         0       0       0       0       0       0       0       0       0       0       0       0       
      +0       0       0       0       0
  1005 ;;      Locals:         0       0       0       0       0       0       0       0       0       0       0       0       
      +0       0       0       0       0
  1006 ;;      Temps:         10       0       0       0       0       0       0       0       0       0       0       0       
      +0       0       0       0       0
  1007 ;;      Totals:        10       0       0       0       0       0       0       0       0       0       0       0       
      +0       0       0       0       0
  1008 ;;Total ram usage:       10 bytes
  1009 ;; Hardware stack levels used: 1
  1010 ;; Hardware stack levels required when called: 6
  1011 ;; This function calls:
  1012 ;;		NULL
  1013 ;;		_I2C_MasterIsr
  1014 ;; This function is called by:
  1015 ;;		Interrupt level 2
  1016 ;; This function uses a non-reentrant model
  1017 ;;
  1018                           
  1019                           	psect	intcode
  1020   000008                     __pintcode:
  1021                           	callstack 0
  1022   000008                     _INTERRUPT_InterruptManager:
  1023                           	callstack 21
  1024                           
  1025                           ;incstack = 0
  1026   000008  8255               	bsf	int$flags,1,c	;set compiler interrupt flag (level 2)
  1027   00000A  CFFA F045          	movff	pclath,??_INTERRUPT_InterruptManager
  1028   00000E  CFFB F046          	movff	pclatu,??_INTERRUPT_InterruptManager+1
  1029   000012  CFD9 F047          	movff	fsr2l,??_INTERRUPT_InterruptManager+2
  1030   000016  CFDA F048          	movff	fsr2h,??_INTERRUPT_InterruptManager+3
  1031   00001A  CFF3 F049          	movff	prodl,??_INTERRUPT_InterruptManager+4
  1032   00001E  CFF4 F04A          	movff	prodh,??_INTERRUPT_InterruptManager+5
  1033   000022  CFF6 F04B          	movff	tblptrl,??_INTERRUPT_InterruptManager+6
  1034   000026  CFF7 F04C          	movff	tblptrh,??_INTERRUPT_InterruptManager+7
  1035   00002A  CFF8 F04D          	movff	tblptru,??_INTERRUPT_InterruptManager+8
  1036   00002E  CFF5 F04E          	movff	tablat,??_INTERRUPT_InterruptManager+9
  1037   000032                     
  1038                           ;mcc_generated_files/interrupt_manager.c: 61:     if(INTCONbits.PEIE == 1)
  1039   000032  ACF2               	btfss	242,6,c	;volatile
  1040   000034  EF1E  F000         	goto	i2u88_41
  1041   000038  EF20  F000         	goto	i2u88_40
  1042   00003C                     i2u88_41:
  1043   00003C  EF4C  F000         	goto	i2l343
  1044   000040                     i2u88_40:
  1045   000040                     
  1046                           ;mcc_generated_files/interrupt_manager.c: 62:     {;mcc_generated_files/interrupt_manage
      +                          r.c: 63:         if(PIE2bits.BCLIE == 1 && PIR2bits.BCLIF == 1)
  1047   000040  A6A0               	btfss	160,3,c	;volatile
  1048   000042  EF25  F000         	goto	i2u89_41
  1049   000046  EF27  F000         	goto	i2u89_40
  1050   00004A                     i2u89_41:
  1051   00004A  EF3C  F000         	goto	i2l338
  1052   00004E                     i2u89_40:
  1053   00004E  A6A1               	btfss	161,3,c	;volatile
  1054   000050  EF2C  F000         	goto	i2u90_41
  1055   000054  EF2E  F000         	goto	i2u90_40
  1056   000058                     i2u90_41:
  1057   000058  EF3C  F000         	goto	i2l338
  1058   00005C                     i2u90_40:
  1059   00005C                     i2l2618:
  1060                           
  1061                           ;mcc_generated_files/interrupt_manager.c: 64:         {;mcc_generated_files/interrupt_ma
      +                          nager.c: 65:             MSSP_InterruptHandler();
  1062   00005C  D802               	call	i2u91_48
  1063   00005E  EF3A  F000         	goto	i2u91_49
  1064   000062                     i2u91_48:
  1065   000062  0005               	push	
  1066   000064  6EFA               	movwf	pclath,c
  1067   000066  5033               	movf	_MSSP_InterruptHandler^0,w,c
  1068   000068  6EFD               	movwf	tosl,c
  1069   00006A  5034               	movf	(_MSSP_InterruptHandler+1)^0,w,c
  1070   00006C  6EFE               	movwf	tosh,c
  1071   00006E  6AFF               	clrf	tosu,c
  1072   000070  50FA               	movf	pclath,w,c
  1073   000072  0012               	return		;indir
  1074   000074                     i2u91_49:
  1075                           
  1076                           ;mcc_generated_files/interrupt_manager.c: 66:         }
  1077   000074  EF4C  F000         	goto	i2l343
  1078   000078                     i2l338:
  1079   000078  A69D               	btfss	157,3,c	;volatile
  1080   00007A  EF41  F000         	goto	i2u92_41
  1081   00007E  EF43  F000         	goto	i2u92_40
  1082   000082                     i2u92_41:
  1083   000082  EF4C  F000         	goto	i2l339
  1084   000086                     i2u92_40:
  1085   000086  A69E               	btfss	158,3,c	;volatile
  1086   000088  EF48  F000         	goto	i2u93_41
  1087   00008C  EF4A  F000         	goto	i2u93_40
  1088   000090                     i2u93_41:
  1089   000090  EF4C  F000         	goto	i2l339
  1090   000094                     i2u93_40:
  1091   000094  EF2E  F000         	goto	i2l2618
  1092   000098                     i2l339:
  1093   000098                     i2l343:
  1094   000098  C04E  FFF5         	movff	??_INTERRUPT_InterruptManager+9,tablat
  1095   00009C  C04D  FFF8         	movff	??_INTERRUPT_InterruptManager+8,tblptru
  1096   0000A0  C04C  FFF7         	movff	??_INTERRUPT_InterruptManager+7,tblptrh
  1097   0000A4  C04B  FFF6         	movff	??_INTERRUPT_InterruptManager+6,tblptrl
  1098   0000A8  C04A  FFF4         	movff	??_INTERRUPT_InterruptManager+5,prodh
  1099   0000AC  C049  FFF3         	movff	??_INTERRUPT_InterruptManager+4,prodl
  1100   0000B0  C048  FFDA         	movff	??_INTERRUPT_InterruptManager+3,fsr2h
  1101   0000B4  C047  FFD9         	movff	??_INTERRUPT_InterruptManager+2,fsr2l
  1102   0000B8  C046  FFFB         	movff	??_INTERRUPT_InterruptManager+1,pclatu
  1103   0000BC  C045  FFFA         	movff	??_INTERRUPT_InterruptManager,pclath
  1104   0000C0  9255               	bcf	int$flags,1,c	;clear compiler interrupt flag (level 2)
  1105   0000C2  0011               	retfie		f
  1106   0000C4                     __end_of_INTERRUPT_InterruptManager:
  1107                           	callstack 0
  1108                           
  1109 ;; *************** function _I2C_MasterIsr *****************
  1110 ;; Defined at:
  1111 ;;		line 318 in file "mcc_generated_files/i2c_master.c"
  1112 ;; Parameters:    Size  Location     Type
  1113 ;;		None
  1114 ;; Auto vars:     Size  Location     Type
  1115 ;;		None
  1116 ;; Return value:  Size  Location     Type
  1117 ;;                  1    wreg      void 
  1118 ;; Registers used:
  1119 ;;		wreg, fsr2l, fsr2h, status,2, status,0, pcl, pclath, pclatu, tosl, tblptrl, tblptrh, tblptru, prodl, prodh, cstack
  1120 ;; Tracked objects:
  1121 ;;		On entry : 0/0
  1122 ;;		On exit  : 0/0
  1123 ;;		Unchanged: 0/0
  1124 ;; Data sizes:     COMRAM   BANK0   BANK1   BANK2   BANK3   BANK4   BANK5   BANK6   BANK7   BANK8   BANK9  BANK10  BANK1
      +1  BANK12  BANK13  BANK14  BANK15
  1125 ;;      Params:         0       0       0       0       0       0       0       0       0       0       0       0       
      +0       0       0       0       0
  1126 ;;      Locals:         0       0       0       0       0       0       0       0       0       0       0       0       
      +0       0       0       0       0
  1127 ;;      Temps:          0       0       0       0       0       0       0       0       0       0       0       0       
      +0       0       0       0       0
  1128 ;;      Totals:         0       0       0       0       0       0       0       0       0       0       0       0       
      +0       0       0       0       0
  1129 ;;Total ram usage:        0 bytes
  1130 ;; Hardware stack levels used: 1
  1131 ;; Hardware stack levels required when called: 5
  1132 ;; This function calls:
  1133 ;;		_I2C_MasterFsm
  1134 ;; This function is called by:
  1135 ;;		_I2C_Open
  1136 ;;		_INTERRUPT_InterruptManager
  1137 ;; This function uses a non-reentrant model
  1138 ;;
  1139                           
  1140                           	psect	text12
  1141   00160E                     __ptext12:
  1142                           	callstack 0
  1143   00160E                     _I2C_MasterIsr:
  1144                           	callstack 21
  1145   00160E                     
  1146                           ;mcc_generated_files/i2c_master.c: 320:     I2C_MasterFsm();
  1147   00160E  EC3A  F009         	call	_I2C_MasterFsm	;wreg free
  1148   001612  0012               	return		;funcret
  1149   001614                     __end_of_I2C_MasterIsr:
  1150                           	callstack 0
  1151                           
  1152 ;; *************** function _I2C_MasterFsm *****************
  1153 ;; Defined at:
  1154 ;;		line 323 in file "mcc_generated_files/i2c_master.c"
  1155 ;; Parameters:    Size  Location     Type
  1156 ;;		None
  1157 ;; Auto vars:     Size  Location     Type
  1158 ;;		None
  1159 ;; Return value:  Size  Location     Type
  1160 ;;                  1    wreg      void 
  1161 ;; Registers used:
  1162 ;;		wreg, fsr2l, fsr2h, status,2, status,0, pcl, pclath, pclatu, tosl, tblptrl, tblptrh, tblptru, prodl, prodh, cstack
  1163 ;; Tracked objects:
  1164 ;;		On entry : 0/0
  1165 ;;		On exit  : 0/0
  1166 ;;		Unchanged: 0/0
  1167 ;; Data sizes:     COMRAM   BANK0   BANK1   BANK2   BANK3   BANK4   BANK5   BANK6   BANK7   BANK8   BANK9  BANK10  BANK1
      +1  BANK12  BANK13  BANK14  BANK15
  1168 ;;      Params:         0       0       0       0       0       0       0       0       0       0       0       0       
      +0       0       0       0       0
  1169 ;;      Locals:         0       0       0       0       0       0       0       0       0       0       0       0       
      +0       0       0       0       0
  1170 ;;      Temps:          2       0       0       0       0       0       0       0       0       0       0       0       
      +0       0       0       0       0
  1171 ;;      Totals:         2       0       0       0       0       0       0       0       0       0       0       0       
      +0       0       0       0       0
  1172 ;;Total ram usage:        2 bytes
  1173 ;; Hardware stack levels used: 1
  1174 ;; Hardware stack levels required when called: 4
  1175 ;; This function calls:
  1176 ;;		_I2C_DO_ADDRESS_NACK
  1177 ;;		_I2C_DO_IDLE
  1178 ;;		_I2C_DO_RCEN
  1179 ;;		_I2C_DO_RESET
  1180 ;;		_I2C_DO_RX
  1181 ;;		_I2C_DO_RX_ACK
  1182 ;;		_I2C_DO_RX_NACK_RESTART
  1183 ;;		_I2C_DO_RX_NACK_STOP
  1184 ;;		_I2C_DO_SEND_ADR_READ
  1185 ;;		_I2C_DO_SEND_ADR_WRITE
  1186 ;;		_I2C_DO_SEND_RESTART
  1187 ;;		_I2C_DO_SEND_RESTART_READ
  1188 ;;		_I2C_DO_SEND_RESTART_WRITE
  1189 ;;		_I2C_DO_SEND_STOP
  1190 ;;		_I2C_DO_TX
  1191 ;;		_I2C_DO_TX_EMPTY
  1192 ;;		_I2C_MasterClearIrq
  1193 ;;		_I2C_MasterIsNack
  1194 ;; This function is called by:
  1195 ;;		_I2C_MasterIsr
  1196 ;; This function uses a non-reentrant model
  1197 ;;
  1198                           
  1199                           	psect	text13
  1200   001274                     __ptext13:
  1201                           	callstack 0
  1202   001274                     _I2C_MasterFsm:
  1203                           	callstack 21
  1204   001274                     
  1205                           ;mcc_generated_files/i2c_master.c: 325:     I2C_MasterClearIrq();
  1206   001274  EC12  F00B         	call	_I2C_MasterClearIrq	;wreg free
  1207   001278                     
  1208                           ;mcc_generated_files/i2c_master.c: 327:     if(I2C_Status.addressNackCheck && I2C_Master
      +                          IsNack())
  1209   001278  A024               	btfss	(_I2C_Status+35)^0,0,c
  1210   00127A  EF41  F009         	goto	i2u71_41
  1211   00127E  EF43  F009         	goto	i2u71_40
  1212   001282                     i2u71_41:
  1213   001282  EF4F  F009         	goto	i2l2502
  1214   001286                     i2u71_40:
  1215   001286  ECAC  F00A         	call	_I2C_MasterIsNack	;wreg free
  1216   00128A  0900               	iorlw	0
  1217   00128C  B4D8               	btfsc	status,2,c
  1218   00128E  EF4B  F009         	goto	i2u72_41
  1219   001292  EF4D  F009         	goto	i2u72_40
  1220   001296                     i2u72_41:
  1221   001296  EF4F  F009         	goto	i2l2502
  1222   00129A                     i2u72_40:
  1223   00129A                     
  1224                           ;mcc_generated_files/i2c_master.c: 328:     {;mcc_generated_files/i2c_master.c: 329:    
      +                               I2C_Status.state = I2C_ADDRESS_NACK;
  1225   00129A  0E0F               	movlw	15
  1226   00129C  6E22               	movwf	(_I2C_Status+33)^0,c
  1227   00129E                     i2l2502:
  1228                           
  1229                           ;mcc_generated_files/i2c_master.c: 331:     I2C_Status.state = i2c_fsmStateTable[I2C_Sta
      +                          tus.state]();
  1230   00129E  5022               	movf	(_I2C_Status+33)^0,w,c
  1231   0012A0  0D02               	mullw	2
  1232   0012A2  0E01               	movlw	low _i2c_fsmStateTable
  1233   0012A4  24F3               	addwf	243,w,c
  1234   0012A6  6EF6               	movwf	tblptrl,c
  1235   0012A8  0E10               	movlw	high _i2c_fsmStateTable
  1236   0012AA  20F4               	addwfc	244,w,c
  1237   0012AC  6EF7               	movwf	tblptrh,c
  1238   0012AE                     	if	1	;There are 3 active tblptr bytes
  1239   0012AE  6AF8               	clrf	tblptru,c
  1240   0012B0  0E00               	movlw	low (__mediumconst shr (0+16))
  1241   0012B2  22F8               	addwfc	tblptru,f,c
  1242   0012B4                     	endif
  1243   0012B4  0009               	tblrd		*+
  1244   0012B6  CFF5 F043          	movff	tablat,??_I2C_MasterFsm
  1245   0012BA  0009               	tblrd		*+
  1246   0012BC  CFF5 F044          	movff	tablat,??_I2C_MasterFsm+1
  1247   0012C0  D802               	call	i2u73_48
  1248   0012C2  EF6C  F009         	goto	i2u73_49
  1249   0012C6                     i2u73_48:
  1250   0012C6  0005               	push	
  1251   0012C8  6EFA               	movwf	pclath,c
  1252   0012CA  5043               	movf	??_I2C_MasterFsm^0,w,c
  1253   0012CC  6EFD               	movwf	tosl,c
  1254   0012CE  5044               	movf	(??_I2C_MasterFsm+1)^0,w,c
  1255   0012D0  6EFE               	movwf	tosh,c
  1256   0012D2  6AFF               	clrf	tosu,c
  1257   0012D4  50FA               	movf	pclath,w,c
  1258   0012D6  0012               	return		;indir
  1259   0012D8                     i2u73_49:
  1260   0012D8  6E22               	movwf	(_I2C_Status+33)^0,c
  1261   0012DA  0012               	return		;funcret
  1262   0012DC                     __end_of_I2C_MasterFsm:
  1263                           	callstack 0
  1264                           
  1265 ;; *************** function _I2C_MasterClearIrq *****************
  1266 ;; Defined at:
  1267 ;;		line 642 in file "mcc_generated_files/i2c_master.c"
  1268 ;; Parameters:    Size  Location     Type
  1269 ;;		None
  1270 ;; Auto vars:     Size  Location     Type
  1271 ;;		None
  1272 ;; Return value:  Size  Location     Type
  1273 ;;                  1    wreg      void 
  1274 ;; Registers used:
  1275 ;;		None
  1276 ;; Tracked objects:
  1277 ;;		On entry : 0/0
  1278 ;;		On exit  : 0/0
  1279 ;;		Unchanged: 0/0
  1280 ;; Data sizes:     COMRAM   BANK0   BANK1   BANK2   BANK3   BANK4   BANK5   BANK6   BANK7   BANK8   BANK9  BANK10  BANK1
      +1  BANK12  BANK13  BANK14  BANK15
  1281 ;;      Params:         0       0       0       0       0       0       0       0       0       0       0       0       
      +0       0       0       0       0
  1282 ;;      Locals:         0       0       0       0       0       0       0       0       0       0       0       0       
      +0       0       0       0       0
  1283 ;;      Temps:          0       0       0       0       0       0       0       0       0       0       0       0       
      +0       0       0       0       0
  1284 ;;      Totals:         0       0       0       0       0       0       0       0       0       0       0       0       
      +0       0       0       0       0
  1285 ;;Total ram usage:        0 bytes
  1286 ;; Hardware stack levels used: 1
  1287 ;; This function calls:
  1288 ;;		Nothing
  1289 ;; This function is called by:
  1290 ;;		_I2C_MasterFsm
  1291 ;;		_I2C_Open
  1292 ;;		_I2C_Close
  1293 ;; This function uses a non-reentrant model
  1294 ;;
  1295                           
  1296                           	psect	text14
  1297   001624                     __ptext14:
  1298                           	callstack 0
  1299   001624                     _I2C_MasterClearIrq:
  1300                           	callstack 24
  1301   001624                     
  1302                           ;mcc_generated_files/i2c_master.c: 644:     PIR1bits.SSPIF = 0;
  1303   001624  969E               	bcf	158,3,c	;volatile
  1304   001626  0012               	return		;funcret
  1305   001628                     __end_of_I2C_MasterClearIrq:
  1306                           	callstack 0
  1307                           
  1308 ;; *************** function _I2C_DO_ADDRESS_NACK *****************
  1309 ;; Defined at:
  1310 ;;		line 501 in file "mcc_generated_files/i2c_master.c"
  1311 ;; Parameters:    Size  Location     Type
  1312 ;;		None
  1313 ;; Auto vars:     Size  Location     Type
  1314 ;;		None
  1315 ;; Return value:  Size  Location     Type
  1316 ;;                  1    wreg      enum E3121
  1317 ;; Registers used:
  1318 ;;		wreg, fsr2l, fsr2h, status,2, status,0, pcl, pclath, pclatu, tosl, prodl, prodh, cstack
  1319 ;; Tracked objects:
  1320 ;;		On entry : 0/0
  1321 ;;		On exit  : 0/0
  1322 ;;		Unchanged: 0/0
  1323 ;; Data sizes:     COMRAM   BANK0   BANK1   BANK2   BANK3   BANK4   BANK5   BANK6   BANK7   BANK8   BANK9  BANK10  BANK1
      +1  BANK12  BANK13  BANK14  BANK15
  1324 ;;      Params:         0       0       0       0       0       0       0       0       0       0       0       0       
      +0       0       0       0       0
  1325 ;;      Locals:         0       0       0       0       0       0       0       0       0       0       0       0       
      +0       0       0       0       0
  1326 ;;      Temps:          2       0       0       0       0       0       0       0       0       0       0       0       
      +0       0       0       0       0
  1327 ;;      Totals:         2       0       0       0       0       0       0       0       0       0       0       0       
      +0       0       0       0       0
  1328 ;;Total ram usage:        2 bytes
  1329 ;; Hardware stack levels used: 1
  1330 ;; Hardware stack levels required when called: 3
  1331 ;; This function calls:
  1332 ;;		NULL
  1333 ;;		_I2C_CallbackReturnReset
  1334 ;;		_I2C_CallbackReturnStop
  1335 ;;		_I2C_DO_SEND_RESTART
  1336 ;;		_I2C_DO_SEND_STOP
  1337 ;;		_rd1RegCompleteHandler
  1338 ;;		_rd2RegCompleteHandler
  1339 ;;		_rdBlkRegCompleteHandler
  1340 ;;		_wr1RegCompleteHandler
  1341 ;;		_wr2RegCompleteHandler
  1342 ;; This function is called by:
  1343 ;;		_I2C_MasterFsm
  1344 ;; This function uses a non-reentrant model
  1345 ;;
  1346                           
  1347                           	psect	text15
  1348   0012DC                     __ptext15:
  1349                           	callstack 0
  1350   0012DC                     _I2C_DO_ADDRESS_NACK:
  1351                           	callstack 21
  1352   0012DC                     
  1353                           ;mcc_generated_files/i2c_master.c: 503:     I2C_Status.addressNackCheck = 0;
  1354   0012DC  9024               	bcf	(_I2C_Status+35)^0,0,c
  1355   0012DE                     
  1356                           ;mcc_generated_files/i2c_master.c: 504:     I2C_Status.error = I2C_FAIL;
  1357   0012DE  0E02               	movlw	2
  1358   0012E0  6E23               	movwf	(_I2C_Status+34)^0,c
  1359                           
  1360                           ;mcc_generated_files/i2c_master.c: 505:     switch(I2C_Status.callbackTable[I2C_ADDR_NAC
      +                          K](I2C_Status.callbackPayload[I2C_ADDR_NACK]))
  1361   0012E2  EF7B  F009         	goto	i2l2424
  1362   0012E6                     i2l2414:
  1363                           
  1364                           ;mcc_generated_files/i2c_master.c: 509:             return I2C_DO_SEND_RESTART();
  1365   0012E6  ECF7  F00A         	call	_I2C_DO_SEND_RESTART	;wreg free
  1366   0012EA  EF9F  F009         	goto	i2l600
  1367   0012EE                     i2l2418:
  1368                           
  1369                           ;mcc_generated_files/i2c_master.c: 511:             return I2C_DO_SEND_STOP();
  1370   0012EE  ECF3  F00A         	call	_I2C_DO_SEND_STOP	;wreg free
  1371   0012F2  EF9F  F009         	goto	i2l600
  1372   0012F6                     i2l2424:
  1373   0012F6  C011  F03F         	movff	_I2C_Status+16,I2C_CallbackReturnReset@funPtr
  1374   0012FA  C012  F040         	movff	_I2C_Status+17,I2C_CallbackReturnReset@funPtr+1
  1375   0012FE  D802               	call	i2u69_48
  1376   001300  EF8B  F009         	goto	i2u69_49
  1377   001304                     i2u69_48:
  1378   001304  0005               	push	
  1379   001306  6EFA               	movwf	pclath,c
  1380   001308  5005               	movf	(_I2C_Status+4)^0,w,c
  1381   00130A  6EFD               	movwf	tosl,c
  1382   00130C  5006               	movf	(_I2C_Status+5)^0,w,c
  1383   00130E  6EFE               	movwf	tosh,c
  1384   001310  6AFF               	clrf	tosu,c
  1385   001312  50FA               	movf	pclath,w,c
  1386   001314  0012               	return		;indir
  1387   001316                     i2u69_49:
  1388   001316  6E41               	movwf	??_I2C_DO_ADDRESS_NACK^0,c
  1389   001318  6A42               	clrf	(??_I2C_DO_ADDRESS_NACK+1)^0,c
  1390                           
  1391                           ; Switch on 2 bytes has been partitioned into a top level switch of size 1, and 1 sub-sw
      +                          itches
  1392                           ; Switch size 1, requested type "simple"
  1393                           ; Number of cases is 1, Range of values is 0 to 0
  1394                           ; switch strategies available:
  1395                           ; Name         Instructions Cycles
  1396                           ; simple_byte            4     3 (average)
  1397                           ;	Chosen strategy is simple_byte
  1398   00131A  5042               	movf	(??_I2C_DO_ADDRESS_NACK+1)^0,w,c
  1399   00131C  0A00               	xorlw	0	; case 0
  1400   00131E  B4D8               	btfsc	status,2,c
  1401   001320  EF94  F009         	goto	i2l2792
  1402   001324  EF77  F009         	goto	i2l2418
  1403   001328                     i2l2792:
  1404                           
  1405                           ; Switch size 1, requested type "simple"
  1406                           ; Number of cases is 2, Range of values is 2 to 3
  1407                           ; switch strategies available:
  1408                           ; Name         Instructions Cycles
  1409                           ; simple_byte            7     4 (average)
  1410                           ;	Chosen strategy is simple_byte
  1411   001328  5041               	movf	??_I2C_DO_ADDRESS_NACK^0,w,c
  1412   00132A  0A02               	xorlw	2	; case 2
  1413   00132C  B4D8               	btfsc	status,2,c
  1414   00132E  EF73  F009         	goto	i2l2414
  1415   001332  0A01               	xorlw	1	; case 3
  1416   001334  B4D8               	btfsc	status,2,c
  1417   001336  EF73  F009         	goto	i2l2414
  1418   00133A  EF77  F009         	goto	i2l2418
  1419   00133E                     i2l600:
  1420   00133E  0012               	return		;funcret
  1421   001340                     __end_of_I2C_DO_ADDRESS_NACK:
  1422                           	callstack 0
  1423                           
  1424 ;; *************** function _I2C_DO_RESET *****************
  1425 ;; Defined at:
  1426 ;;		line 495 in file "mcc_generated_files/i2c_master.c"
  1427 ;; Parameters:    Size  Location     Type
  1428 ;;		None
  1429 ;; Auto vars:     Size  Location     Type
  1430 ;;		None
  1431 ;; Return value:  Size  Location     Type
  1432 ;;                  1    wreg      enum E3121
  1433 ;; Registers used:
  1434 ;;		wreg, status,2
  1435 ;; Tracked objects:
  1436 ;;		On entry : 0/0
  1437 ;;		On exit  : 0/0
  1438 ;;		Unchanged: 0/0
  1439 ;; Data sizes:     COMRAM   BANK0   BANK1   BANK2   BANK3   BANK4   BANK5   BANK6   BANK7   BANK8   BANK9  BANK10  BANK1
      +1  BANK12  BANK13  BANK14  BANK15
  1440 ;;      Params:         0       0       0       0       0       0       0       0       0       0       0       0       
      +0       0       0       0       0
  1441 ;;      Locals:         0       0       0       0       0       0       0       0       0       0       0       0       
      +0       0       0       0       0
  1442 ;;      Temps:          0       0       0       0       0       0       0       0       0       0       0       0       
      +0       0       0       0       0
  1443 ;;      Totals:         0       0       0       0       0       0       0       0       0       0       0       0       
      +0       0       0       0       0
  1444 ;;Total ram usage:        0 bytes
  1445 ;; Hardware stack levels used: 1
  1446 ;; This function calls:
  1447 ;;		Nothing
  1448 ;; This function is called by:
  1449 ;;		_I2C_MasterFsm
  1450 ;; This function uses a non-reentrant model
  1451 ;;
  1452                           
  1453                           	psect	text16
  1454   0015B0                     __ptext16:
  1455                           	callstack 0
  1456   0015B0                     _I2C_DO_RESET:
  1457                           	callstack 24
  1458   0015B0                     
  1459                           ;mcc_generated_files/i2c_master.c: 497:     I2C_Status.busy = 0;
  1460   0015B0  9224               	bcf	(_I2C_Status+35)^0,1,c
  1461   0015B2                     
  1462                           ;mcc_generated_files/i2c_master.c: 498:     I2C_Status.error = I2C_NOERR;
  1463   0015B2  0E00               	movlw	0
  1464   0015B4  6E23               	movwf	(_I2C_Status+34)^0,c
  1465   0015B6                     
  1466                           ;mcc_generated_files/i2c_master.c: 499:     return I2C_RESET;
  1467   0015B6  0E0E               	movlw	14
  1468   0015B8  0012               	return		;funcret
  1469   0015BA                     __end_of_I2C_DO_RESET:
  1470                           	callstack 0
  1471                           
  1472 ;; *************** function _I2C_DO_RX_NACK_RESTART *****************
  1473 ;; Defined at:
  1474 ;;		line 489 in file "mcc_generated_files/i2c_master.c"
  1475 ;; Parameters:    Size  Location     Type
  1476 ;;		None
  1477 ;; Auto vars:     Size  Location     Type
  1478 ;;		None
  1479 ;; Return value:  Size  Location     Type
  1480 ;;                  1    wreg      enum E3121
  1481 ;; Registers used:
  1482 ;;		wreg, cstack
  1483 ;; Tracked objects:
  1484 ;;		On entry : 0/0
  1485 ;;		On exit  : 0/0
  1486 ;;		Unchanged: 0/0
  1487 ;; Data sizes:     COMRAM   BANK0   BANK1   BANK2   BANK3   BANK4   BANK5   BANK6   BANK7   BANK8   BANK9  BANK10  BANK1
      +1  BANK12  BANK13  BANK14  BANK15
  1488 ;;      Params:         0       0       0       0       0       0       0       0       0       0       0       0       
      +0       0       0       0       0
  1489 ;;      Locals:         0       0       0       0       0       0       0       0       0       0       0       0       
      +0       0       0       0       0
  1490 ;;      Temps:          0       0       0       0       0       0       0       0       0       0       0       0       
      +0       0       0       0       0
  1491 ;;      Totals:         0       0       0       0       0       0       0       0       0       0       0       0       
      +0       0       0       0       0
  1492 ;;Total ram usage:        0 bytes
  1493 ;; Hardware stack levels used: 1
  1494 ;; Hardware stack levels required when called: 1
  1495 ;; This function calls:
  1496 ;;		_I2C_MasterSendNack
  1497 ;; This function is called by:
  1498 ;;		_I2C_DO_RX
  1499 ;;		_I2C_MasterFsm
  1500 ;; This function uses a non-reentrant model
  1501 ;;
  1502                           
  1503                           	psect	text17
  1504   0015CE                     __ptext17:
  1505                           	callstack 0
  1506   0015CE                     _I2C_DO_RX_NACK_RESTART:
  1507                           	callstack 23
  1508   0015CE                     
  1509                           ;mcc_generated_files/i2c_master.c: 491:     I2C_MasterSendNack();
  1510   0015CE  EC0D  F00B         	call	_I2C_MasterSendNack	;wreg free
  1511   0015D2                     
  1512                           ;mcc_generated_files/i2c_master.c: 492:     return I2C_SEND_RESTART;
  1513   0015D2  0E09               	movlw	9
  1514   0015D4  0012               	return		;funcret
  1515   0015D6                     __end_of_I2C_DO_RX_NACK_RESTART:
  1516                           	callstack 0
  1517                           
  1518 ;; *************** function _I2C_DO_RX_NACK_STOP *****************
  1519 ;; Defined at:
  1520 ;;		line 483 in file "mcc_generated_files/i2c_master.c"
  1521 ;; Parameters:    Size  Location     Type
  1522 ;;		None
  1523 ;; Auto vars:     Size  Location     Type
  1524 ;;		None
  1525 ;; Return value:  Size  Location     Type
  1526 ;;                  1    wreg      enum E3121
  1527 ;; Registers used:
  1528 ;;		wreg, cstack
  1529 ;; Tracked objects:
  1530 ;;		On entry : 0/0
  1531 ;;		On exit  : 0/0
  1532 ;;		Unchanged: 0/0
  1533 ;; Data sizes:     COMRAM   BANK0   BANK1   BANK2   BANK3   BANK4   BANK5   BANK6   BANK7   BANK8   BANK9  BANK10  BANK1
      +1  BANK12  BANK13  BANK14  BANK15
  1534 ;;      Params:         0       0       0       0       0       0       0       0       0       0       0       0       
      +0       0       0       0       0
  1535 ;;      Locals:         0       0       0       0       0       0       0       0       0       0       0       0       
      +0       0       0       0       0
  1536 ;;      Temps:          0       0       0       0       0       0       0       0       0       0       0       0       
      +0       0       0       0       0
  1537 ;;      Totals:         0       0       0       0       0       0       0       0       0       0       0       0       
      +0       0       0       0       0
  1538 ;;Total ram usage:        0 bytes
  1539 ;; Hardware stack levels used: 1
  1540 ;; Hardware stack levels required when called: 1
  1541 ;; This function calls:
  1542 ;;		_I2C_MasterSendNack
  1543 ;; This function is called by:
  1544 ;;		_I2C_DO_RX
  1545 ;;		_I2C_MasterFsm
  1546 ;; This function uses a non-reentrant model
  1547 ;;
  1548                           
  1549                           	psect	text18
  1550   0015D6                     __ptext18:
  1551                           	callstack 0
  1552   0015D6                     _I2C_DO_RX_NACK_STOP:
  1553                           	callstack 23
  1554   0015D6                     
  1555                           ;mcc_generated_files/i2c_master.c: 485:     I2C_MasterSendNack();
  1556   0015D6  EC0D  F00B         	call	_I2C_MasterSendNack	;wreg free
  1557   0015DA                     
  1558                           ;mcc_generated_files/i2c_master.c: 486:     return I2C_SEND_STOP;
  1559   0015DA  0E0A               	movlw	10
  1560   0015DC  0012               	return		;funcret
  1561   0015DE                     __end_of_I2C_DO_RX_NACK_STOP:
  1562                           	callstack 0
  1563                           
  1564 ;; *************** function _I2C_DO_RX_ACK *****************
  1565 ;; Defined at:
  1566 ;;		line 476 in file "mcc_generated_files/i2c_master.c"
  1567 ;; Parameters:    Size  Location     Type
  1568 ;;		None
  1569 ;; Auto vars:     Size  Location     Type
  1570 ;;		None
  1571 ;; Return value:  Size  Location     Type
  1572 ;;                  1    wreg      enum E3121
  1573 ;; Registers used:
  1574 ;;		wreg, cstack
  1575 ;; Tracked objects:
  1576 ;;		On entry : 0/0
  1577 ;;		On exit  : 0/0
  1578 ;;		Unchanged: 0/0
  1579 ;; Data sizes:     COMRAM   BANK0   BANK1   BANK2   BANK3   BANK4   BANK5   BANK6   BANK7   BANK8   BANK9  BANK10  BANK1
      +1  BANK12  BANK13  BANK14  BANK15
  1580 ;;      Params:         0       0       0       0       0       0       0       0       0       0       0       0       
      +0       0       0       0       0
  1581 ;;      Locals:         0       0       0       0       0       0       0       0       0       0       0       0       
      +0       0       0       0       0
  1582 ;;      Temps:          0       0       0       0       0       0       0       0       0       0       0       0       
      +0       0       0       0       0
  1583 ;;      Totals:         0       0       0       0       0       0       0       0       0       0       0       0       
      +0       0       0       0       0
  1584 ;;Total ram usage:        0 bytes
  1585 ;; Hardware stack levels used: 1
  1586 ;; Hardware stack levels required when called: 1
  1587 ;; This function calls:
  1588 ;;		_I2C_MasterSendAck
  1589 ;; This function is called by:
  1590 ;;		_I2C_MasterFsm
  1591 ;; This function uses a non-reentrant model
  1592 ;;
  1593                           
  1594                           	psect	text19
  1595   0015DE                     __ptext19:
  1596                           	callstack 0
  1597   0015DE                     _I2C_DO_RX_ACK:
  1598                           	callstack 23
  1599   0015DE                     
  1600                           ;mcc_generated_files/i2c_master.c: 478:     I2C_MasterSendAck();
  1601   0015DE  EC0A  F00B         	call	_I2C_MasterSendAck	;wreg free
  1602   0015E2                     
  1603                           ;mcc_generated_files/i2c_master.c: 479:     return I2C_RCEN;
  1604   0015E2  0E05               	movlw	5
  1605   0015E4  0012               	return		;funcret
  1606   0015E6                     __end_of_I2C_DO_RX_ACK:
  1607                           	callstack 0
  1608                           
  1609 ;; *************** function _I2C_DO_SEND_STOP *****************
  1610 ;; Defined at:
  1611 ;;		line 470 in file "mcc_generated_files/i2c_master.c"
  1612 ;; Parameters:    Size  Location     Type
  1613 ;;		None
  1614 ;; Auto vars:     Size  Location     Type
  1615 ;;		None
  1616 ;; Return value:  Size  Location     Type
  1617 ;;                  1    wreg      enum E3121
  1618 ;; Registers used:
  1619 ;;		wreg, cstack
  1620 ;; Tracked objects:
  1621 ;;		On entry : 0/0
  1622 ;;		On exit  : 0/0
  1623 ;;		Unchanged: 0/0
  1624 ;; Data sizes:     COMRAM   BANK0   BANK1   BANK2   BANK3   BANK4   BANK5   BANK6   BANK7   BANK8   BANK9  BANK10  BANK1
      +1  BANK12  BANK13  BANK14  BANK15
  1625 ;;      Params:         0       0       0       0       0       0       0       0       0       0       0       0       
      +0       0       0       0       0
  1626 ;;      Locals:         0       0       0       0       0       0       0       0       0       0       0       0       
      +0       0       0       0       0
  1627 ;;      Temps:          0       0       0       0       0       0       0       0       0       0       0       0       
      +0       0       0       0       0
  1628 ;;      Totals:         0       0       0       0       0       0       0       0       0       0       0       0       
      +0       0       0       0       0
  1629 ;;Total ram usage:        0 bytes
  1630 ;; Hardware stack levels used: 1
  1631 ;; Hardware stack levels required when called: 1
  1632 ;; This function calls:
  1633 ;;		_I2C_MasterStop
  1634 ;; This function is called by:
  1635 ;;		_I2C_DO_TX
  1636 ;;		_I2C_DO_TX_EMPTY
  1637 ;;		_I2C_DO_ADDRESS_NACK
  1638 ;;		_I2C_MasterFsm
  1639 ;; This function uses a non-reentrant model
  1640 ;;
  1641                           
  1642                           	psect	text20
  1643   0015E6                     __ptext20:
  1644                           	callstack 0
  1645   0015E6                     _I2C_DO_SEND_STOP:
  1646                           	callstack 22
  1647   0015E6                     
  1648                           ;mcc_generated_files/i2c_master.c: 472:     I2C_MasterStop();
  1649   0015E6  EC1E  F00B         	call	_I2C_MasterStop	;wreg free
  1650   0015EA                     
  1651                           ;mcc_generated_files/i2c_master.c: 473:     return I2C_IDLE;
  1652   0015EA  0E00               	movlw	0
  1653   0015EC  0012               	return		;funcret
  1654   0015EE                     __end_of_I2C_DO_SEND_STOP:
  1655                           	callstack 0
  1656                           
  1657 ;; *************** function _I2C_DO_SEND_RESTART *****************
  1658 ;; Defined at:
  1659 ;;		line 464 in file "mcc_generated_files/i2c_master.c"
  1660 ;; Parameters:    Size  Location     Type
  1661 ;;		None
  1662 ;; Auto vars:     Size  Location     Type
  1663 ;;		None
  1664 ;; Return value:  Size  Location     Type
  1665 ;;                  1    wreg      enum E3121
  1666 ;; Registers used:
  1667 ;;		wreg, cstack
  1668 ;; Tracked objects:
  1669 ;;		On entry : 0/0
  1670 ;;		On exit  : 0/0
  1671 ;;		Unchanged: 0/0
  1672 ;; Data sizes:     COMRAM   BANK0   BANK1   BANK2   BANK3   BANK4   BANK5   BANK6   BANK7   BANK8   BANK9  BANK10  BANK1
      +1  BANK12  BANK13  BANK14  BANK15
  1673 ;;      Params:         0       0       0       0       0       0       0       0       0       0       0       0       
      +0       0       0       0       0
  1674 ;;      Locals:         0       0       0       0       0       0       0       0       0       0       0       0       
      +0       0       0       0       0
  1675 ;;      Temps:          0       0       0       0       0       0       0       0       0       0       0       0       
      +0       0       0       0       0
  1676 ;;      Totals:         0       0       0       0       0       0       0       0       0       0       0       0       
      +0       0       0       0       0
  1677 ;;Total ram usage:        0 bytes
  1678 ;; Hardware stack levels used: 1
  1679 ;; Hardware stack levels required when called: 1
  1680 ;; This function calls:
  1681 ;;		_I2C_MasterEnableRestart
  1682 ;; This function is called by:
  1683 ;;		_I2C_DO_TX_EMPTY
  1684 ;;		_I2C_DO_ADDRESS_NACK
  1685 ;;		_I2C_MasterFsm
  1686 ;; This function uses a non-reentrant model
  1687 ;;
  1688                           
  1689                           	psect	text21
  1690   0015EE                     __ptext21:
  1691                           	callstack 0
  1692   0015EE                     _I2C_DO_SEND_RESTART:
  1693                           	callstack 22
  1694   0015EE                     
  1695                           ;mcc_generated_files/i2c_master.c: 466:     I2C_MasterEnableRestart();
  1696   0015EE  EC20  F00B         	call	_I2C_MasterEnableRestart	;wreg free
  1697   0015F2                     
  1698                           ;mcc_generated_files/i2c_master.c: 467:     return I2C_SEND_ADR_READ;
  1699   0015F2  0E01               	movlw	1
  1700   0015F4  0012               	return		;funcret
  1701   0015F6                     __end_of_I2C_DO_SEND_RESTART:
  1702                           	callstack 0
  1703                           
  1704 ;; *************** function _I2C_DO_SEND_RESTART_WRITE *****************
  1705 ;; Defined at:
  1706 ;;		line 457 in file "mcc_generated_files/i2c_master.c"
  1707 ;; Parameters:    Size  Location     Type
  1708 ;;		None
  1709 ;; Auto vars:     Size  Location     Type
  1710 ;;		None
  1711 ;; Return value:  Size  Location     Type
  1712 ;;                  1    wreg      enum E3121
  1713 ;; Registers used:
  1714 ;;		wreg, cstack
  1715 ;; Tracked objects:
  1716 ;;		On entry : 0/0
  1717 ;;		On exit  : 0/0
  1718 ;;		Unchanged: 0/0
  1719 ;; Data sizes:     COMRAM   BANK0   BANK1   BANK2   BANK3   BANK4   BANK5   BANK6   BANK7   BANK8   BANK9  BANK10  BANK1
      +1  BANK12  BANK13  BANK14  BANK15
  1720 ;;      Params:         0       0       0       0       0       0       0       0       0       0       0       0       
      +0       0       0       0       0
  1721 ;;      Locals:         0       0       0       0       0       0       0       0       0       0       0       0       
      +0       0       0       0       0
  1722 ;;      Temps:          0       0       0       0       0       0       0       0       0       0       0       0       
      +0       0       0       0       0
  1723 ;;      Totals:         0       0       0       0       0       0       0       0       0       0       0       0       
      +0       0       0       0       0
  1724 ;;Total ram usage:        0 bytes
  1725 ;; Hardware stack levels used: 1
  1726 ;; Hardware stack levels required when called: 1
  1727 ;; This function calls:
  1728 ;;		_I2C_MasterEnableRestart
  1729 ;; This function is called by:
  1730 ;;		_I2C_DO_TX
  1731 ;;		_I2C_MasterFsm
  1732 ;; This function uses a non-reentrant model
  1733 ;;
  1734                           
  1735                           	psect	text22
  1736   0015F6                     __ptext22:
  1737                           	callstack 0
  1738   0015F6                     _I2C_DO_SEND_RESTART_WRITE:
  1739                           	callstack 22
  1740   0015F6                     
  1741                           ;mcc_generated_files/i2c_master.c: 459:     I2C_MasterEnableRestart();
  1742   0015F6  EC20  F00B         	call	_I2C_MasterEnableRestart	;wreg free
  1743   0015FA                     
  1744                           ;mcc_generated_files/i2c_master.c: 460:     return I2C_SEND_ADR_WRITE;
  1745   0015FA  0E02               	movlw	2
  1746   0015FC  0012               	return		;funcret
  1747   0015FE                     __end_of_I2C_DO_SEND_RESTART_WRITE:
  1748                           	callstack 0
  1749                           
  1750 ;; *************** function _I2C_DO_SEND_RESTART_READ *****************
  1751 ;; Defined at:
  1752 ;;		line 451 in file "mcc_generated_files/i2c_master.c"
  1753 ;; Parameters:    Size  Location     Type
  1754 ;;		None
  1755 ;; Auto vars:     Size  Location     Type
  1756 ;;		None
  1757 ;; Return value:  Size  Location     Type
  1758 ;;                  1    wreg      enum E3121
  1759 ;; Registers used:
  1760 ;;		wreg, cstack
  1761 ;; Tracked objects:
  1762 ;;		On entry : 0/0
  1763 ;;		On exit  : 0/0
  1764 ;;		Unchanged: 0/0
  1765 ;; Data sizes:     COMRAM   BANK0   BANK1   BANK2   BANK3   BANK4   BANK5   BANK6   BANK7   BANK8   BANK9  BANK10  BANK1
      +1  BANK12  BANK13  BANK14  BANK15
  1766 ;;      Params:         0       0       0       0       0       0       0       0       0       0       0       0       
      +0       0       0       0       0
  1767 ;;      Locals:         0       0       0       0       0       0       0       0       0       0       0       0       
      +0       0       0       0       0
  1768 ;;      Temps:          0       0       0       0       0       0       0       0       0       0       0       0       
      +0       0       0       0       0
  1769 ;;      Totals:         0       0       0       0       0       0       0       0       0       0       0       0       
      +0       0       0       0       0
  1770 ;;Total ram usage:        0 bytes
  1771 ;; Hardware stack levels used: 1
  1772 ;; Hardware stack levels required when called: 1
  1773 ;; This function calls:
  1774 ;;		_I2C_MasterEnableRestart
  1775 ;; This function is called by:
  1776 ;;		_I2C_DO_TX
  1777 ;;		_I2C_MasterFsm
  1778 ;; This function uses a non-reentrant model
  1779 ;;
  1780                           
  1781                           	psect	text23
  1782   0015FE                     __ptext23:
  1783                           	callstack 0
  1784   0015FE                     _I2C_DO_SEND_RESTART_READ:
  1785                           	callstack 22
  1786   0015FE                     
  1787                           ;mcc_generated_files/i2c_master.c: 453:     I2C_MasterEnableRestart();
  1788   0015FE  EC20  F00B         	call	_I2C_MasterEnableRestart	;wreg free
  1789   001602                     
  1790                           ;mcc_generated_files/i2c_master.c: 454:     return I2C_SEND_ADR_READ;
  1791   001602  0E01               	movlw	1
  1792   001604  0012               	return		;funcret
  1793   001606                     __end_of_I2C_DO_SEND_RESTART_READ:
  1794                           	callstack 0
  1795                           
  1796 ;; *************** function _I2C_DO_RCEN *****************
  1797 ;; Defined at:
  1798 ;;		line 404 in file "mcc_generated_files/i2c_master.c"
  1799 ;; Parameters:    Size  Location     Type
  1800 ;;		None
  1801 ;; Auto vars:     Size  Location     Type
  1802 ;;		None
  1803 ;; Return value:  Size  Location     Type
  1804 ;;                  1    wreg      enum E3121
  1805 ;; Registers used:
  1806 ;;		wreg, cstack
  1807 ;; Tracked objects:
  1808 ;;		On entry : 0/0
  1809 ;;		On exit  : 0/0
  1810 ;;		Unchanged: 0/0
  1811 ;; Data sizes:     COMRAM   BANK0   BANK1   BANK2   BANK3   BANK4   BANK5   BANK6   BANK7   BANK8   BANK9  BANK10  BANK1
      +1  BANK12  BANK13  BANK14  BANK15
  1812 ;;      Params:         0       0       0       0       0       0       0       0       0       0       0       0       
      +0       0       0       0       0
  1813 ;;      Locals:         0       0       0       0       0       0       0       0       0       0       0       0       
      +0       0       0       0       0
  1814 ;;      Temps:          0       0       0       0       0       0       0       0       0       0       0       0       
      +0       0       0       0       0
  1815 ;;      Totals:         0       0       0       0       0       0       0       0       0       0       0       0       
      +0       0       0       0       0
  1816 ;;Total ram usage:        0 bytes
  1817 ;; Hardware stack levels used: 1
  1818 ;; Hardware stack levels required when called: 1
  1819 ;; This function calls:
  1820 ;;		_I2C_MasterStartRx
  1821 ;; This function is called by:
  1822 ;;		_I2C_MasterFsm
  1823 ;; This function uses a non-reentrant model
  1824 ;;
  1825                           
  1826                           	psect	text24
  1827   0015BA                     __ptext24:
  1828                           	callstack 0
  1829   0015BA                     _I2C_DO_RCEN:
  1830                           	callstack 23
  1831   0015BA                     
  1832                           ;mcc_generated_files/i2c_master.c: 406:     I2C_Status.addressNackCheck = 0;
  1833   0015BA  9024               	bcf	(_I2C_Status+35)^0,0,c
  1834   0015BC                     
  1835                           ;mcc_generated_files/i2c_master.c: 407:     I2C_MasterStartRx();
  1836   0015BC  EC18  F00B         	call	_I2C_MasterStartRx	;wreg free
  1837   0015C0                     
  1838                           ;mcc_generated_files/i2c_master.c: 408:     return I2C_RX;
  1839   0015C0  0E04               	movlw	4
  1840   0015C2  0012               	return		;funcret
  1841   0015C4                     __end_of_I2C_DO_RCEN:
  1842                           	callstack 0
  1843                           
  1844 ;; *************** function _I2C_DO_RX *****************
  1845 ;; Defined at:
  1846 ;;		line 380 in file "mcc_generated_files/i2c_master.c"
  1847 ;; Parameters:    Size  Location     Type
  1848 ;;		None
  1849 ;; Auto vars:     Size  Location     Type
  1850 ;;		None
  1851 ;; Return value:  Size  Location     Type
  1852 ;;                  1    wreg      enum E3121
  1853 ;; Registers used:
  1854 ;;		wreg, fsr2l, fsr2h, status,2, status,0, pcl, pclath, pclatu, tosl, prodl, prodh, cstack
  1855 ;; Tracked objects:
  1856 ;;		On entry : 0/0
  1857 ;;		On exit  : 0/0
  1858 ;;		Unchanged: 0/0
  1859 ;; Data sizes:     COMRAM   BANK0   BANK1   BANK2   BANK3   BANK4   BANK5   BANK6   BANK7   BANK8   BANK9  BANK10  BANK1
      +1  BANK12  BANK13  BANK14  BANK15
  1860 ;;      Params:         0       0       0       0       0       0       0       0       0       0       0       0       
      +0       0       0       0       0
  1861 ;;      Locals:         0       0       0       0       0       0       0       0       0       0       0       0       
      +0       0       0       0       0
  1862 ;;      Temps:          2       0       0       0       0       0       0       0       0       0       0       0       
      +0       0       0       0       0
  1863 ;;      Totals:         2       0       0       0       0       0       0       0       0       0       0       0       
      +0       0       0       0       0
  1864 ;;Total ram usage:        2 bytes
  1865 ;; Hardware stack levels used: 1
  1866 ;; Hardware stack levels required when called: 3
  1867 ;; This function calls:
  1868 ;;		NULL
  1869 ;;		_I2C_CallbackReturnReset
  1870 ;;		_I2C_CallbackReturnStop
  1871 ;;		_I2C_DO_RX_NACK_RESTART
  1872 ;;		_I2C_DO_RX_NACK_STOP
  1873 ;;		_I2C_MasterGetRxData
  1874 ;;		_I2C_MasterSendAck
  1875 ;;		_rd1RegCompleteHandler
  1876 ;;		_rd2RegCompleteHandler
  1877 ;;		_rdBlkRegCompleteHandler
  1878 ;;		_wr1RegCompleteHandler
  1879 ;;		_wr2RegCompleteHandler
  1880 ;; This function is called by:
  1881 ;;		_I2C_MasterFsm
  1882 ;; This function uses a non-reentrant model
  1883 ;;
  1884                           
  1885                           	psect	text25
  1886   0010E0                     __ptext25:
  1887                           	callstack 0
  1888   0010E0                     _I2C_DO_RX:
  1889                           	callstack 21
  1890   0010E0                     
  1891                           ;mcc_generated_files/i2c_master.c: 382:     *I2C_Status.data_ptr++ = I2C_MasterGetRxData
      +                          ();
  1892   0010E0  EC16  F00B         	call	_I2C_MasterGetRxData	;wreg free
  1893   0010E4  C01E  FFD9         	movff	_I2C_Status+29,fsr2l
  1894   0010E8  C01F  FFDA         	movff	_I2C_Status+30,fsr2h
  1895   0010EC  6EDF               	movwf	indf2,c
  1896   0010EE  4A1E               	infsnz	(_I2C_Status+29)^0,f,c
  1897   0010F0  2A1F               	incf	(_I2C_Status+30)^0,f,c
  1898   0010F2                     
  1899                           ;mcc_generated_files/i2c_master.c: 383:     if(--I2C_Status.data_length)
  1900   0010F2  0620               	decf	(_I2C_Status+31)^0,f,c
  1901   0010F4  A0D8               	btfss	status,0,c
  1902   0010F6  0621               	decf	(_I2C_Status+32)^0,f,c
  1903   0010F8  5020               	movf	(_I2C_Status+31)^0,w,c
  1904   0010FA  1021               	iorwf	(_I2C_Status+32)^0,w,c
  1905   0010FC  B4D8               	btfsc	status,2,c
  1906   0010FE  EF83  F008         	goto	i2u66_41
  1907   001102  EF85  F008         	goto	i2u66_40
  1908   001106                     i2u66_41:
  1909   001106  EF8A  F008         	goto	i2l537
  1910   00110A                     i2u66_40:
  1911   00110A                     
  1912                           ;mcc_generated_files/i2c_master.c: 384:     {;mcc_generated_files/i2c_master.c: 385:    
      +                               I2C_MasterSendAck();
  1913   00110A  EC0A  F00B         	call	_I2C_MasterSendAck	;wreg free
  1914   00110E                     
  1915                           ;mcc_generated_files/i2c_master.c: 386:         return I2C_RCEN;
  1916   00110E  0E05               	movlw	5
  1917   001110  EFC1  F008         	goto	i2l538
  1918   001114                     i2l537:
  1919                           
  1920                           ;mcc_generated_files/i2c_master.c: 389:     {;mcc_generated_files/i2c_master.c: 390:    
      +                               I2C_Status.bufferFree = 1;
  1921   001114  8624               	bsf	(_I2C_Status+35)^0,3,c
  1922                           
  1923                           ;mcc_generated_files/i2c_master.c: 391:         switch(I2C_Status.callbackTable[I2C_DATA
      +                          _COMPLETE](I2C_Status.callbackPayload[I2C_DATA_COMPLETE]))
  1924   001116  EF95  F008         	goto	i2l2380
  1925   00111A                     i2l2370:
  1926                           
  1927                           ;mcc_generated_files/i2c_master.c: 395:                 return I2C_DO_RX_NACK_RESTART();
  1928   00111A  ECE7  F00A         	call	_I2C_DO_RX_NACK_RESTART	;wreg free
  1929   00111E  EFC1  F008         	goto	i2l538
  1930   001122                     i2l2374:
  1931                           
  1932                           ;mcc_generated_files/i2c_master.c: 399:                 return I2C_DO_RX_NACK_STOP();
  1933   001122  ECEB  F00A         	call	_I2C_DO_RX_NACK_STOP	;wreg free
  1934   001126  EFC1  F008         	goto	i2l538
  1935   00112A                     i2l2380:
  1936   00112A  C00D  F03F         	movff	_I2C_Status+12,I2C_CallbackReturnReset@funPtr
  1937   00112E  C00E  F040         	movff	_I2C_Status+13,I2C_CallbackReturnReset@funPtr+1
  1938   001132  D802               	call	i2u67_48
  1939   001134  EFA5  F008         	goto	i2u67_49
  1940   001138                     i2u67_48:
  1941   001138  0005               	push	
  1942   00113A  6EFA               	movwf	pclath,c
  1943   00113C  5001               	movf	_I2C_Status^0,w,c
  1944   00113E  6EFD               	movwf	tosl,c
  1945   001140  5002               	movf	(_I2C_Status+1)^0,w,c
  1946   001142  6EFE               	movwf	tosh,c
  1947   001144  6AFF               	clrf	tosu,c
  1948   001146  50FA               	movf	pclath,w,c
  1949   001148  0012               	return		;indir
  1950   00114A                     i2u67_49:
  1951   00114A  6E41               	movwf	??_I2C_DO_RX^0,c
  1952   00114C  6A42               	clrf	(??_I2C_DO_RX+1)^0,c
  1953                           
  1954                           ; Switch on 2 bytes has been partitioned into a top level switch of size 1, and 1 sub-sw
      +                          itches
  1955                           ; Switch size 1, requested type "simple"
  1956                           ; Number of cases is 1, Range of values is 0 to 0
  1957                           ; switch strategies available:
  1958                           ; Name         Instructions Cycles
  1959                           ; simple_byte            4     3 (average)
  1960                           ;	Chosen strategy is simple_byte
  1961   00114E  5042               	movf	(??_I2C_DO_RX+1)^0,w,c
  1962   001150  0A00               	xorlw	0	; case 0
  1963   001152  B4D8               	btfsc	status,2,c
  1964   001154  EFAE  F008         	goto	i2l2794
  1965   001158  EF91  F008         	goto	i2l2374
  1966   00115C                     i2l2794:
  1967                           
  1968                           ; Switch size 1, requested type "simple"
  1969                           ; Number of cases is 4, Range of values is 1 to 4
  1970                           ; switch strategies available:
  1971                           ; Name         Instructions Cycles
  1972                           ; simple_byte           13     7 (average)
  1973                           ;	Chosen strategy is simple_byte
  1974   00115C  5041               	movf	??_I2C_DO_RX^0,w,c
  1975   00115E  0A01               	xorlw	1	; case 1
  1976   001160  B4D8               	btfsc	status,2,c
  1977   001162  EF91  F008         	goto	i2l2374
  1978   001166  0A03               	xorlw	3	; case 2
  1979   001168  B4D8               	btfsc	status,2,c
  1980   00116A  EF8D  F008         	goto	i2l2370
  1981   00116E  0A01               	xorlw	1	; case 3
  1982   001170  B4D8               	btfsc	status,2,c
  1983   001172  EF8D  F008         	goto	i2l2370
  1984   001176  0A07               	xorlw	7	; case 4
  1985   001178  B4D8               	btfsc	status,2,c
  1986   00117A  EF91  F008         	goto	i2l2374
  1987   00117E  EF91  F008         	goto	i2l2374
  1988   001182                     i2l538:
  1989   001182  0012               	return		;funcret
  1990   001184                     __end_of_I2C_DO_RX:
  1991                           	callstack 0
  1992                           
  1993 ;; *************** function _I2C_DO_TX *****************
  1994 ;; Defined at:
  1995 ;;		line 356 in file "mcc_generated_files/i2c_master.c"
  1996 ;; Parameters:    Size  Location     Type
  1997 ;;		None
  1998 ;; Auto vars:     Size  Location     Type
  1999 ;;		None
  2000 ;; Return value:  Size  Location     Type
  2001 ;;                  1    wreg      enum E3121
  2002 ;; Registers used:
  2003 ;;		wreg, fsr2l, fsr2h, status,2, status,0, pcl, pclath, pclatu, tosl, prodl, prodh, cstack
  2004 ;; Tracked objects:
  2005 ;;		On entry : 0/0
  2006 ;;		On exit  : 0/0
  2007 ;;		Unchanged: 0/0
  2008 ;; Data sizes:     COMRAM   BANK0   BANK1   BANK2   BANK3   BANK4   BANK5   BANK6   BANK7   BANK8   BANK9  BANK10  BANK1
      +1  BANK12  BANK13  BANK14  BANK15
  2009 ;;      Params:         0       0       0       0       0       0       0       0       0       0       0       0       
      +0       0       0       0       0
  2010 ;;      Locals:         0       0       0       0       0       0       0       0       0       0       0       0       
      +0       0       0       0       0
  2011 ;;      Temps:          2       0       0       0       0       0       0       0       0       0       0       0       
      +0       0       0       0       0
  2012 ;;      Totals:         2       0       0       0       0       0       0       0       0       0       0       0       
      +0       0       0       0       0
  2013 ;;Total ram usage:        2 bytes
  2014 ;; Hardware stack levels used: 1
  2015 ;; Hardware stack levels required when called: 3
  2016 ;; This function calls:
  2017 ;;		NULL
  2018 ;;		_I2C_CallbackReturnReset
  2019 ;;		_I2C_CallbackReturnStop
  2020 ;;		_I2C_DO_SEND_RESTART_READ
  2021 ;;		_I2C_DO_SEND_RESTART_WRITE
  2022 ;;		_I2C_DO_SEND_STOP
  2023 ;;		_I2C_MasterIsNack
  2024 ;;		_I2C_MasterSendTxData
  2025 ;;		_rd1RegCompleteHandler
  2026 ;;		_rd2RegCompleteHandler
  2027 ;;		_rdBlkRegCompleteHandler
  2028 ;;		_wr1RegCompleteHandler
  2029 ;;		_wr2RegCompleteHandler
  2030 ;; This function is called by:
  2031 ;;		_I2C_MasterFsm
  2032 ;; This function uses a non-reentrant model
  2033 ;;
  2034                           
  2035                           	psect	text26
  2036   001022                     __ptext26:
  2037                           	callstack 0
  2038   001022                     _I2C_DO_TX:
  2039                           	callstack 21
  2040   001022                     
  2041                           ;mcc_generated_files/i2c_master.c: 358:     if(I2C_MasterIsNack())
  2042   001022  ECAC  F00A         	call	_I2C_MasterIsNack	;wreg free
  2043   001026  0900               	iorlw	0
  2044   001028  B4D8               	btfsc	status,2,c
  2045   00102A  EF19  F008         	goto	i2u63_41
  2046   00102E  EF1B  F008         	goto	i2u63_40
  2047   001032                     i2u63_41:
  2048   001032  EF55  F008         	goto	i2l521
  2049   001036                     i2u63_40:
  2050   001036  EF29  F008         	goto	i2l2340
  2051   00103A                     i2l2326:
  2052                           
  2053                           ;mcc_generated_files/i2c_master.c: 363:                 return I2C_DO_SEND_RESTART_READ(
      +                          );
  2054   00103A  ECFF  F00A         	call	_I2C_DO_SEND_RESTART_READ	;wreg free
  2055   00103E  EF6F  F008         	goto	i2l524
  2056   001042                     i2l2330:
  2057                           
  2058                           ;mcc_generated_files/i2c_master.c: 365:                   return I2C_DO_SEND_RESTART_WRI
      +                          TE();
  2059   001042  ECFB  F00A         	call	_I2C_DO_SEND_RESTART_WRITE	;wreg free
  2060   001046  EF6F  F008         	goto	i2l524
  2061   00104A                     i2l2334:
  2062                           
  2063                           ;mcc_generated_files/i2c_master.c: 369:                 return I2C_DO_SEND_STOP();
  2064   00104A  ECF3  F00A         	call	_I2C_DO_SEND_STOP	;wreg free
  2065   00104E  EF6F  F008         	goto	i2l524
  2066   001052                     i2l2340:
  2067   001052  C013  F03F         	movff	_I2C_Status+18,I2C_CallbackReturnReset@funPtr
  2068   001056  C014  F040         	movff	_I2C_Status+19,I2C_CallbackReturnReset@funPtr+1
  2069   00105A  D802               	call	i2u64_48
  2070   00105C  EF39  F008         	goto	i2u64_49
  2071   001060                     i2u64_48:
  2072   001060  0005               	push	
  2073   001062  6EFA               	movwf	pclath,c
  2074   001064  5007               	movf	(_I2C_Status+6)^0,w,c
  2075   001066  6EFD               	movwf	tosl,c
  2076   001068  5008               	movf	(_I2C_Status+7)^0,w,c
  2077   00106A  6EFE               	movwf	tosh,c
  2078   00106C  6AFF               	clrf	tosu,c
  2079   00106E  50FA               	movf	pclath,w,c
  2080   001070  0012               	return		;indir
  2081   001072                     i2u64_49:
  2082   001072  6E41               	movwf	??_I2C_DO_TX^0,c
  2083   001074  6A42               	clrf	(??_I2C_DO_TX+1)^0,c
  2084                           
  2085                           ; Switch on 2 bytes has been partitioned into a top level switch of size 1, and 1 sub-sw
      +                          itches
  2086                           ; Switch size 1, requested type "simple"
  2087                           ; Number of cases is 1, Range of values is 0 to 0
  2088                           ; switch strategies available:
  2089                           ; Name         Instructions Cycles
  2090                           ; simple_byte            4     3 (average)
  2091                           ;	Chosen strategy is simple_byte
  2092   001076  5042               	movf	(??_I2C_DO_TX+1)^0,w,c
  2093   001078  0A00               	xorlw	0	; case 0
  2094   00107A  B4D8               	btfsc	status,2,c
  2095   00107C  EF42  F008         	goto	i2l2796
  2096   001080  EF25  F008         	goto	i2l2334
  2097   001084                     i2l2796:
  2098                           
  2099                           ; Switch size 1, requested type "simple"
  2100                           ; Number of cases is 4, Range of values is 1 to 4
  2101                           ; switch strategies available:
  2102                           ; Name         Instructions Cycles
  2103                           ; simple_byte           13     7 (average)
  2104                           ;	Chosen strategy is simple_byte
  2105   001084  5041               	movf	??_I2C_DO_TX^0,w,c
  2106   001086  0A01               	xorlw	1	; case 1
  2107   001088  B4D8               	btfsc	status,2,c
  2108   00108A  EF25  F008         	goto	i2l2334
  2109   00108E  0A03               	xorlw	3	; case 2
  2110   001090  B4D8               	btfsc	status,2,c
  2111   001092  EF1D  F008         	goto	i2l2326
  2112   001096  0A01               	xorlw	1	; case 3
  2113   001098  B4D8               	btfsc	status,2,c
  2114   00109A  EF21  F008         	goto	i2l2330
  2115   00109E  0A07               	xorlw	7	; case 4
  2116   0010A0  B4D8               	btfsc	status,2,c
  2117   0010A2  EF25  F008         	goto	i2l2334
  2118   0010A6  EF25  F008         	goto	i2l2334
  2119   0010AA                     i2l521:
  2120                           
  2121                           ;mcc_generated_files/i2c_master.c: 373:     {;mcc_generated_files/i2c_master.c: 374:    
      +                               I2C_Status.addressNackCheck = 0;
  2122   0010AA  9024               	bcf	(_I2C_Status+35)^0,0,c
  2123   0010AC                     
  2124                           ;mcc_generated_files/i2c_master.c: 375:         I2C_MasterSendTxData(*I2C_Status.data_pt
      +                          r++);
  2125   0010AC  C01E  FFD9         	movff	_I2C_Status+29,fsr2l
  2126   0010B0  C01F  FFDA         	movff	_I2C_Status+30,fsr2h
  2127   0010B4  4A1E               	infsnz	(_I2C_Status+29)^0,f,c
  2128   0010B6  2A1F               	incf	(_I2C_Status+30)^0,f,c
  2129   0010B8  50DF               	movf	indf2,w,c
  2130   0010BA  EC03  F00B         	call	_I2C_MasterSendTxData
  2131   0010BE                     
  2132                           ;mcc_generated_files/i2c_master.c: 376:         return (--I2C_Status.data_length)?I2C_TX
      +                          :I2C_TX_EMPTY;
  2133   0010BE  0620               	decf	(_I2C_Status+31)^0,f,c
  2134   0010C0  A0D8               	btfss	status,0,c
  2135   0010C2  0621               	decf	(_I2C_Status+32)^0,f,c
  2136   0010C4  5020               	movf	(_I2C_Status+31)^0,w,c
  2137   0010C6  1021               	iorwf	(_I2C_Status+32)^0,w,c
  2138   0010C8  A4D8               	btfss	status,2,c
  2139   0010CA  EF69  F008         	goto	i2u65_41
  2140   0010CE  EF6B  F008         	goto	i2u65_40
  2141   0010D2                     i2u65_41:
  2142   0010D2  EF6E  F008         	goto	i2l2348
  2143   0010D6                     i2u65_40:
  2144   0010D6  0E06               	movlw	6
  2145   0010D8  EF6F  F008         	goto	i2l524
  2146   0010DC                     i2l2348:
  2147   0010DC  0E03               	movlw	3
  2148   0010DE                     i2l524:
  2149   0010DE  0012               	return		;funcret
  2150   0010E0                     __end_of_I2C_DO_TX:
  2151                           	callstack 0
  2152                           
  2153 ;; *************** function _I2C_DO_SEND_ADR_WRITE *****************
  2154 ;; Defined at:
  2155 ;;		line 349 in file "mcc_generated_files/i2c_master.c"
  2156 ;; Parameters:    Size  Location     Type
  2157 ;;		None
  2158 ;; Auto vars:     Size  Location     Type
  2159 ;;		None
  2160 ;; Return value:  Size  Location     Type
  2161 ;;                  1    wreg      enum E3121
  2162 ;; Registers used:
  2163 ;;		wreg, status,2, status,0, cstack
  2164 ;; Tracked objects:
  2165 ;;		On entry : 0/0
  2166 ;;		On exit  : 0/0
  2167 ;;		Unchanged: 0/0
  2168 ;; Data sizes:     COMRAM   BANK0   BANK1   BANK2   BANK3   BANK4   BANK5   BANK6   BANK7   BANK8   BANK9  BANK10  BANK1
      +1  BANK12  BANK13  BANK14  BANK15
  2169 ;;      Params:         0       0       0       0       0       0       0       0       0       0       0       0       
      +0       0       0       0       0
  2170 ;;      Locals:         0       0       0       0       0       0       0       0       0       0       0       0       
      +0       0       0       0       0
  2171 ;;      Temps:          0       0       0       0       0       0       0       0       0       0       0       0       
      +0       0       0       0       0
  2172 ;;      Totals:         0       0       0       0       0       0       0       0       0       0       0       0       
      +0       0       0       0       0
  2173 ;;Total ram usage:        0 bytes
  2174 ;; Hardware stack levels used: 1
  2175 ;; Hardware stack levels required when called: 1
  2176 ;; This function calls:
  2177 ;;		_I2C_MasterSendTxData
  2178 ;; This function is called by:
  2179 ;;		_I2C_MasterFsm
  2180 ;; This function uses a non-reentrant model
  2181 ;;
  2182                           
  2183                           	psect	text27
  2184   00156C                     __ptext27:
  2185                           	callstack 0
  2186   00156C                     _I2C_DO_SEND_ADR_WRITE:
  2187                           	callstack 23
  2188   00156C                     
  2189                           ;mcc_generated_files/i2c_master.c: 351:     I2C_Status.addressNackCheck = 1;
  2190   00156C  8024               	bsf	(_I2C_Status+35)^0,0,c
  2191   00156E                     
  2192                           ;mcc_generated_files/i2c_master.c: 352:     I2C_MasterSendTxData((uint8_t) (I2C_Status.a
      +                          ddress << 1));
  2193   00156E  501D               	movf	(_I2C_Status+28)^0,w,c
  2194   001570  241D               	addwf	(_I2C_Status+28)^0,w,c
  2195   001572  EC03  F00B         	call	_I2C_MasterSendTxData
  2196   001576                     
  2197                           ;mcc_generated_files/i2c_master.c: 353:     return I2C_TX;
  2198   001576  0E03               	movlw	3
  2199   001578  0012               	return		;funcret
  2200   00157A                     __end_of_I2C_DO_SEND_ADR_WRITE:
  2201                           	callstack 0
  2202                           
  2203 ;; *************** function _I2C_DO_SEND_ADR_READ *****************
  2204 ;; Defined at:
  2205 ;;		line 342 in file "mcc_generated_files/i2c_master.c"
  2206 ;; Parameters:    Size  Location     Type
  2207 ;;		None
  2208 ;; Auto vars:     Size  Location     Type
  2209 ;;		None
  2210 ;; Return value:  Size  Location     Type
  2211 ;;                  1    wreg      enum E3121
  2212 ;; Registers used:
  2213 ;;		wreg, status,0, cstack
  2214 ;; Tracked objects:
  2215 ;;		On entry : 0/0
  2216 ;;		On exit  : 0/0
  2217 ;;		Unchanged: 0/0
  2218 ;; Data sizes:     COMRAM   BANK0   BANK1   BANK2   BANK3   BANK4   BANK5   BANK6   BANK7   BANK8   BANK9  BANK10  BANK1
      +1  BANK12  BANK13  BANK14  BANK15
  2219 ;;      Params:         0       0       0       0       0       0       0       0       0       0       0       0       
      +0       0       0       0       0
  2220 ;;      Locals:         0       0       0       0       0       0       0       0       0       0       0       0       
      +0       0       0       0       0
  2221 ;;      Temps:          0       0       0       0       0       0       0       0       0       0       0       0       
      +0       0       0       0       0
  2222 ;;      Totals:         0       0       0       0       0       0       0       0       0       0       0       0       
      +0       0       0       0       0
  2223 ;;Total ram usage:        0 bytes
  2224 ;; Hardware stack levels used: 1
  2225 ;; Hardware stack levels required when called: 1
  2226 ;; This function calls:
  2227 ;;		_I2C_MasterSendTxData
  2228 ;; This function is called by:
  2229 ;;		_I2C_MasterFsm
  2230 ;; This function uses a non-reentrant model
  2231 ;;
  2232                           
  2233                           	psect	text28
  2234   00157A                     __ptext28:
  2235                           	callstack 0
  2236   00157A                     _I2C_DO_SEND_ADR_READ:
  2237                           	callstack 23
  2238   00157A                     
  2239                           ;mcc_generated_files/i2c_master.c: 344:     I2C_Status.addressNackCheck = 1;
  2240   00157A  8024               	bsf	(_I2C_Status+35)^0,0,c
  2241   00157C                     
  2242                           ;mcc_generated_files/i2c_master.c: 345:     I2C_MasterSendTxData((uint8_t) (I2C_Status.a
      +                          ddress << 1 | 1));
  2243   00157C  80D8               	bsf	status,0,c
  2244   00157E  341D               	rlcf	(_I2C_Status+28)^0,w,c
  2245   001580  EC03  F00B         	call	_I2C_MasterSendTxData
  2246   001584                     
  2247                           ;mcc_generated_files/i2c_master.c: 346:     return I2C_RCEN;
  2248   001584  0E05               	movlw	5
  2249   001586  0012               	return		;funcret
  2250   001588                     __end_of_I2C_DO_SEND_ADR_READ:
  2251                           	callstack 0
  2252                           
  2253 ;; *************** function _I2C_DO_IDLE *****************
  2254 ;; Defined at:
  2255 ;;		line 335 in file "mcc_generated_files/i2c_master.c"
  2256 ;; Parameters:    Size  Location     Type
  2257 ;;		None
  2258 ;; Auto vars:     Size  Location     Type
  2259 ;;		None
  2260 ;; Return value:  Size  Location     Type
  2261 ;;                  1    wreg      enum E3121
  2262 ;; Registers used:
  2263 ;;		wreg, status,2
  2264 ;; Tracked objects:
  2265 ;;		On entry : 0/0
  2266 ;;		On exit  : 0/0
  2267 ;;		Unchanged: 0/0
  2268 ;; Data sizes:     COMRAM   BANK0   BANK1   BANK2   BANK3   BANK4   BANK5   BANK6   BANK7   BANK8   BANK9  BANK10  BANK1
      +1  BANK12  BANK13  BANK14  BANK15
  2269 ;;      Params:         0       0       0       0       0       0       0       0       0       0       0       0       
      +0       0       0       0       0
  2270 ;;      Locals:         0       0       0       0       0       0       0       0       0       0       0       0       
      +0       0       0       0       0
  2271 ;;      Temps:          0       0       0       0       0       0       0       0       0       0       0       0       
      +0       0       0       0       0
  2272 ;;      Totals:         0       0       0       0       0       0       0       0       0       0       0       0       
      +0       0       0       0       0
  2273 ;;Total ram usage:        0 bytes
  2274 ;; Hardware stack levels used: 1
  2275 ;; This function calls:
  2276 ;;		Nothing
  2277 ;; This function is called by:
  2278 ;;		_I2C_MasterFsm
  2279 ;; This function uses a non-reentrant model
  2280 ;;
  2281                           
  2282                           	psect	text29
  2283   0015C4                     __ptext29:
  2284                           	callstack 0
  2285   0015C4                     _I2C_DO_IDLE:
  2286                           	callstack 24
  2287   0015C4                     
  2288                           ;mcc_generated_files/i2c_master.c: 337:     I2C_Status.busy = 0;
  2289   0015C4  9224               	bcf	(_I2C_Status+35)^0,1,c
  2290   0015C6                     
  2291                           ;mcc_generated_files/i2c_master.c: 338:     I2C_Status.error = I2C_NOERR;
  2292   0015C6  0E00               	movlw	0
  2293   0015C8  6E23               	movwf	(_I2C_Status+34)^0,c
  2294   0015CA                     
  2295                           ;mcc_generated_files/i2c_master.c: 339:     return I2C_RESET;
  2296   0015CA  0E0E               	movlw	14
  2297   0015CC  0012               	return		;funcret
  2298   0015CE                     __end_of_I2C_DO_IDLE:
  2299                           	callstack 0
  2300                           
  2301 ;; *************** function _I2C_DO_TX_EMPTY *****************
  2302 ;; Defined at:
  2303 ;;		line 411 in file "mcc_generated_files/i2c_master.c"
  2304 ;; Parameters:    Size  Location     Type
  2305 ;;		None
  2306 ;; Auto vars:     Size  Location     Type
  2307 ;;		None
  2308 ;; Return value:  Size  Location     Type
  2309 ;;                  1    wreg      enum E3121
  2310 ;; Registers used:
  2311 ;;		wreg, fsr2l, fsr2h, status,2, status,0, pcl, pclath, pclatu, tosl, prodl, prodh, cstack
  2312 ;; Tracked objects:
  2313 ;;		On entry : 0/0
  2314 ;;		On exit  : 0/0
  2315 ;;		Unchanged: 0/0
  2316 ;; Data sizes:     COMRAM   BANK0   BANK1   BANK2   BANK3   BANK4   BANK5   BANK6   BANK7   BANK8   BANK9  BANK10  BANK1
      +1  BANK12  BANK13  BANK14  BANK15
  2317 ;;      Params:         0       0       0       0       0       0       0       0       0       0       0       0       
      +0       0       0       0       0
  2318 ;;      Locals:         0       0       0       0       0       0       0       0       0       0       0       0       
      +0       0       0       0       0
  2319 ;;      Temps:          2       0       0       0       0       0       0       0       0       0       0       0       
      +0       0       0       0       0
  2320 ;;      Totals:         2       0       0       0       0       0       0       0       0       0       0       0       
      +0       0       0       0       0
  2321 ;;Total ram usage:        2 bytes
  2322 ;; Hardware stack levels used: 1
  2323 ;; Hardware stack levels required when called: 3
  2324 ;; This function calls:
  2325 ;;		NULL
  2326 ;;		_I2C_CallbackReturnReset
  2327 ;;		_I2C_CallbackReturnStop
  2328 ;;		_I2C_DO_SEND_RESTART
  2329 ;;		_I2C_DO_SEND_STOP
  2330 ;;		_I2C_MasterSetIrq
  2331 ;;		_rd1RegCompleteHandler
  2332 ;;		_rd2RegCompleteHandler
  2333 ;;		_rdBlkRegCompleteHandler
  2334 ;;		_wr1RegCompleteHandler
  2335 ;;		_wr2RegCompleteHandler
  2336 ;; This function is called by:
  2337 ;;		_I2C_MasterFsm
  2338 ;; This function uses a non-reentrant model
  2339 ;;
  2340                           
  2341                           	psect	text30
  2342   001184                     __ptext30:
  2343                           	callstack 0
  2344   001184                     _I2C_DO_TX_EMPTY:
  2345                           	callstack 21
  2346   001184                     
  2347                           ;mcc_generated_files/i2c_master.c: 413:     I2C_Status.bufferFree = 1;
  2348   001184  8624               	bsf	(_I2C_Status+35)^0,3,c
  2349                           
  2350                           ;mcc_generated_files/i2c_master.c: 414:     switch(I2C_Status.callbackTable[I2C_DATA_COM
      +                          PLETE](I2C_Status.callbackPayload[I2C_DATA_COMPLETE]))
  2351   001186  EFD2  F008         	goto	i2l2404
  2352   00118A                     i2l2388:
  2353                           
  2354                           ;mcc_generated_files/i2c_master.c: 418:             return I2C_DO_SEND_RESTART();
  2355   00118A  ECF7  F00A         	call	_I2C_DO_SEND_RESTART	;wreg free
  2356   00118E  EFFE  F008         	goto	i2l555
  2357   001192                     i2l2392:
  2358                           
  2359                           ;mcc_generated_files/i2c_master.c: 420:             I2C_MasterSetIrq();
  2360   001192  EC14  F00B         	call	_I2C_MasterSetIrq	;wreg free
  2361   001196                     
  2362                           ;mcc_generated_files/i2c_master.c: 421:             return I2C_TX;
  2363   001196  0E03               	movlw	3
  2364   001198  EFFE  F008         	goto	i2l555
  2365   00119C                     i2l2398:
  2366                           
  2367                           ;mcc_generated_files/i2c_master.c: 424:             return I2C_DO_SEND_STOP();
  2368   00119C  ECF3  F00A         	call	_I2C_DO_SEND_STOP	;wreg free
  2369   0011A0  EFFE  F008         	goto	i2l555
  2370   0011A4                     i2l2404:
  2371   0011A4  C00D  F03F         	movff	_I2C_Status+12,I2C_CallbackReturnReset@funPtr
  2372   0011A8  C00E  F040         	movff	_I2C_Status+13,I2C_CallbackReturnReset@funPtr+1
  2373   0011AC  D802               	call	i2u68_48
  2374   0011AE  EFE2  F008         	goto	i2u68_49
  2375   0011B2                     i2u68_48:
  2376   0011B2  0005               	push	
  2377   0011B4  6EFA               	movwf	pclath,c
  2378   0011B6  5001               	movf	_I2C_Status^0,w,c
  2379   0011B8  6EFD               	movwf	tosl,c
  2380   0011BA  5002               	movf	(_I2C_Status+1)^0,w,c
  2381   0011BC  6EFE               	movwf	tosh,c
  2382   0011BE  6AFF               	clrf	tosu,c
  2383   0011C0  50FA               	movf	pclath,w,c
  2384   0011C2  0012               	return		;indir
  2385   0011C4                     i2u68_49:
  2386   0011C4  6E41               	movwf	??_I2C_DO_TX_EMPTY^0,c
  2387   0011C6  6A42               	clrf	(??_I2C_DO_TX_EMPTY+1)^0,c
  2388                           
  2389                           ; Switch on 2 bytes has been partitioned into a top level switch of size 1, and 1 sub-sw
      +                          itches
  2390                           ; Switch size 1, requested type "simple"
  2391                           ; Number of cases is 1, Range of values is 0 to 0
  2392                           ; switch strategies available:
  2393                           ; Name         Instructions Cycles
  2394                           ; simple_byte            4     3 (average)
  2395                           ;	Chosen strategy is simple_byte
  2396   0011C8  5042               	movf	(??_I2C_DO_TX_EMPTY+1)^0,w,c
  2397   0011CA  0A00               	xorlw	0	; case 0
  2398   0011CC  B4D8               	btfsc	status,2,c
  2399   0011CE  EFEB  F008         	goto	i2l2798
  2400   0011D2  EFCE  F008         	goto	i2l2398
  2401   0011D6                     i2l2798:
  2402                           
  2403                           ; Switch size 1, requested type "simple"
  2404                           ; Number of cases is 4, Range of values is 1 to 4
  2405                           ; switch strategies available:
  2406                           ; Name         Instructions Cycles
  2407                           ; simple_byte           13     7 (average)
  2408                           ;	Chosen strategy is simple_byte
  2409   0011D6  5041               	movf	??_I2C_DO_TX_EMPTY^0,w,c
  2410   0011D8  0A01               	xorlw	1	; case 1
  2411   0011DA  B4D8               	btfsc	status,2,c
  2412   0011DC  EFCE  F008         	goto	i2l2398
  2413   0011E0  0A03               	xorlw	3	; case 2
  2414   0011E2  B4D8               	btfsc	status,2,c
  2415   0011E4  EFC5  F008         	goto	i2l2388
  2416   0011E8  0A01               	xorlw	1	; case 3
  2417   0011EA  B4D8               	btfsc	status,2,c
  2418   0011EC  EFC5  F008         	goto	i2l2388
  2419   0011F0  0A07               	xorlw	7	; case 4
  2420   0011F2  B4D8               	btfsc	status,2,c
  2421   0011F4  EFC9  F008         	goto	i2l2392
  2422   0011F8  EFCE  F008         	goto	i2l2398
  2423   0011FC                     i2l555:
  2424   0011FC  0012               	return		;funcret
  2425   0011FE                     __end_of_I2C_DO_TX_EMPTY:
  2426                           	callstack 0
  2427                           
  2428 ;; *************** function _I2C_MasterSetIrq *****************
  2429 ;; Defined at:
  2430 ;;		line 647 in file "mcc_generated_files/i2c_master.c"
  2431 ;; Parameters:    Size  Location     Type
  2432 ;;		None
  2433 ;; Auto vars:     Size  Location     Type
  2434 ;;		None
  2435 ;; Return value:  Size  Location     Type
  2436 ;;                  1    wreg      void 
  2437 ;; Registers used:
  2438 ;;		None
  2439 ;; Tracked objects:
  2440 ;;		On entry : 0/0
  2441 ;;		On exit  : 0/0
  2442 ;;		Unchanged: 0/0
  2443 ;; Data sizes:     COMRAM   BANK0   BANK1   BANK2   BANK3   BANK4   BANK5   BANK6   BANK7   BANK8   BANK9  BANK10  BANK1
      +1  BANK12  BANK13  BANK14  BANK15
  2444 ;;      Params:         0       0       0       0       0       0       0       0       0       0       0       0       
      +0       0       0       0       0
  2445 ;;      Locals:         0       0       0       0       0       0       0       0       0       0       0       0       
      +0       0       0       0       0
  2446 ;;      Temps:          0       0       0       0       0       0       0       0       0       0       0       0       
      +0       0       0       0       0
  2447 ;;      Totals:         0       0       0       0       0       0       0       0       0       0       0       0       
      +0       0       0       0       0
  2448 ;;Total ram usage:        0 bytes
  2449 ;; Hardware stack levels used: 1
  2450 ;; This function calls:
  2451 ;;		Nothing
  2452 ;; This function is called by:
  2453 ;;		_I2C_DO_TX_EMPTY
  2454 ;; This function uses a non-reentrant model
  2455 ;;
  2456                           
  2457                           	psect	text31
  2458   001628                     __ptext31:
  2459                           	callstack 0
  2460   001628                     _I2C_MasterSetIrq:
  2461                           	callstack 23
  2462   001628                     
  2463                           ;mcc_generated_files/i2c_master.c: 649:     PIR1bits.SSPIF = 1;
  2464   001628  869E               	bsf	158,3,c	;volatile
  2465   00162A  0012               	return		;funcret
  2466   00162C                     __end_of_I2C_MasterSetIrq:
  2467                           	callstack 0
  2468                           
  2469 ;; *************** function _I2C_MasterIsNack *****************
  2470 ;; Defined at:
  2471 ;;		line 599 in file "mcc_generated_files/i2c_master.c"
  2472 ;; Parameters:    Size  Location     Type
  2473 ;;		None
  2474 ;; Auto vars:     Size  Location     Type
  2475 ;;		None
  2476 ;; Return value:  Size  Location     Type
  2477 ;;                  1    wreg      _Bool 
  2478 ;; Registers used:
  2479 ;;		wreg
  2480 ;; Tracked objects:
  2481 ;;		On entry : 0/0
  2482 ;;		On exit  : 0/0
  2483 ;;		Unchanged: 0/0
  2484 ;; Data sizes:     COMRAM   BANK0   BANK1   BANK2   BANK3   BANK4   BANK5   BANK6   BANK7   BANK8   BANK9  BANK10  BANK1
      +1  BANK12  BANK13  BANK14  BANK15
  2485 ;;      Params:         0       0       0       0       0       0       0       0       0       0       0       0       
      +0       0       0       0       0
  2486 ;;      Locals:         0       0       0       0       0       0       0       0       0       0       0       0       
      +0       0       0       0       0
  2487 ;;      Temps:          0       0       0       0       0       0       0       0       0       0       0       0       
      +0       0       0       0       0
  2488 ;;      Totals:         0       0       0       0       0       0       0       0       0       0       0       0       
      +0       0       0       0       0
  2489 ;;Total ram usage:        0 bytes
  2490 ;; Hardware stack levels used: 1
  2491 ;; This function calls:
  2492 ;;		Nothing
  2493 ;; This function is called by:
  2494 ;;		_I2C_MasterFsm
  2495 ;;		_I2C_DO_TX
  2496 ;; This function uses a non-reentrant model
  2497 ;;
  2498                           
  2499                           	psect	text32
  2500   001558                     __ptext32:
  2501                           	callstack 0
  2502   001558                     _I2C_MasterIsNack:
  2503                           	callstack 24
  2504   001558                     
  2505                           ;mcc_generated_files/i2c_master.c: 601:     return SSPCON2bits.ACKSTAT;
  2506   001558  BCC5               	btfsc	197,6,c	;volatile
  2507   00155A  EFB1  F00A         	goto	i2u3_41
  2508   00155E  EFB4  F00A         	goto	i2u3_40
  2509   001562                     i2u3_41:
  2510   001562  0E01               	movlw	1
  2511   001564  EFB5  F00A         	goto	i2u3_46
  2512   001568                     i2u3_40:
  2513   001568  0E00               	movlw	0
  2514   00156A                     i2u3_46:
  2515   00156A  0012               	return		;funcret
  2516   00156C                     __end_of_I2C_MasterIsNack:
  2517                           	callstack 0
  2518                           
  2519 ;; *************** function _I2C_MasterSendTxData *****************
  2520 ;; Defined at:
  2521 ;;		line 569 in file "mcc_generated_files/i2c_master.c"
  2522 ;; Parameters:    Size  Location     Type
  2523 ;;  data            1    wreg     unsigned char 
  2524 ;; Auto vars:     Size  Location     Type
  2525 ;;  data            1    0[COMRAM] unsigned char 
  2526 ;; Return value:  Size  Location     Type
  2527 ;;                  1    wreg      void 
  2528 ;; Registers used:
  2529 ;;		wreg
  2530 ;; Tracked objects:
  2531 ;;		On entry : 0/0
  2532 ;;		On exit  : 0/0
  2533 ;;		Unchanged: 0/0
  2534 ;; Data sizes:     COMRAM   BANK0   BANK1   BANK2   BANK3   BANK4   BANK5   BANK6   BANK7   BANK8   BANK9  BANK10  BANK1
      +1  BANK12  BANK13  BANK14  BANK15
  2535 ;;      Params:         0       0       0       0       0       0       0       0       0       0       0       0       
      +0       0       0       0       0
  2536 ;;      Locals:         1       0       0       0       0       0       0       0       0       0       0       0       
      +0       0       0       0       0
  2537 ;;      Temps:          0       0       0       0       0       0       0       0       0       0       0       0       
      +0       0       0       0       0
  2538 ;;      Totals:         1       0       0       0       0       0       0       0       0       0       0       0       
      +0       0       0       0       0
  2539 ;;Total ram usage:        1 bytes
  2540 ;; Hardware stack levels used: 1
  2541 ;; This function calls:
  2542 ;;		Nothing
  2543 ;; This function is called by:
  2544 ;;		_I2C_DO_SEND_ADR_READ
  2545 ;;		_I2C_DO_SEND_ADR_WRITE
  2546 ;;		_I2C_DO_TX
  2547 ;; This function uses a non-reentrant model
  2548 ;;
  2549                           
  2550                           	psect	text33
  2551   001606                     __ptext33:
  2552                           	callstack 0
  2553   001606                     _I2C_MasterSendTxData:
  2554                           	callstack 23
  2555                           
  2556                           ;incstack = 0
  2557                           ;I2C_MasterSendTxData@data stored from wreg
  2558   001606  6E36               	movwf	I2C_MasterSendTxData@data^0,c
  2559   001608                     
  2560                           ;mcc_generated_files/i2c_master.c: 569: static __attribute__((inline)) void I2C_MasterSe
      +                          ndTxData(uint8_t data);mcc_generated_files/i2c_master.c: 570: {;mcc_generated_files/i2c_
      +                          master.c: 571:     SSPBUF = data;
  2561   001608  C036  FFC9         	movff	I2C_MasterSendTxData@data,4041	;volatile
  2562   00160C  0012               	return		;funcret
  2563   00160E                     __end_of_I2C_MasterSendTxData:
  2564                           	callstack 0
  2565                           
  2566 ;; *************** function _I2C_MasterSendAck *****************
  2567 ;; Defined at:
  2568 ;;		line 604 in file "mcc_generated_files/i2c_master.c"
  2569 ;; Parameters:    Size  Location     Type
  2570 ;;		None
  2571 ;; Auto vars:     Size  Location     Type
  2572 ;;		None
  2573 ;; Return value:  Size  Location     Type
  2574 ;;                  1    wreg      void 
  2575 ;; Registers used:
  2576 ;;		None
  2577 ;; Tracked objects:
  2578 ;;		On entry : 0/0
  2579 ;;		On exit  : 0/0
  2580 ;;		Unchanged: 0/0
  2581 ;; Data sizes:     COMRAM   BANK0   BANK1   BANK2   BANK3   BANK4   BANK5   BANK6   BANK7   BANK8   BANK9  BANK10  BANK1
      +1  BANK12  BANK13  BANK14  BANK15
  2582 ;;      Params:         0       0       0       0       0       0       0       0       0       0       0       0       
      +0       0       0       0       0
  2583 ;;      Locals:         0       0       0       0       0       0       0       0       0       0       0       0       
      +0       0       0       0       0
  2584 ;;      Temps:          0       0       0       0       0       0       0       0       0       0       0       0       
      +0       0       0       0       0
  2585 ;;      Totals:         0       0       0       0       0       0       0       0       0       0       0       0       
      +0       0       0       0       0
  2586 ;;Total ram usage:        0 bytes
  2587 ;; Hardware stack levels used: 1
  2588 ;; This function calls:
  2589 ;;		Nothing
  2590 ;; This function is called by:
  2591 ;;		_I2C_DO_RX
  2592 ;;		_I2C_DO_RX_ACK
  2593 ;; This function uses a non-reentrant model
  2594 ;;
  2595                           
  2596                           	psect	text34
  2597   001614                     __ptext34:
  2598                           	callstack 0
  2599   001614                     _I2C_MasterSendAck:
  2600                           	callstack 23
  2601   001614                     
  2602                           ;mcc_generated_files/i2c_master.c: 606:     SSPCON2bits.ACKDT = 0;
  2603   001614  9AC5               	bcf	197,5,c	;volatile
  2604                           
  2605                           ;mcc_generated_files/i2c_master.c: 607:     SSPCON2bits.ACKEN = 1;
  2606   001616  88C5               	bsf	197,4,c	;volatile
  2607   001618  0012               	return		;funcret
  2608   00161A                     __end_of_I2C_MasterSendAck:
  2609                           	callstack 0
  2610                           
  2611 ;; *************** function _I2C_MasterGetRxData *****************
  2612 ;; Defined at:
  2613 ;;		line 564 in file "mcc_generated_files/i2c_master.c"
  2614 ;; Parameters:    Size  Location     Type
  2615 ;;		None
  2616 ;; Auto vars:     Size  Location     Type
  2617 ;;		None
  2618 ;; Return value:  Size  Location     Type
  2619 ;;                  1    wreg      unsigned char 
  2620 ;; Registers used:
  2621 ;;		wreg, status,2
  2622 ;; Tracked objects:
  2623 ;;		On entry : 0/0
  2624 ;;		On exit  : 0/0
  2625 ;;		Unchanged: 0/0
  2626 ;; Data sizes:     COMRAM   BANK0   BANK1   BANK2   BANK3   BANK4   BANK5   BANK6   BANK7   BANK8   BANK9  BANK10  BANK1
      +1  BANK12  BANK13  BANK14  BANK15
  2627 ;;      Params:         0       0       0       0       0       0       0       0       0       0       0       0       
      +0       0       0       0       0
  2628 ;;      Locals:         0       0       0       0       0       0       0       0       0       0       0       0       
      +0       0       0       0       0
  2629 ;;      Temps:          0       0       0       0       0       0       0       0       0       0       0       0       
      +0       0       0       0       0
  2630 ;;      Totals:         0       0       0       0       0       0       0       0       0       0       0       0       
      +0       0       0       0       0
  2631 ;;Total ram usage:        0 bytes
  2632 ;; Hardware stack levels used: 1
  2633 ;; This function calls:
  2634 ;;		Nothing
  2635 ;; This function is called by:
  2636 ;;		_I2C_DO_RX
  2637 ;; This function uses a non-reentrant model
  2638 ;;
  2639                           
  2640                           	psect	text35
  2641   00162C                     __ptext35:
  2642                           	callstack 0
  2643   00162C                     _I2C_MasterGetRxData:
  2644                           	callstack 23
  2645   00162C                     
  2646                           ;mcc_generated_files/i2c_master.c: 566:     return SSPBUF;
  2647   00162C  50C9               	movf	201,w,c	;volatile
  2648   00162E  0012               	return		;funcret
  2649   001630                     __end_of_I2C_MasterGetRxData:
  2650                           	callstack 0
  2651                           
  2652 ;; *************** function _I2C_MasterSendNack *****************
  2653 ;; Defined at:
  2654 ;;		line 610 in file "mcc_generated_files/i2c_master.c"
  2655 ;; Parameters:    Size  Location     Type
  2656 ;;		None
  2657 ;; Auto vars:     Size  Location     Type
  2658 ;;		None
  2659 ;; Return value:  Size  Location     Type
  2660 ;;                  1    wreg      void 
  2661 ;; Registers used:
  2662 ;;		None
  2663 ;; Tracked objects:
  2664 ;;		On entry : 0/0
  2665 ;;		On exit  : 0/0
  2666 ;;		Unchanged: 0/0
  2667 ;; Data sizes:     COMRAM   BANK0   BANK1   BANK2   BANK3   BANK4   BANK5   BANK6   BANK7   BANK8   BANK9  BANK10  BANK1
      +1  BANK12  BANK13  BANK14  BANK15
  2668 ;;      Params:         0       0       0       0       0       0       0       0       0       0       0       0       
      +0       0       0       0       0
  2669 ;;      Locals:         0       0       0       0       0       0       0       0       0       0       0       0       
      +0       0       0       0       0
  2670 ;;      Temps:          0       0       0       0       0       0       0       0       0       0       0       0       
      +0       0       0       0       0
  2671 ;;      Totals:         0       0       0       0       0       0       0       0       0       0       0       0       
      +0       0       0       0       0
  2672 ;;Total ram usage:        0 bytes
  2673 ;; Hardware stack levels used: 1
  2674 ;; This function calls:
  2675 ;;		Nothing
  2676 ;; This function is called by:
  2677 ;;		_I2C_DO_RX_NACK_STOP
  2678 ;;		_I2C_DO_RX_NACK_RESTART
  2679 ;; This function uses a non-reentrant model
  2680 ;;
  2681                           
  2682                           	psect	text36
  2683   00161A                     __ptext36:
  2684                           	callstack 0
  2685   00161A                     _I2C_MasterSendNack:
  2686                           	callstack 23
  2687   00161A                     
  2688                           ;mcc_generated_files/i2c_master.c: 612:     SSPCON2bits.ACKDT = 1;
  2689   00161A  8AC5               	bsf	197,5,c	;volatile
  2690                           
  2691                           ;mcc_generated_files/i2c_master.c: 613:     SSPCON2bits.ACKEN = 1;
  2692   00161C  88C5               	bsf	197,4,c	;volatile
  2693   00161E  0012               	return		;funcret
  2694   001620                     __end_of_I2C_MasterSendNack:
  2695                           	callstack 0
  2696                           
  2697 ;; *************** function _I2C_MasterStartRx *****************
  2698 ;; Defined at:
  2699 ;;		line 584 in file "mcc_generated_files/i2c_master.c"
  2700 ;; Parameters:    Size  Location     Type
  2701 ;;		None
  2702 ;; Auto vars:     Size  Location     Type
  2703 ;;		None
  2704 ;; Return value:  Size  Location     Type
  2705 ;;                  1    wreg      void 
  2706 ;; Registers used:
  2707 ;;		None
  2708 ;; Tracked objects:
  2709 ;;		On entry : 0/0
  2710 ;;		On exit  : 0/0
  2711 ;;		Unchanged: 0/0
  2712 ;; Data sizes:     COMRAM   BANK0   BANK1   BANK2   BANK3   BANK4   BANK5   BANK6   BANK7   BANK8   BANK9  BANK10  BANK1
      +1  BANK12  BANK13  BANK14  BANK15
  2713 ;;      Params:         0       0       0       0       0       0       0       0       0       0       0       0       
      +0       0       0       0       0
  2714 ;;      Locals:         0       0       0       0       0       0       0       0       0       0       0       0       
      +0       0       0       0       0
  2715 ;;      Temps:          0       0       0       0       0       0       0       0       0       0       0       0       
      +0       0       0       0       0
  2716 ;;      Totals:         0       0       0       0       0       0       0       0       0       0       0       0       
      +0       0       0       0       0
  2717 ;;Total ram usage:        0 bytes
  2718 ;; Hardware stack levels used: 1
  2719 ;; This function calls:
  2720 ;;		Nothing
  2721 ;; This function is called by:
  2722 ;;		_I2C_DO_RCEN
  2723 ;; This function uses a non-reentrant model
  2724 ;;
  2725                           
  2726                           	psect	text37
  2727   001630                     __ptext37:
  2728                           	callstack 0
  2729   001630                     _I2C_MasterStartRx:
  2730                           	callstack 23
  2731   001630                     
  2732                           ;mcc_generated_files/i2c_master.c: 586:     SSPCON2bits.RCEN = 1;
  2733   001630  86C5               	bsf	197,3,c	;volatile
  2734   001632  0012               	return		;funcret
  2735   001634                     __end_of_I2C_MasterStartRx:
  2736                           	callstack 0
  2737                           
  2738 ;; *************** function _I2C_CallbackReturnReset *****************
  2739 ;; Defined at:
  2740 ;;		line 526 in file "mcc_generated_files/i2c_master.c"
  2741 ;; Parameters:    Size  Location     Type
  2742 ;;  funPtr          2    9[COMRAM] PTR void 
  2743 ;;		 -> I2C_ReadDataBlock@bufferBlock(4), I2C_Write2ByteRegister@data(2), I2C_Write1ByteRegister@data(1), I2C_Read2ByteR
      +egister@returnValue(2), 
  2744 ;;		 -> NULL(0), I2C_Read1ByteRegister@returnValue(1), 
  2745 ;; Auto vars:     Size  Location     Type
  2746 ;;		None
  2747 ;; Return value:  Size  Location     Type
  2748 ;;                  1    wreg      enum E363
  2749 ;; Registers used:
  2750 ;;		wreg
  2751 ;; Tracked objects:
  2752 ;;		On entry : 0/0
  2753 ;;		On exit  : 0/0
  2754 ;;		Unchanged: 0/0
  2755 ;; Data sizes:     COMRAM   BANK0   BANK1   BANK2   BANK3   BANK4   BANK5   BANK6   BANK7   BANK8   BANK9  BANK10  BANK1
      +1  BANK12  BANK13  BANK14  BANK15
  2756 ;;      Params:         2       0       0       0       0       0       0       0       0       0       0       0       
      +0       0       0       0       0
  2757 ;;      Locals:         0       0       0       0       0       0       0       0       0       0       0       0       
      +0       0       0       0       0
  2758 ;;      Temps:          0       0       0       0       0       0       0       0       0       0       0       0       
      +0       0       0       0       0
  2759 ;;      Totals:         2       0       0       0       0       0       0       0       0       0       0       0       
      +0       0       0       0       0
  2760 ;;Total ram usage:        2 bytes
  2761 ;; Hardware stack levels used: 1
  2762 ;; This function calls:
  2763 ;;		Nothing
  2764 ;; This function is called by:
  2765 ;;		_I2C_Open
  2766 ;;		_I2C_DO_TX
  2767 ;;		_I2C_DO_RX
  2768 ;;		_I2C_DO_TX_EMPTY
  2769 ;;		_I2C_DO_ADDRESS_NACK
  2770 ;;		_I2C_DO_RX_EMPTY
  2771 ;; This function uses a non-reentrant model
  2772 ;;
  2773                           
  2774                           	psect	text38
  2775   001634                     __ptext38:
  2776                           	callstack 0
  2777   001634                     _I2C_CallbackReturnReset:
  2778                           	callstack 23
  2779   001634                     
  2780                           ;mcc_generated_files/i2c_master.c: 526: i2c_operations_t I2C_CallbackReturnReset(void *f
      +                          unPtr);mcc_generated_files/i2c_master.c: 527: {;mcc_generated_files/i2c_master.c: 528:  
      +                             return I2C_RESET_LINK;
  2781   001634  0E05               	movlw	5
  2782   001636  0012               	return		;funcret
  2783   001638                     __end_of_I2C_CallbackReturnReset:
  2784                           	callstack 0
  2785                           
  2786 ;; *************** function _I2C_CallbackReturnStop *****************
  2787 ;; Defined at:
  2788 ;;		line 521 in file "mcc_generated_files/i2c_master.c"
  2789 ;; Parameters:    Size  Location     Type
  2790 ;;  funPtr          2    9[COMRAM] PTR void 
  2791 ;;		 -> I2C_ReadDataBlock@bufferBlock(4), I2C_Write2ByteRegister@data(2), I2C_Write1ByteRegister@data(1), I2C_Read2ByteR
      +egister@returnValue(2), 
  2792 ;;		 -> NULL(0), I2C_Read1ByteRegister@returnValue(1), 
  2793 ;; Auto vars:     Size  Location     Type
  2794 ;;		None
  2795 ;; Return value:  Size  Location     Type
  2796 ;;                  1    wreg      enum E363
  2797 ;; Registers used:
  2798 ;;		wreg
  2799 ;; Tracked objects:
  2800 ;;		On entry : 0/0
  2801 ;;		On exit  : 0/0
  2802 ;;		Unchanged: 0/0
  2803 ;; Data sizes:     COMRAM   BANK0   BANK1   BANK2   BANK3   BANK4   BANK5   BANK6   BANK7   BANK8   BANK9  BANK10  BANK1
      +1  BANK12  BANK13  BANK14  BANK15
  2804 ;;      Params:         2       0       0       0       0       0       0       0       0       0       0       0       
      +0       0       0       0       0
  2805 ;;      Locals:         0       0       0       0       0       0       0       0       0       0       0       0       
      +0       0       0       0       0
  2806 ;;      Temps:          0       0       0       0       0       0       0       0       0       0       0       0       
      +0       0       0       0       0
  2807 ;;      Totals:         2       0       0       0       0       0       0       0       0       0       0       0       
      +0       0       0       0       0
  2808 ;;Total ram usage:        2 bytes
  2809 ;; Hardware stack levels used: 1
  2810 ;; This function calls:
  2811 ;;		Nothing
  2812 ;; This function is called by:
  2813 ;;		_I2C_SetCallback
  2814 ;;		_I2C_Open
  2815 ;;		_I2C_DO_TX
  2816 ;;		_I2C_DO_RX
  2817 ;;		_I2C_DO_TX_EMPTY
  2818 ;;		_I2C_DO_ADDRESS_NACK
  2819 ;;		_I2C_DO_RX_EMPTY
  2820 ;; This function uses a non-reentrant model
  2821 ;;
  2822                           
  2823                           	psect	text39
  2824   001638                     __ptext39:
  2825                           	callstack 0
  2826   001638                     _I2C_CallbackReturnStop:
  2827                           	callstack 23
  2828   001638                     
  2829                           ;mcc_generated_files/i2c_master.c: 521: i2c_operations_t I2C_CallbackReturnStop(void *fu
      +                          nPtr);mcc_generated_files/i2c_master.c: 522: {;mcc_generated_files/i2c_master.c: 523:   
      +                            return I2C_STOP;
  2830   001638  0E01               	movlw	1
  2831   00163A  0012               	return		;funcret
  2832   00163C                     __end_of_I2C_CallbackReturnStop:
  2833                           	callstack 0
  2834                           
  2835 ;; *************** function _rdBlkRegCompleteHandler *****************
  2836 ;; Defined at:
  2837 ;;		line 170 in file "mcc_generated_files/examples/i2c_master_example.c"
  2838 ;; Parameters:    Size  Location     Type
  2839 ;;  ptr             2    9[COMRAM] PTR void 
  2840 ;;		 -> I2C_ReadDataBlock@bufferBlock(4), I2C_Write2ByteRegister@data(2), I2C_Write1ByteRegister@data(1), I2C_Read2ByteR
      +egister@returnValue(2), 
  2841 ;;		 -> NULL(0), I2C_Read1ByteRegister@returnValue(1), 
  2842 ;; Auto vars:     Size  Location     Type
  2843 ;;		None
  2844 ;; Return value:  Size  Location     Type
  2845 ;;                  1    wreg      enum E363
  2846 ;; Registers used:
  2847 ;;		wreg, fsr2l, fsr2h, status,2, status,0, prodl, prodh, cstack
  2848 ;; Tracked objects:
  2849 ;;		On entry : 0/0
  2850 ;;		On exit  : 0/0
  2851 ;;		Unchanged: 0/0
  2852 ;; Data sizes:     COMRAM   BANK0   BANK1   BANK2   BANK3   BANK4   BANK5   BANK6   BANK7   BANK8   BANK9  BANK10  BANK1
      +1  BANK12  BANK13  BANK14  BANK15
  2853 ;;      Params:         2       0       0       0       0       0       0       0       0       0       0       0       
      +0       0       0       0       0
  2854 ;;      Locals:         0       0       0       0       0       0       0       0       0       0       0       0       
      +0       0       0       0       0
  2855 ;;      Temps:          0       0       0       0       0       0       0       0       0       0       0       0       
      +0       0       0       0       0
  2856 ;;      Totals:         2       0       0       0       0       0       0       0       0       0       0       0       
      +0       0       0       0       0
  2857 ;;Total ram usage:        2 bytes
  2858 ;; Hardware stack levels used: 1
  2859 ;; Hardware stack levels required when called: 2
  2860 ;; This function calls:
  2861 ;;		_I2C_SetBuffer
  2862 ;;		_I2C_SetDataCompleteCallback
  2863 ;; This function is called by:
  2864 ;;		_I2C_ReadDataBlock
  2865 ;;		_I2C_DO_TX
  2866 ;;		_I2C_DO_RX
  2867 ;;		_I2C_DO_TX_EMPTY
  2868 ;;		_I2C_DO_ADDRESS_NACK
  2869 ;;		_I2C_DO_RX_EMPTY
  2870 ;; This function uses a non-reentrant model
  2871 ;;
  2872                           
  2873                           	psect	text40
  2874   001384                     __ptext40:
  2875                           	callstack 0
  2876   001384                     _rdBlkRegCompleteHandler:
  2877                           	callstack 21
  2878   001384                     
  2879                           ;mcc_generated_files/examples/i2c_master_example.c: 170: static i2c_operations_t rdBlkRe
      +                          gCompleteHandler(void *ptr);mcc_generated_files/examples/i2c_master_example.c: 171: {;mc
      +                          c_generated_files/examples/i2c_master_example.c: 172:     I2C_SetBuffer(((i2c_buffer_t *
      +                          )ptr)->data,((i2c_buffer_t*)ptr)->len);
  2880   001384  EE20 F002          	lfsr	2,2
  2881   001388  503F               	movf	rdBlkRegCompleteHandler@ptr^0,w,c
  2882   00138A  26D9               	addwf	fsr2l,f,c
  2883   00138C  5040               	movf	(rdBlkRegCompleteHandler@ptr+1)^0,w,c
  2884   00138E  22DA               	addwfc	fsr2h,f,c
  2885   001390  CFDE F036          	movff	postinc2,I2C_SetBuffer@buffer
  2886   001394  CFDD F037          	movff	postdec2,I2C_SetBuffer@buffer+1
  2887   001398  C03F  FFD9         	movff	rdBlkRegCompleteHandler@ptr,fsr2l
  2888   00139C  C040  FFDA         	movff	rdBlkRegCompleteHandler@ptr+1,fsr2h
  2889   0013A0  CFDE F038          	movff	postinc2,I2C_SetBuffer@bufferSize
  2890   0013A4  CFDD F039          	movff	postdec2,I2C_SetBuffer@bufferSize+1
  2891   0013A8  EC63  F00A         	call	_I2C_SetBuffer	;wreg free
  2892   0013AC                     
  2893                           ;mcc_generated_files/examples/i2c_master_example.c: 173:     I2C_SetDataCompleteCallback
      +                          (((void*)0),((void*)0));
  2894   0013AC  0E00               	movlw	0
  2895   0013AE  6E3B               	movwf	I2C_SetDataCompleteCallback@cb^0,c
  2896   0013B0  0E00               	movlw	0
  2897   0013B2  6E3C               	movwf	(I2C_SetDataCompleteCallback@cb+1)^0,c
  2898   0013B4  0E00               	movlw	0
  2899   0013B6  6E3D               	movwf	I2C_SetDataCompleteCallback@ptr^0,c
  2900   0013B8  0E00               	movlw	0
  2901   0013BA  6E3E               	movwf	(I2C_SetDataCompleteCallback@ptr+1)^0,c
  2902   0013BC  EC80  F00A         	call	_I2C_SetDataCompleteCallback	;wreg free
  2903   0013C0                     
  2904                           ;mcc_generated_files/examples/i2c_master_example.c: 174:     return I2C_RESTART_READ;
  2905   0013C0  0E02               	movlw	2
  2906   0013C2  0012               	return		;funcret
  2907   0013C4                     __end_of_rdBlkRegCompleteHandler:
  2908                           	callstack 0
  2909                           
  2910 ;; *************** function _wr1RegCompleteHandler *****************
  2911 ;; Defined at:
  2912 ;;		line 156 in file "mcc_generated_files/examples/i2c_master_example.c"
  2913 ;; Parameters:    Size  Location     Type
  2914 ;;  ptr             2    9[COMRAM] PTR void 
  2915 ;;		 -> I2C_ReadDataBlock@bufferBlock(4), I2C_Write2ByteRegister@data(2), I2C_Write1ByteRegister@data(1), I2C_Read2ByteR
      +egister@returnValue(2), 
  2916 ;;		 -> NULL(0), I2C_Read1ByteRegister@returnValue(1), 
  2917 ;; Auto vars:     Size  Location     Type
  2918 ;;		None
  2919 ;; Return value:  Size  Location     Type
  2920 ;;                  1    wreg      enum E363
  2921 ;; Registers used:
  2922 ;;		wreg, fsr2l, fsr2h, status,2, status,0, prodl, prodh, cstack
  2923 ;; Tracked objects:
  2924 ;;		On entry : 0/0
  2925 ;;		On exit  : 0/0
  2926 ;;		Unchanged: 0/0
  2927 ;; Data sizes:     COMRAM   BANK0   BANK1   BANK2   BANK3   BANK4   BANK5   BANK6   BANK7   BANK8   BANK9  BANK10  BANK1
      +1  BANK12  BANK13  BANK14  BANK15
  2928 ;;      Params:         2       0       0       0       0       0       0       0       0       0       0       0       
      +0       0       0       0       0
  2929 ;;      Locals:         0       0       0       0       0       0       0       0       0       0       0       0       
      +0       0       0       0       0
  2930 ;;      Temps:          0       0       0       0       0       0       0       0       0       0       0       0       
      +0       0       0       0       0
  2931 ;;      Totals:         2       0       0       0       0       0       0       0       0       0       0       0       
      +0       0       0       0       0
  2932 ;;Total ram usage:        2 bytes
  2933 ;; Hardware stack levels used: 1
  2934 ;; Hardware stack levels required when called: 2
  2935 ;; This function calls:
  2936 ;;		_I2C_SetBuffer
  2937 ;;		_I2C_SetDataCompleteCallback
  2938 ;; This function is called by:
  2939 ;;		_I2C_Write1ByteRegister
  2940 ;;		_I2C_DO_TX
  2941 ;;		_I2C_DO_RX
  2942 ;;		_I2C_DO_TX_EMPTY
  2943 ;;		_I2C_DO_ADDRESS_NACK
  2944 ;;		_I2C_DO_RX_EMPTY
  2945 ;; This function uses a non-reentrant model
  2946 ;;
  2947                           
  2948                           	psect	text41
  2949   0013F4                     __ptext41:
  2950                           	callstack 0
  2951   0013F4                     _wr1RegCompleteHandler:
  2952                           	callstack 21
  2953   0013F4                     
  2954                           ;mcc_generated_files/examples/i2c_master_example.c: 156: static i2c_operations_t wr1RegC
      +                          ompleteHandler(void *ptr);mcc_generated_files/examples/i2c_master_example.c: 157: {;mcc_
      +                          generated_files/examples/i2c_master_example.c: 158:     I2C_SetBuffer(ptr,1);
  2955   0013F4  C03F  F036         	movff	wr1RegCompleteHandler@ptr,I2C_SetBuffer@buffer
  2956   0013F8  C040  F037         	movff	wr1RegCompleteHandler@ptr+1,I2C_SetBuffer@buffer+1
  2957   0013FC  0E00               	movlw	0
  2958   0013FE  6E39               	movwf	(I2C_SetBuffer@bufferSize+1)^0,c
  2959   001400  0E01               	movlw	1
  2960   001402  6E38               	movwf	I2C_SetBuffer@bufferSize^0,c
  2961   001404  EC63  F00A         	call	_I2C_SetBuffer	;wreg free
  2962   001408                     
  2963                           ;mcc_generated_files/examples/i2c_master_example.c: 159:     I2C_SetDataCompleteCallback
      +                          (((void*)0),((void*)0));
  2964   001408  0E00               	movlw	0
  2965   00140A  6E3B               	movwf	I2C_SetDataCompleteCallback@cb^0,c
  2966   00140C  0E00               	movlw	0
  2967   00140E  6E3C               	movwf	(I2C_SetDataCompleteCallback@cb+1)^0,c
  2968   001410  0E00               	movlw	0
  2969   001412  6E3D               	movwf	I2C_SetDataCompleteCallback@ptr^0,c
  2970   001414  0E00               	movlw	0
  2971   001416  6E3E               	movwf	(I2C_SetDataCompleteCallback@ptr+1)^0,c
  2972   001418  EC80  F00A         	call	_I2C_SetDataCompleteCallback	;wreg free
  2973   00141C                     
  2974                           ;mcc_generated_files/examples/i2c_master_example.c: 160:     return I2C_CONTINUE;
  2975   00141C  0E04               	movlw	4
  2976   00141E  0012               	return		;funcret
  2977   001420                     __end_of_wr1RegCompleteHandler:
  2978                           	callstack 0
  2979                           
  2980 ;; *************** function _rd2RegCompleteHandler *****************
  2981 ;; Defined at:
  2982 ;;		line 149 in file "mcc_generated_files/examples/i2c_master_example.c"
  2983 ;; Parameters:    Size  Location     Type
  2984 ;;  ptr             2    9[COMRAM] PTR void 
  2985 ;;		 -> I2C_ReadDataBlock@bufferBlock(4), I2C_Write2ByteRegister@data(2), I2C_Write1ByteRegister@data(1), I2C_Read2ByteR
      +egister@returnValue(2), 
  2986 ;;		 -> NULL(0), I2C_Read1ByteRegister@returnValue(1), 
  2987 ;; Auto vars:     Size  Location     Type
  2988 ;;		None
  2989 ;; Return value:  Size  Location     Type
  2990 ;;                  1    wreg      enum E363
  2991 ;; Registers used:
  2992 ;;		wreg, fsr2l, fsr2h, status,2, status,0, prodl, prodh, cstack
  2993 ;; Tracked objects:
  2994 ;;		On entry : 0/0
  2995 ;;		On exit  : 0/0
  2996 ;;		Unchanged: 0/0
  2997 ;; Data sizes:     COMRAM   BANK0   BANK1   BANK2   BANK3   BANK4   BANK5   BANK6   BANK7   BANK8   BANK9  BANK10  BANK1
      +1  BANK12  BANK13  BANK14  BANK15
  2998 ;;      Params:         2       0       0       0       0       0       0       0       0       0       0       0       
      +0       0       0       0       0
  2999 ;;      Locals:         0       0       0       0       0       0       0       0       0       0       0       0       
      +0       0       0       0       0
  3000 ;;      Temps:          0       0       0       0       0       0       0       0       0       0       0       0       
      +0       0       0       0       0
  3001 ;;      Totals:         2       0       0       0       0       0       0       0       0       0       0       0       
      +0       0       0       0       0
  3002 ;;Total ram usage:        2 bytes
  3003 ;; Hardware stack levels used: 1
  3004 ;; Hardware stack levels required when called: 2
  3005 ;; This function calls:
  3006 ;;		_I2C_SetBuffer
  3007 ;;		_I2C_SetDataCompleteCallback
  3008 ;; This function is called by:
  3009 ;;		_I2C_Read2ByteRegister
  3010 ;;		_I2C_DO_TX
  3011 ;;		_I2C_DO_RX
  3012 ;;		_I2C_DO_TX_EMPTY
  3013 ;;		_I2C_DO_ADDRESS_NACK
  3014 ;;		_I2C_DO_RX_EMPTY
  3015 ;; This function uses a non-reentrant model
  3016 ;;
  3017                           
  3018                           	psect	text42
  3019   001420                     __ptext42:
  3020                           	callstack 0
  3021   001420                     _rd2RegCompleteHandler:
  3022                           	callstack 21
  3023   001420                     
  3024                           ;mcc_generated_files/examples/i2c_master_example.c: 149: static i2c_operations_t rd2RegC
      +                          ompleteHandler(void *ptr);mcc_generated_files/examples/i2c_master_example.c: 150: {;mcc_
      +                          generated_files/examples/i2c_master_example.c: 151:     I2C_SetBuffer(ptr,2);
  3025   001420  C03F  F036         	movff	rd2RegCompleteHandler@ptr,I2C_SetBuffer@buffer
  3026   001424  C040  F037         	movff	rd2RegCompleteHandler@ptr+1,I2C_SetBuffer@buffer+1
  3027   001428  0E00               	movlw	0
  3028   00142A  6E39               	movwf	(I2C_SetBuffer@bufferSize+1)^0,c
  3029   00142C  0E02               	movlw	2
  3030   00142E  6E38               	movwf	I2C_SetBuffer@bufferSize^0,c
  3031   001430  EC63  F00A         	call	_I2C_SetBuffer	;wreg free
  3032   001434                     
  3033                           ;mcc_generated_files/examples/i2c_master_example.c: 152:     I2C_SetDataCompleteCallback
      +                          (((void*)0),((void*)0));
  3034   001434  0E00               	movlw	0
  3035   001436  6E3B               	movwf	I2C_SetDataCompleteCallback@cb^0,c
  3036   001438  0E00               	movlw	0
  3037   00143A  6E3C               	movwf	(I2C_SetDataCompleteCallback@cb+1)^0,c
  3038   00143C  0E00               	movlw	0
  3039   00143E  6E3D               	movwf	I2C_SetDataCompleteCallback@ptr^0,c
  3040   001440  0E00               	movlw	0
  3041   001442  6E3E               	movwf	(I2C_SetDataCompleteCallback@ptr+1)^0,c
  3042   001444  EC80  F00A         	call	_I2C_SetDataCompleteCallback	;wreg free
  3043   001448                     
  3044                           ;mcc_generated_files/examples/i2c_master_example.c: 153:     return I2C_RESTART_READ;
  3045   001448  0E02               	movlw	2
  3046   00144A  0012               	return		;funcret
  3047   00144C                     __end_of_rd2RegCompleteHandler:
  3048                           	callstack 0
  3049                           
  3050 ;; *************** function _rd1RegCompleteHandler *****************
  3051 ;; Defined at:
  3052 ;;		line 142 in file "mcc_generated_files/examples/i2c_master_example.c"
  3053 ;; Parameters:    Size  Location     Type
  3054 ;;  ptr             2    9[COMRAM] PTR void 
  3055 ;;		 -> I2C_ReadDataBlock@bufferBlock(4), I2C_Write2ByteRegister@data(2), I2C_Write1ByteRegister@data(1), I2C_Read2ByteR
      +egister@returnValue(2), 
  3056 ;;		 -> NULL(0), I2C_Read1ByteRegister@returnValue(1), 
  3057 ;; Auto vars:     Size  Location     Type
  3058 ;;		None
  3059 ;; Return value:  Size  Location     Type
  3060 ;;                  1    wreg      enum E363
  3061 ;; Registers used:
  3062 ;;		wreg, fsr2l, fsr2h, status,2, status,0, prodl, prodh, cstack
  3063 ;; Tracked objects:
  3064 ;;		On entry : 0/0
  3065 ;;		On exit  : 0/0
  3066 ;;		Unchanged: 0/0
  3067 ;; Data sizes:     COMRAM   BANK0   BANK1   BANK2   BANK3   BANK4   BANK5   BANK6   BANK7   BANK8   BANK9  BANK10  BANK1
      +1  BANK12  BANK13  BANK14  BANK15
  3068 ;;      Params:         2       0       0       0       0       0       0       0       0       0       0       0       
      +0       0       0       0       0
  3069 ;;      Locals:         0       0       0       0       0       0       0       0       0       0       0       0       
      +0       0       0       0       0
  3070 ;;      Temps:          0       0       0       0       0       0       0       0       0       0       0       0       
      +0       0       0       0       0
  3071 ;;      Totals:         2       0       0       0       0       0       0       0       0       0       0       0       
      +0       0       0       0       0
  3072 ;;Total ram usage:        2 bytes
  3073 ;; Hardware stack levels used: 1
  3074 ;; Hardware stack levels required when called: 2
  3075 ;; This function calls:
  3076 ;;		_I2C_SetBuffer
  3077 ;;		_I2C_SetDataCompleteCallback
  3078 ;; This function is called by:
  3079 ;;		_I2C_Read1ByteRegister
  3080 ;;		_I2C_DO_TX
  3081 ;;		_I2C_DO_RX
  3082 ;;		_I2C_DO_TX_EMPTY
  3083 ;;		_I2C_DO_ADDRESS_NACK
  3084 ;;		_I2C_DO_RX_EMPTY
  3085 ;; This function uses a non-reentrant model
  3086 ;;
  3087                           
  3088                           	psect	text43
  3089   00144C                     __ptext43:
  3090                           	callstack 0
  3091   00144C                     _rd1RegCompleteHandler:
  3092                           	callstack 21
  3093   00144C                     
  3094                           ;mcc_generated_files/examples/i2c_master_example.c: 142: static i2c_operations_t rd1RegC
      +                          ompleteHandler(void *ptr);mcc_generated_files/examples/i2c_master_example.c: 143: {;mcc_
      +                          generated_files/examples/i2c_master_example.c: 144:     I2C_SetBuffer(ptr,1);
  3095   00144C  C03F  F036         	movff	rd1RegCompleteHandler@ptr,I2C_SetBuffer@buffer
  3096   001450  C040  F037         	movff	rd1RegCompleteHandler@ptr+1,I2C_SetBuffer@buffer+1
  3097   001454  0E00               	movlw	0
  3098   001456  6E39               	movwf	(I2C_SetBuffer@bufferSize+1)^0,c
  3099   001458  0E01               	movlw	1
  3100   00145A  6E38               	movwf	I2C_SetBuffer@bufferSize^0,c
  3101   00145C  EC63  F00A         	call	_I2C_SetBuffer	;wreg free
  3102   001460                     
  3103                           ;mcc_generated_files/examples/i2c_master_example.c: 145:     I2C_SetDataCompleteCallback
      +                          (((void*)0),((void*)0));
  3104   001460  0E00               	movlw	0
  3105   001462  6E3B               	movwf	I2C_SetDataCompleteCallback@cb^0,c
  3106   001464  0E00               	movlw	0
  3107   001466  6E3C               	movwf	(I2C_SetDataCompleteCallback@cb+1)^0,c
  3108   001468  0E00               	movlw	0
  3109   00146A  6E3D               	movwf	I2C_SetDataCompleteCallback@ptr^0,c
  3110   00146C  0E00               	movlw	0
  3111   00146E  6E3E               	movwf	(I2C_SetDataCompleteCallback@ptr+1)^0,c
  3112   001470  EC80  F00A         	call	_I2C_SetDataCompleteCallback	;wreg free
  3113   001474                     
  3114                           ;mcc_generated_files/examples/i2c_master_example.c: 146:     return I2C_RESTART_READ;
  3115   001474  0E02               	movlw	2
  3116   001476  0012               	return		;funcret
  3117   001478                     __end_of_rd1RegCompleteHandler:
  3118                           	callstack 0
  3119                           
  3120 ;; *************** function _wr2RegCompleteHandler *****************
  3121 ;; Defined at:
  3122 ;;		line 163 in file "mcc_generated_files/examples/i2c_master_example.c"
  3123 ;; Parameters:    Size  Location     Type
  3124 ;;  ptr             2    9[COMRAM] PTR void 
  3125 ;;		 -> I2C_ReadDataBlock@bufferBlock(4), I2C_Write2ByteRegister@data(2), I2C_Write1ByteRegister@data(1), I2C_Read2ByteR
      +egister@returnValue(2), 
  3126 ;;		 -> NULL(0), I2C_Read1ByteRegister@returnValue(1), 
  3127 ;; Auto vars:     Size  Location     Type
  3128 ;;		None
  3129 ;; Return value:  Size  Location     Type
  3130 ;;                  1    wreg      enum E363
  3131 ;; Registers used:
  3132 ;;		wreg, fsr2l, fsr2h, status,2, status,0, prodl, prodh, cstack
  3133 ;; Tracked objects:
  3134 ;;		On entry : 0/0
  3135 ;;		On exit  : 0/0
  3136 ;;		Unchanged: 0/0
  3137 ;; Data sizes:     COMRAM   BANK0   BANK1   BANK2   BANK3   BANK4   BANK5   BANK6   BANK7   BANK8   BANK9  BANK10  BANK1
      +1  BANK12  BANK13  BANK14  BANK15
  3138 ;;      Params:         2       0       0       0       0       0       0       0       0       0       0       0       
      +0       0       0       0       0
  3139 ;;      Locals:         0       0       0       0       0       0       0       0       0       0       0       0       
      +0       0       0       0       0
  3140 ;;      Temps:          0       0       0       0       0       0       0       0       0       0       0       0       
      +0       0       0       0       0
  3141 ;;      Totals:         2       0       0       0       0       0       0       0       0       0       0       0       
      +0       0       0       0       0
  3142 ;;Total ram usage:        2 bytes
  3143 ;; Hardware stack levels used: 1
  3144 ;; Hardware stack levels required when called: 2
  3145 ;; This function calls:
  3146 ;;		_I2C_SetBuffer
  3147 ;;		_I2C_SetDataCompleteCallback
  3148 ;; This function is called by:
  3149 ;;		_I2C_Write2ByteRegister
  3150 ;;		_I2C_DO_TX
  3151 ;;		_I2C_DO_RX
  3152 ;;		_I2C_DO_TX_EMPTY
  3153 ;;		_I2C_DO_ADDRESS_NACK
  3154 ;;		_I2C_DO_RX_EMPTY
  3155 ;; This function uses a non-reentrant model
  3156 ;;
  3157                           
  3158                           	psect	text44
  3159   001478                     __ptext44:
  3160                           	callstack 0
  3161   001478                     _wr2RegCompleteHandler:
  3162                           	callstack 21
  3163   001478                     
  3164                           ;mcc_generated_files/examples/i2c_master_example.c: 163: static i2c_operations_t wr2RegC
      +                          ompleteHandler(void *ptr);mcc_generated_files/examples/i2c_master_example.c: 164: {;mcc_
      +                          generated_files/examples/i2c_master_example.c: 165:     I2C_SetBuffer(ptr,2);
  3165   001478  C03F  F036         	movff	wr2RegCompleteHandler@ptr,I2C_SetBuffer@buffer
  3166   00147C  C040  F037         	movff	wr2RegCompleteHandler@ptr+1,I2C_SetBuffer@buffer+1
  3167   001480  0E00               	movlw	0
  3168   001482  6E39               	movwf	(I2C_SetBuffer@bufferSize+1)^0,c
  3169   001484  0E02               	movlw	2
  3170   001486  6E38               	movwf	I2C_SetBuffer@bufferSize^0,c
  3171   001488  EC63  F00A         	call	_I2C_SetBuffer	;wreg free
  3172   00148C                     
  3173                           ;mcc_generated_files/examples/i2c_master_example.c: 166:     I2C_SetDataCompleteCallback
      +                          (((void*)0),((void*)0));
  3174   00148C  0E00               	movlw	0
  3175   00148E  6E3B               	movwf	I2C_SetDataCompleteCallback@cb^0,c
  3176   001490  0E00               	movlw	0
  3177   001492  6E3C               	movwf	(I2C_SetDataCompleteCallback@cb+1)^0,c
  3178   001494  0E00               	movlw	0
  3179   001496  6E3D               	movwf	I2C_SetDataCompleteCallback@ptr^0,c
  3180   001498  0E00               	movlw	0
  3181   00149A  6E3E               	movwf	(I2C_SetDataCompleteCallback@ptr+1)^0,c
  3182   00149C  EC80  F00A         	call	_I2C_SetDataCompleteCallback	;wreg free
  3183   0014A0                     
  3184                           ;mcc_generated_files/examples/i2c_master_example.c: 167:     return I2C_CONTINUE;
  3185   0014A0  0E04               	movlw	4
  3186   0014A2  0012               	return		;funcret
  3187   0014A4                     __end_of_wr2RegCompleteHandler:
  3188                           	callstack 0
  3189                           
  3190 ;; *************** function _I2C_SetDataCompleteCallback *****************
  3191 ;; Defined at:
  3192 ;;		line 274 in file "mcc_generated_files/i2c_master.c"
  3193 ;; Parameters:    Size  Location     Type
  3194 ;;  cb              2    5[COMRAM] PTR FTN(PTR void ,)enum 
  3195 ;;		 -> NULL(1), rdBlkRegCompleteHandler(1), wr2RegCompleteHandler(1), wr1RegCompleteHandler(1), 
  3196 ;;		 -> rd2RegCompleteHandler(1), rd1RegCompleteHandler(1), 
  3197 ;;  ptr             2    7[COMRAM] PTR void 
  3198 ;;		 -> I2C_ReadDataBlock@bufferBlock(4), I2C_Write2ByteRegister@data(2), I2C_Write1ByteRegister@data(1), I2C_Read2ByteR
      +egister@returnValue(2), 
  3199 ;;		 -> NULL(0), I2C_Read1ByteRegister@returnValue(1), 
  3200 ;; Auto vars:     Size  Location     Type
  3201 ;;		None
  3202 ;; Return value:  Size  Location     Type
  3203 ;;                  1    wreg      void 
  3204 ;; Registers used:
  3205 ;;		wreg, fsr2l, fsr2h, status,2, status,0, prodl, prodh, cstack
  3206 ;; Tracked objects:
  3207 ;;		On entry : 0/0
  3208 ;;		On exit  : 0/0
  3209 ;;		Unchanged: 0/0
  3210 ;; Data sizes:     COMRAM   BANK0   BANK1   BANK2   BANK3   BANK4   BANK5   BANK6   BANK7   BANK8   BANK9  BANK10  BANK1
      +1  BANK12  BANK13  BANK14  BANK15
  3211 ;;      Params:         4       0       0       0       0       0       0       0       0       0       0       0       
      +0       0       0       0       0
  3212 ;;      Locals:         0       0       0       0       0       0       0       0       0       0       0       0       
      +0       0       0       0       0
  3213 ;;      Temps:          0       0       0       0       0       0       0       0       0       0       0       0       
      +0       0       0       0       0
  3214 ;;      Totals:         4       0       0       0       0       0       0       0       0       0       0       0       
      +0       0       0       0       0
  3215 ;;Total ram usage:        4 bytes
  3216 ;; Hardware stack levels used: 1
  3217 ;; Hardware stack levels required when called: 1
  3218 ;; This function calls:
  3219 ;;		_I2C_SetCallback
  3220 ;; This function is called by:
  3221 ;;		_rd1RegCompleteHandler
  3222 ;;		_rd2RegCompleteHandler
  3223 ;;		_wr1RegCompleteHandler
  3224 ;;		_wr2RegCompleteHandler
  3225 ;;		_rdBlkRegCompleteHandler
  3226 ;;		_I2C_Read1ByteRegister
  3227 ;;		_I2C_Read2ByteRegister
  3228 ;;		_I2C_Write1ByteRegister
  3229 ;;		_I2C_Write2ByteRegister
  3230 ;;		_I2C_ReadDataBlock
  3231 ;; This function uses a non-reentrant model
  3232 ;;
  3233                           
  3234                           	psect	text45
  3235   001500                     __ptext45:
  3236                           	callstack 0
  3237   001500                     _I2C_SetDataCompleteCallback:
  3238                           	callstack 21
  3239   001500                     
  3240                           ;mcc_generated_files/i2c_master.c: 274: void I2C_SetDataCompleteCallback(i2c_callback_t 
      +                          cb, void *ptr);mcc_generated_files/i2c_master.c: 275: {;mcc_generated_files/i2c_master.c
      +                          : 276:     I2C_SetCallback(I2C_DATA_COMPLETE, cb, ptr);
  3241   001500  C03B  F036         	movff	I2C_SetDataCompleteCallback@cb,I2C_SetCallback@cb
  3242   001504  C03C  F037         	movff	I2C_SetDataCompleteCallback@cb+1,I2C_SetCallback@cb+1
  3243   001508  C03D  F038         	movff	I2C_SetDataCompleteCallback@ptr,I2C_SetCallback@ptr
  3244   00150C  C03E  F039         	movff	I2C_SetDataCompleteCallback@ptr+1,I2C_SetCallback@ptr+1
  3245   001510  0E00               	movlw	0
  3246   001512  ECFF  F008         	call	_I2C_SetCallback
  3247   001516  0012               	return		;funcret
  3248   001518                     __end_of_I2C_SetDataCompleteCallback:
  3249                           	callstack 0
  3250                           
  3251 ;; *************** function _I2C_SetCallback *****************
  3252 ;; Defined at:
  3253 ;;		line 304 in file "mcc_generated_files/i2c_master.c"
  3254 ;; Parameters:    Size  Location     Type
  3255 ;;  idx             1    wreg     enum E3139
  3256 ;;  cb              2    0[COMRAM] PTR FTN(PTR void ,)enum 
  3257 ;;		 -> NULL(1), rdBlkRegCompleteHandler(1), wr2RegCompleteHandler(1), wr1RegCompleteHandler(1), 
  3258 ;;		 -> rd2RegCompleteHandler(1), rd1RegCompleteHandler(1), 
  3259 ;;  ptr             2    2[COMRAM] PTR void 
  3260 ;;		 -> I2C_ReadDataBlock@bufferBlock(4), I2C_Write2ByteRegister@data(2), I2C_Write1ByteRegister@data(1), I2C_Read2ByteR
      +egister@returnValue(2), 
  3261 ;;		 -> NULL(0), I2C_Read1ByteRegister@returnValue(1), 
  3262 ;; Auto vars:     Size  Location     Type
  3263 ;;  idx             1    4[COMRAM] enum E3139
  3264 ;; Return value:  Size  Location     Type
  3265 ;;                  1    wreg      void 
  3266 ;; Registers used:
  3267 ;;		wreg, fsr2l, fsr2h, status,2, status,0, prodl, prodh
  3268 ;; Tracked objects:
  3269 ;;		On entry : 0/0
  3270 ;;		On exit  : 0/0
  3271 ;;		Unchanged: 0/0
  3272 ;; Data sizes:     COMRAM   BANK0   BANK1   BANK2   BANK3   BANK4   BANK5   BANK6   BANK7   BANK8   BANK9  BANK10  BANK1
      +1  BANK12  BANK13  BANK14  BANK15
  3273 ;;      Params:         4       0       0       0       0       0       0       0       0       0       0       0       
      +0       0       0       0       0
  3274 ;;      Locals:         1       0       0       0       0       0       0       0       0       0       0       0       
      +0       0       0       0       0
  3275 ;;      Temps:          0       0       0       0       0       0       0       0       0       0       0       0       
      +0       0       0       0       0
  3276 ;;      Totals:         5       0       0       0       0       0       0       0       0       0       0       0       
      +0       0       0       0       0
  3277 ;;Total ram usage:        5 bytes
  3278 ;; Hardware stack levels used: 1
  3279 ;; This function calls:
  3280 ;;		Nothing
  3281 ;; This function is called by:
  3282 ;;		_I2C_SetDataCompleteCallback
  3283 ;;		_I2C_SetWriteCollisionCallback
  3284 ;;		_I2C_SetAddressNackCallback
  3285 ;;		_I2C_SetDataNackCallback
  3286 ;;		_I2C_SetTimeoutCallback
  3287 ;; This function uses a non-reentrant model
  3288 ;;
  3289                           
  3290                           	psect	text46
  3291   0011FE                     __ptext46:
  3292                           	callstack 0
  3293   0011FE                     _I2C_SetCallback:
  3294                           	callstack 21
  3295                           
  3296                           ;incstack = 0
  3297                           ;I2C_SetCallback@idx stored from wreg
  3298   0011FE  6E3A               	movwf	I2C_SetCallback@idx^0,c
  3299   001200                     
  3300                           ;mcc_generated_files/i2c_master.c: 304: static void I2C_SetCallback(i2c_callbackIndex_t 
      +                          idx, i2c_callback_t cb, void *ptr);mcc_generated_files/i2c_master.c: 305: {;mcc_generate
      +                          d_files/i2c_master.c: 306:     if(cb)
  3301   001200  5036               	movf	I2C_SetCallback@cb^0,w,c
  3302   001202  1037               	iorwf	(I2C_SetCallback@cb+1)^0,w,c
  3303   001204  B4D8               	btfsc	status,2,c
  3304   001206  EF07  F009         	goto	i2u61_41
  3305   00120A  EF09  F009         	goto	i2u61_40
  3306   00120E                     i2u61_41:
  3307   00120E  EF23  F009         	goto	i2l2264
  3308   001212                     i2u61_40:
  3309   001212                     
  3310                           ;mcc_generated_files/i2c_master.c: 307:     {;mcc_generated_files/i2c_master.c: 308:    
      +                               I2C_Status.callbackTable[idx] = cb;
  3311   001212  503A               	movf	I2C_SetCallback@idx^0,w,c
  3312   001214  0D02               	mullw	2
  3313   001216  0E01               	movlw	low _I2C_Status
  3314   001218  24F3               	addwf	243,w,c
  3315   00121A  6ED9               	movwf	fsr2l,c
  3316   00121C  0E00               	movlw	high _I2C_Status
  3317   00121E  20F4               	addwfc	prodh,w,c
  3318   001220  6EDA               	movwf	fsr2h,c
  3319   001222  C036  FFDE         	movff	I2C_SetCallback@cb,postinc2
  3320   001226  C037  FFDD         	movff	I2C_SetCallback@cb+1,postdec2
  3321                           
  3322                           ;mcc_generated_files/i2c_master.c: 309:         I2C_Status.callbackPayload[idx] = ptr;
  3323   00122A  503A               	movf	I2C_SetCallback@idx^0,w,c
  3324   00122C  0D02               	mullw	2
  3325   00122E  0E0D               	movlw	low (_I2C_Status+12)
  3326   001230  24F3               	addwf	243,w,c
  3327   001232  6ED9               	movwf	fsr2l,c
  3328   001234  0E00               	movlw	high (_I2C_Status+12)
  3329   001236  20F4               	addwfc	prodh,w,c
  3330   001238  6EDA               	movwf	fsr2h,c
  3331   00123A  C038  FFDE         	movff	I2C_SetCallback@ptr,postinc2
  3332   00123E  C039  FFDD         	movff	I2C_SetCallback@ptr+1,postdec2
  3333                           
  3334                           ;mcc_generated_files/i2c_master.c: 310:     }
  3335   001242  EF39  F009         	goto	i2l502
  3336   001246                     i2l2264:
  3337                           
  3338                           ;mcc_generated_files/i2c_master.c: 312:     {;mcc_generated_files/i2c_master.c: 313:    
      +                               I2C_Status.callbackTable[idx] = I2C_CallbackReturnStop;
  3339   001246  503A               	movf	I2C_SetCallback@idx^0,w,c
  3340   001248  0D02               	mullw	2
  3341   00124A  0E01               	movlw	low _I2C_Status
  3342   00124C  24F3               	addwf	243,w,c
  3343   00124E  6ED9               	movwf	fsr2l,c
  3344   001250  0E00               	movlw	high _I2C_Status
  3345   001252  20F4               	addwfc	prodh,w,c
  3346   001254  6EDA               	movwf	fsr2h,c
  3347   001256  0E38               	movlw	low _I2C_CallbackReturnStop
  3348   001258  6EDE               	movwf	postinc2,c
  3349   00125A  0E16               	movlw	high _I2C_CallbackReturnStop
  3350   00125C  6EDD               	movwf	postdec2,c
  3351                           
  3352                           ;mcc_generated_files/i2c_master.c: 314:         I2C_Status.callbackPayload[idx] = ((void
      +                          *)0);
  3353   00125E  503A               	movf	I2C_SetCallback@idx^0,w,c
  3354   001260  0D02               	mullw	2
  3355   001262  0E0D               	movlw	low (_I2C_Status+12)
  3356   001264  24F3               	addwf	243,w,c
  3357   001266  6ED9               	movwf	fsr2l,c
  3358   001268  0E00               	movlw	high (_I2C_Status+12)
  3359   00126A  20F4               	addwfc	prodh,w,c
  3360   00126C  6EDA               	movwf	fsr2h,c
  3361   00126E  6ADE               	clrf	postinc2,c
  3362   001270  6ADD               	clrf	postdec2,c
  3363   001272                     i2l502:
  3364   001272  0012               	return		;funcret
  3365   001274                     __end_of_I2C_SetCallback:
  3366                           	callstack 0
  3367                           
  3368 ;; *************** function _I2C_SetBuffer *****************
  3369 ;; Defined at:
  3370 ;;		line 264 in file "mcc_generated_files/i2c_master.c"
  3371 ;; Parameters:    Size  Location     Type
  3372 ;;  buffer          2    0[COMRAM] PTR void 
  3373 ;;		 -> I2C_Read1ByteRegister@returnValue.data(3), I2C_Read2ByteRegister@returnValue.data(3), I2C_Write1ByteRegister@dat
      +a.data(3), I2C_Write2ByteRegister@data.data(3), 
  3374 ;;		 -> I2C_ReadDataBlock@reg(1), I2C_ReadDataBlock@bufferBlock(4), bufferBlock.data(3), I2C_Write2ByteRegister@reg(1), 
  3375 ;;		 -> I2C_Write2ByteRegister@data(2), I2C_Write1ByteRegister@reg(1), I2C_Write1ByteRegister@data(1), I2C_Read2ByteRegi
      +ster@reg(1), 
  3376 ;;		 -> I2C_Read2ByteRegister@returnValue(2), NULL(0), I2C_Read1ByteRegister@reg(1), I2C_Read1ByteRegister@returnValue(1
      +), 
  3377 ;;  bufferSize      2    2[COMRAM] unsigned int 
  3378 ;; Auto vars:     Size  Location     Type
  3379 ;;		None
  3380 ;; Return value:  Size  Location     Type
  3381 ;;                  1    wreg      void 
  3382 ;; Registers used:
  3383 ;;		wreg, status,2, status,0
  3384 ;; Tracked objects:
  3385 ;;		On entry : 0/0
  3386 ;;		On exit  : 0/0
  3387 ;;		Unchanged: 0/0
  3388 ;; Data sizes:     COMRAM   BANK0   BANK1   BANK2   BANK3   BANK4   BANK5   BANK6   BANK7   BANK8   BANK9  BANK10  BANK1
      +1  BANK12  BANK13  BANK14  BANK15
  3389 ;;      Params:         4       0       0       0       0       0       0       0       0       0       0       0       
      +0       0       0       0       0
  3390 ;;      Locals:         0       0       0       0       0       0       0       0       0       0       0       0       
      +0       0       0       0       0
  3391 ;;      Temps:          0       0       0       0       0       0       0       0       0       0       0       0       
      +0       0       0       0       0
  3392 ;;      Totals:         4       0       0       0       0       0       0       0       0       0       0       0       
      +0       0       0       0       0
  3393 ;;Total ram usage:        4 bytes
  3394 ;; Hardware stack levels used: 1
  3395 ;; This function calls:
  3396 ;;		Nothing
  3397 ;; This function is called by:
  3398 ;;		_rd1RegCompleteHandler
  3399 ;;		_rd2RegCompleteHandler
  3400 ;;		_wr1RegCompleteHandler
  3401 ;;		_wr2RegCompleteHandler
  3402 ;;		_rdBlkRegCompleteHandler
  3403 ;;		_I2C_Read1ByteRegister
  3404 ;;		_I2C_Read2ByteRegister
  3405 ;;		_I2C_Write1ByteRegister
  3406 ;;		_I2C_Write2ByteRegister
  3407 ;;		_I2C_WriteNBytes
  3408 ;;		_I2C_ReadNBytes
  3409 ;;		_I2C_ReadDataBlock
  3410 ;; This function uses a non-reentrant model
  3411 ;;
  3412                           
  3413                           	psect	text47
  3414   0014C6                     __ptext47:
  3415                           	callstack 0
  3416   0014C6                     _I2C_SetBuffer:
  3417                           	callstack 22
  3418   0014C6                     
  3419                           ;mcc_generated_files/i2c_master.c: 264: void I2C_SetBuffer(void *buffer, size_t bufferSi
      +                          ze);mcc_generated_files/i2c_master.c: 265: {;mcc_generated_files/i2c_master.c: 266:     
      +                          if(I2C_Status.bufferFree)
  3420   0014C6  A624               	btfss	(_I2C_Status+35)^0,3,c
  3421   0014C8  EF68  F00A         	goto	i2u62_41
  3422   0014CC  EF6A  F00A         	goto	i2u62_40
  3423   0014D0                     i2u62_41:
  3424   0014D0  EF73  F00A         	goto	i2l479
  3425   0014D4                     i2u62_40:
  3426   0014D4                     
  3427                           ;mcc_generated_files/i2c_master.c: 267:     {;mcc_generated_files/i2c_master.c: 268:    
      +                               I2C_Status.data_ptr = buffer;
  3428   0014D4  C036  F01E         	movff	I2C_SetBuffer@buffer,_I2C_Status+29
  3429   0014D8  C037  F01F         	movff	I2C_SetBuffer@buffer+1,_I2C_Status+30
  3430   0014DC                     
  3431                           ;mcc_generated_files/i2c_master.c: 269:         I2C_Status.data_length = bufferSize;
  3432   0014DC  C038  F020         	movff	I2C_SetBuffer@bufferSize,_I2C_Status+31
  3433   0014E0  C039  F021         	movff	I2C_SetBuffer@bufferSize+1,_I2C_Status+32
  3434   0014E4                     
  3435                           ;mcc_generated_files/i2c_master.c: 270:         I2C_Status.bufferFree = 0;
  3436   0014E4  9624               	bcf	(_I2C_Status+35)^0,3,c
  3437   0014E6                     i2l479:
  3438   0014E6  0012               	return		;funcret
  3439   0014E8                     __end_of_I2C_SetBuffer:
  3440                           	callstack 0
  3441                           
  3442 ;; *************** function _I2C_MasterStop *****************
  3443 ;; Defined at:
  3444 ;;		line 594 in file "mcc_generated_files/i2c_master.c"
  3445 ;; Parameters:    Size  Location     Type
  3446 ;;		None
  3447 ;; Auto vars:     Size  Location     Type
  3448 ;;		None
  3449 ;; Return value:  Size  Location     Type
  3450 ;;                  1    wreg      void 
  3451 ;; Registers used:
  3452 ;;		None
  3453 ;; Tracked objects:
  3454 ;;		On entry : 0/0
  3455 ;;		On exit  : 0/0
  3456 ;;		Unchanged: 0/0
  3457 ;; Data sizes:     COMRAM   BANK0   BANK1   BANK2   BANK3   BANK4   BANK5   BANK6   BANK7   BANK8   BANK9  BANK10  BANK1
      +1  BANK12  BANK13  BANK14  BANK15
  3458 ;;      Params:         0       0       0       0       0       0       0       0       0       0       0       0       
      +0       0       0       0       0
  3459 ;;      Locals:         0       0       0       0       0       0       0       0       0       0       0       0       
      +0       0       0       0       0
  3460 ;;      Temps:          0       0       0       0       0       0       0       0       0       0       0       0       
      +0       0       0       0       0
  3461 ;;      Totals:         0       0       0       0       0       0       0       0       0       0       0       0       
      +0       0       0       0       0
  3462 ;;Total ram usage:        0 bytes
  3463 ;; Hardware stack levels used: 1
  3464 ;; This function calls:
  3465 ;;		Nothing
  3466 ;; This function is called by:
  3467 ;;		_I2C_DO_SEND_STOP
  3468 ;; This function uses a non-reentrant model
  3469 ;;
  3470                           
  3471                           	psect	text48
  3472   00163C                     __ptext48:
  3473                           	callstack 0
  3474   00163C                     _I2C_MasterStop:
  3475                           	callstack 22
  3476   00163C                     
  3477                           ;mcc_generated_files/i2c_master.c: 596:     SSPCON2bits.PEN = 1;
  3478   00163C  84C5               	bsf	197,2,c	;volatile
  3479   00163E  0012               	return		;funcret
  3480   001640                     __end_of_I2C_MasterStop:
  3481                           	callstack 0
  3482                           
  3483 ;; *************** function _I2C_MasterEnableRestart *****************
  3484 ;; Defined at:
  3485 ;;		line 574 in file "mcc_generated_files/i2c_master.c"
  3486 ;; Parameters:    Size  Location     Type
  3487 ;;		None
  3488 ;; Auto vars:     Size  Location     Type
  3489 ;;		None
  3490 ;; Return value:  Size  Location     Type
  3491 ;;                  1    wreg      void 
  3492 ;; Registers used:
  3493 ;;		None
  3494 ;; Tracked objects:
  3495 ;;		On entry : 0/0
  3496 ;;		On exit  : 0/0
  3497 ;;		Unchanged: 0/0
  3498 ;; Data sizes:     COMRAM   BANK0   BANK1   BANK2   BANK3   BANK4   BANK5   BANK6   BANK7   BANK8   BANK9  BANK10  BANK1
      +1  BANK12  BANK13  BANK14  BANK15
  3499 ;;      Params:         0       0       0       0       0       0       0       0       0       0       0       0       
      +0       0       0       0       0
  3500 ;;      Locals:         0       0       0       0       0       0       0       0       0       0       0       0       
      +0       0       0       0       0
  3501 ;;      Temps:          0       0       0       0       0       0       0       0       0       0       0       0       
      +0       0       0       0       0
  3502 ;;      Totals:         0       0       0       0       0       0       0       0       0       0       0       0       
      +0       0       0       0       0
  3503 ;;Total ram usage:        0 bytes
  3504 ;; Hardware stack levels used: 1
  3505 ;; This function calls:
  3506 ;;		Nothing
  3507 ;; This function is called by:
  3508 ;;		_I2C_DO_SEND_RESTART_READ
  3509 ;;		_I2C_DO_SEND_RESTART_WRITE
  3510 ;;		_I2C_DO_SEND_RESTART
  3511 ;;		_I2C_DO_RX_EMPTY
  3512 ;; This function uses a non-reentrant model
  3513 ;;
  3514                           
  3515                           	psect	text49
  3516   001640                     __ptext49:
  3517                           	callstack 0
  3518   001640                     _I2C_MasterEnableRestart:
  3519                           	callstack 22
  3520   001640                     
  3521                           ;mcc_generated_files/i2c_master.c: 576:     SSPCON2bits.RSEN = 1;
  3522   001640  82C5               	bsf	197,1,c	;volatile
  3523   001642  0012               	return		;funcret
  3524   001644                     __end_of_I2C_MasterEnableRestart:
  3525                           	callstack 0
  3526                           
  3527                           	psect	text50
  3528   000000                     __ptext50:
  3529                           	callstack 0
  3530   000000                     
  3531                           	psect	rparam
  3532   000000                     
  3533                           	psect	temp
  3534   000055                     btemp:
  3535                           	callstack 0
  3536   000055                     	ds	1
  3537   000000                     int$flags	set	btemp
  3538   000000                     wtemp8	set	btemp+1
  3539   000000                     ttemp5	set	btemp+1
  3540   000000                     ttemp6	set	btemp+4
  3541   000000                     ttemp7	set	btemp+8
  3542                           
  3543                           	psect	idloc
  3544                           
  3545                           ;Config register IDLOC0 @ 0x200000
  3546                           ;	unspecified, using default values
  3547   200000                     	org	2097152
  3548   200000  FF                 	db	255
  3549                           
  3550                           ;Config register IDLOC1 @ 0x200001
  3551                           ;	unspecified, using default values
  3552   200001                     	org	2097153
  3553   200001  FF                 	db	255
  3554                           
  3555                           ;Config register IDLOC2 @ 0x200002
  3556                           ;	unspecified, using default values
  3557   200002                     	org	2097154
  3558   200002  FF                 	db	255
  3559                           
  3560                           ;Config register IDLOC3 @ 0x200003
  3561                           ;	unspecified, using default values
  3562   200003                     	org	2097155
  3563   200003  FF                 	db	255
  3564                           
  3565                           ;Config register IDLOC4 @ 0x200004
  3566                           ;	unspecified, using default values
  3567   200004                     	org	2097156
  3568   200004  FF                 	db	255
  3569                           
  3570                           ;Config register IDLOC5 @ 0x200005
  3571                           ;	unspecified, using default values
  3572   200005                     	org	2097157
  3573   200005  FF                 	db	255
  3574                           
  3575                           ;Config register IDLOC6 @ 0x200006
  3576                           ;	unspecified, using default values
  3577   200006                     	org	2097158
  3578   200006  FF                 	db	255
  3579                           
  3580                           ;Config register IDLOC7 @ 0x200007
  3581                           ;	unspecified, using default values
  3582   200007                     	org	2097159
  3583   200007  FF                 	db	255
  3584                           
  3585                           	psect	config
  3586                           
  3587                           ; Padding undefined space
  3588   300000                     	org	3145728
  3589   300000  FF                 	db	255
  3590                           
  3591                           ;Config register CONFIG1H @ 0x300001
  3592                           ;	Oscillator Selection bits
  3593                           ;	FOSC = HS, HS oscillator
  3594                           ;	Fail-Safe Clock Monitor Enable bit
  3595                           ;	FCMEN = OFF, Fail-Safe Clock Monitor disabled
  3596                           ;	Internal/External Oscillator Switchover bit
  3597                           ;	IESO = OFF, Oscillator Switchover mode disabled
  3598   300001                     	org	3145729
  3599   300001  02                 	db	2
  3600                           
  3601                           ;Config register CONFIG2L @ 0x300002
  3602                           ;	Power-up Timer Enable bit
  3603                           ;	PWRTEN = OFF, PWRT disabled
  3604                           ;	Brown-out Reset Enable bits
  3605                           ;	BOREN = SBORDIS, Brown-out Reset enabled in hardware only (SBOREN is disabled)
  3606                           ;	Brown Out Reset Voltage bits
  3607                           ;	BORV = 18, VBOR set to 1.8 V nominal
  3608   300002                     	org	3145730
  3609   300002  1F                 	db	31
  3610                           
  3611                           ;Config register CONFIG2H @ 0x300003
  3612                           ;	Watchdog Timer Enable bit
  3613                           ;	WDTEN = OFF, WDT is controlled by SWDTEN bit of the WDTCON register
  3614                           ;	Watchdog Timer Postscale Select bits
  3615                           ;	WDTPS = 32768, 1:32768
  3616   300003                     	org	3145731
  3617   300003  1E                 	db	30
  3618                           
  3619                           ; Padding undefined space
  3620   300004                     	org	3145732
  3621   300004  FF                 	db	255
  3622                           
  3623                           ;Config register CONFIG3H @ 0x300005
  3624                           ;	CCP2 MUX bit
  3625                           ;	CCP2MX = PORTC, CCP2 input/output is multiplexed with RC1
  3626                           ;	PORTB A/D Enable bit
  3627                           ;	PBADEN = ON, PORTB<4:0> pins are configured as analog input channels on Reset
  3628                           ;	Low-Power Timer1 Oscillator Enable bit
  3629                           ;	LPT1OSC = OFF, Timer1 configured for higher power operation
  3630                           ;	HFINTOSC Fast Start-up
  3631                           ;	HFOFST = ON, HFINTOSC starts clocking the CPU without waiting for the oscillator to st
      +                          ablize.
  3632                           ;	MCLR Pin Enable bit
  3633                           ;	MCLRE = ON, MCLR pin enabled; RE3 input pin disabled
  3634   300005                     	org	3145733
  3635   300005  8B                 	db	139
  3636                           
  3637                           ;Config register CONFIG4L @ 0x300006
  3638                           ;	Stack Full/Underflow Reset Enable bit
  3639                           ;	STVREN = ON, Stack full/underflow will cause Reset
  3640                           ;	Single-Supply ICSP Enable bit
  3641                           ;	LVP = ON, Single-Supply ICSP enabled
  3642                           ;	Extended Instruction Set Enable bit
  3643                           ;	XINST = OFF, Instruction set extension and Indexed Addressing mode disabled (Legacy mo
      +                          de)
  3644                           ;	Background Debugger Enable bit
  3645                           ;	DEBUG = OFF, Background debugger disabled, RB6 and RB7 configured as general purpose I
      +                          /O pins
  3646   300006                     	org	3145734
  3647   300006  85                 	db	133
  3648                           
  3649                           ; Padding undefined space
  3650   300007                     	org	3145735
  3651   300007  FF                 	db	255
  3652                           
  3653                           ;Config register CONFIG5L @ 0x300008
  3654                           ;	Code Protection Block 0
  3655                           ;	CP0 = OFF, Block 0 (000800-003FFFh) not code-protected
  3656                           ;	Code Protection Block 1
  3657                           ;	CP1 = OFF, Block 1 (004000-007FFFh) not code-protected
  3658                           ;	Code Protection Block 2
  3659                           ;	CP2 = OFF, Block 2 (008000-00BFFFh) not code-protected
  3660                           ;	Code Protection Block 3
  3661                           ;	CP3 = OFF, Block 3 (00C000-00FFFFh) not code-protected
  3662   300008                     	org	3145736
  3663   300008  0F                 	db	15
  3664                           
  3665                           ;Config register CONFIG5H @ 0x300009
  3666                           ;	Boot Block Code Protection bit
  3667                           ;	CPB = OFF, Boot block (000000-0007FFh) not code-protected
  3668                           ;	Data EEPROM Code Protection bit
  3669                           ;	CPD = OFF, Data EEPROM not code-protected
  3670   300009                     	org	3145737
  3671   300009  C0                 	db	192
  3672                           
  3673                           ;Config register CONFIG6L @ 0x30000A
  3674                           ;	Write Protection Block 0
  3675                           ;	WRT0 = OFF, Block 0 (000800-003FFFh) not write-protected
  3676                           ;	Write Protection Block 1
  3677                           ;	WRT1 = OFF, Block 1 (004000-007FFFh) not write-protected
  3678                           ;	Write Protection Block 2
  3679                           ;	WRT2 = OFF, Block 2 (008000-00BFFFh) not write-protected
  3680                           ;	Write Protection Block 3
  3681                           ;	WRT3 = OFF, Block 3 (00C000h-00FFFFh) not write-protected
  3682   30000A                     	org	3145738
  3683   30000A  0F                 	db	15
  3684                           
  3685                           ;Config register CONFIG6H @ 0x30000B
  3686                           ;	Configuration Register Write Protection bit
  3687                           ;	WRTC = OFF, Configuration registers (300000-3000FFh) not write-protected
  3688                           ;	Boot Block Write Protection bit
  3689                           ;	WRTB = OFF, Boot Block (000000-0007FFh) not write-protected
  3690                           ;	Data EEPROM Write Protection bit
  3691                           ;	WRTD = OFF, Data EEPROM not write-protected
  3692   30000B                     	org	3145739
  3693   30000B  E0                 	db	224
  3694                           
  3695                           ;Config register CONFIG7L @ 0x30000C
  3696                           ;	Table Read Protection Block 0
  3697                           ;	EBTR0 = OFF, Block 0 (000800-003FFFh) not protected from table reads executed in other
      +                           blocks
  3698                           ;	Table Read Protection Block 1
  3699                           ;	EBTR1 = OFF, Block 1 (004000-007FFFh) not protected from table reads executed in other
      +                           blocks
  3700                           ;	Table Read Protection Block 2
  3701                           ;	EBTR2 = OFF, Block 2 (008000-00BFFFh) not protected from table reads executed in other
      +                           blocks
  3702                           ;	Table Read Protection Block 3
  3703                           ;	EBTR3 = OFF, Block 3 (00C000-00FFFFh) not protected from table reads executed in other
      +                           blocks
  3704   30000C                     	org	3145740
  3705   30000C  0F                 	db	15
  3706                           
  3707                           ;Config register CONFIG7H @ 0x30000D
  3708                           ;	Boot Block Table Read Protection bit
  3709                           ;	EBTRB = OFF, Boot Block (000000-0007FFh) not protected from table reads executed in ot
      +                          her blocks
  3710   30000D                     	org	3145741
  3711   30000D  40                 	db	64
  3712                           tosu	equ	0xFFF
  3713                           tosh	equ	0xFFE
  3714                           tosl	equ	0xFFD
  3715                           stkptr	equ	0xFFC
  3716                           pclatu	equ	0xFFB
  3717                           pclath	equ	0xFFA
  3718                           pcl	equ	0xFF9
  3719                           tblptru	equ	0xFF8
  3720                           tblptrh	equ	0xFF7
  3721                           tblptrl	equ	0xFF6
  3722                           tablat	equ	0xFF5
  3723                           prodh	equ	0xFF4
  3724                           prodl	equ	0xFF3
  3725                           indf0	equ	0xFEF
  3726                           postinc0	equ	0xFEE
  3727                           postdec0	equ	0xFED
  3728                           preinc0	equ	0xFEC
  3729                           plusw0	equ	0xFEB
  3730                           fsr0h	equ	0xFEA
  3731                           fsr0l	equ	0xFE9
  3732                           wreg	equ	0xFE8
  3733                           indf1	equ	0xFE7
  3734                           postinc1	equ	0xFE6
  3735                           postdec1	equ	0xFE5
  3736                           preinc1	equ	0xFE4
  3737                           plusw1	equ	0xFE3
  3738                           fsr1h	equ	0xFE2
  3739                           fsr1l	equ	0xFE1
  3740                           bsr	equ	0xFE0
  3741                           indf2	equ	0xFDF
  3742                           postinc2	equ	0xFDE
  3743                           postdec2	equ	0xFDD
  3744                           preinc2	equ	0xFDC
  3745                           plusw2	equ	0xFDB
  3746                           fsr2h	equ	0xFDA
  3747                           fsr2l	equ	0xFD9
  3748                           status	equ	0xFD8

Data Sizes:
    Strings     0
    Constant    32
    Data        0
    BSS         103
    Persistent  6
    Stack       0

Auto Spaces:
    Space          Size  Autos    Used
    COMRAM           94     25      84
    BANK0           160      2      52
    BANK1           256      0       0
    BANK2           256      0       0
    BANK3           256      0       0
    BANK4           256      0       0
    BANK5           256      0       0
    BANK6           256      0       0
    BANK7           256      0       0
    BANK8           256      0       0
    BANK9           256      0       0
    BANK10          256      0       0
    BANK11          256      0       0
    BANK12          256      0       0
    BANK13          256      0       0
    BANK14          256      0       0
    BANK15           96      0       0

Pointer List with Targets:

    I2C_Read1ByteRegister@returnValue.data	PTR unsigned char  size(2) Largest target is 0

    I2C_Read2ByteRegister@returnValue.data	PTR unsigned char  size(2) Largest target is 0

    I2C_Write1ByteRegister@data.data	PTR unsigned char  size(2) Largest target is 0

    I2C_Write2ByteRegister@data.data	PTR unsigned char  size(2) Largest target is 0

    I2C_DO_TX$2420$0	PTR void  size(2) Largest target is 5
		 -> I2C_ReadDataBlock@bufferBlock(COMRAM[4]), I2C_Write2ByteRegister@data(COMRAM[2]), I2C_Write1ByteRegister@data(COMRAM[1]), I2C_Read2ByteRegister@returnValue(COMRAM[2]), 
		 -> NULL(NULL[0]), I2C_Read1ByteRegister@returnValue(COMRAM[1]), 

    I2C_DO_RX$2426$0	PTR void  size(2) Largest target is 5
		 -> I2C_ReadDataBlock@bufferBlock(COMRAM[4]), I2C_Write2ByteRegister@data(COMRAM[2]), I2C_Write1ByteRegister@data(COMRAM[1]), I2C_Read2ByteRegister@returnValue(COMRAM[2]), 
		 -> NULL(NULL[0]), I2C_Read1ByteRegister@returnValue(COMRAM[1]), 

    I2C_DO_TX_EMPTY$2432$0	PTR void  size(2) Largest target is 5
		 -> I2C_ReadDataBlock@bufferBlock(COMRAM[4]), I2C_Write2ByteRegister@data(COMRAM[2]), I2C_Write1ByteRegister@data(COMRAM[1]), I2C_Read2ByteRegister@returnValue(COMRAM[2]), 
		 -> NULL(NULL[0]), I2C_Read1ByteRegister@returnValue(COMRAM[1]), 

    I2C_DO_RX_EMPTY$2438$0	PTR void  size(2) Largest target is 5
		 -> I2C_ReadDataBlock@bufferBlock(COMRAM[4]), I2C_Write2ByteRegister@data(COMRAM[2]), I2C_Write1ByteRegister@data(COMRAM[1]), I2C_Read2ByteRegister@returnValue(COMRAM[2]), 
		 -> NULL(NULL[0]), I2C_Read1ByteRegister@returnValue(COMRAM[1]), 

    I2C_DO_TX_EMPTY$2437	PTR void  size(2) Largest target is 5
		 -> I2C_ReadDataBlock@bufferBlock(COMRAM[4]), I2C_Write2ByteRegister@data(COMRAM[2]), I2C_Write1ByteRegister@data(COMRAM[1]), I2C_Read2ByteRegister@returnValue(COMRAM[2]), 
		 -> NULL(NULL[0]), I2C_Read1ByteRegister@returnValue(COMRAM[1]), 

    I2C_DO_TX_EMPTY$2432	PTR FTN(PTR void ,)enum E363 size(2) Largest target is 1
		 -> I2C_CallbackReturnReset(), I2C_CallbackReturnStop(), NULL(), rdBlkRegCompleteHandler(), 
		 -> wr2RegCompleteHandler(), wr1RegCompleteHandler(), rd2RegCompleteHandler(), rd1RegCompleteHandler(), 

    I2C_DO_RX$2431	PTR void  size(2) Largest target is 5
		 -> I2C_ReadDataBlock@bufferBlock(COMRAM[4]), I2C_Write2ByteRegister@data(COMRAM[2]), I2C_Write1ByteRegister@data(COMRAM[1]), I2C_Read2ByteRegister@returnValue(COMRAM[2]), 
		 -> NULL(NULL[0]), I2C_Read1ByteRegister@returnValue(COMRAM[1]), 

    I2C_DO_RX$2426	PTR FTN(PTR void ,)enum E363 size(2) Largest target is 1
		 -> I2C_CallbackReturnReset(), I2C_CallbackReturnStop(), NULL(), rdBlkRegCompleteHandler(), 
		 -> wr2RegCompleteHandler(), wr1RegCompleteHandler(), rd2RegCompleteHandler(), rd1RegCompleteHandler(), 

    I2C_DO_TX$2425	PTR void  size(2) Largest target is 5
		 -> I2C_ReadDataBlock@bufferBlock(COMRAM[4]), I2C_Write2ByteRegister@data(COMRAM[2]), I2C_Write1ByteRegister@data(COMRAM[1]), I2C_Read2ByteRegister@returnValue(COMRAM[2]), 
		 -> NULL(NULL[0]), I2C_Read1ByteRegister@returnValue(COMRAM[1]), 

    I2C_DO_TX$2420	PTR FTN(PTR void ,)enum E363 size(2) Largest target is 1
		 -> I2C_CallbackReturnReset(), I2C_CallbackReturnStop(), NULL(), rdBlkRegCompleteHandler(), 
		 -> wr2RegCompleteHandler(), wr1RegCompleteHandler(), rd2RegCompleteHandler(), rd1RegCompleteHandler(), 

    I2C_MasterFsm$2419	const PTR FTN()enum E3121 size(2) Largest target is 1
		 -> I2C_DO_ADDRESS_NACK(), I2C_DO_RESET(), I2C_DO_RX_NACK_RESTART(), I2C_DO_RX_NACK_STOP(), 
		 -> I2C_DO_RX_ACK(), I2C_DO_SEND_STOP(), I2C_DO_SEND_RESTART(), I2C_DO_SEND_RESTART_WRITE(), 
		 -> I2C_DO_SEND_RESTART_READ(), I2C_DO_TX_EMPTY(), I2C_DO_RCEN(), I2C_DO_RX(), 
		 -> I2C_DO_TX(), I2C_DO_SEND_ADR_WRITE(), I2C_DO_SEND_ADR_READ(), I2C_DO_IDLE(), 

    I2C_CallbackReturnStop@funPtr	PTR void  size(2) Largest target is 5
		 -> I2C_ReadDataBlock@bufferBlock(COMRAM[4]), I2C_Write2ByteRegister@data(COMRAM[2]), I2C_Write1ByteRegister@data(COMRAM[1]), I2C_Read2ByteRegister@returnValue(COMRAM[2]), 
		 -> NULL(NULL[0]), I2C_Read1ByteRegister@returnValue(COMRAM[1]), 

    I2C_CallbackReturnReset@funPtr	PTR void  size(2) Largest target is 5
		 -> I2C_ReadDataBlock@bufferBlock(COMRAM[4]), I2C_Write2ByteRegister@data(COMRAM[2]), I2C_Write1ByteRegister@data(COMRAM[1]), I2C_Read2ByteRegister@returnValue(COMRAM[2]), 
		 -> NULL(NULL[0]), I2C_Read1ByteRegister@returnValue(COMRAM[1]), 

    cb$0	PTR void  size(2) Largest target is 5
		 -> I2C_ReadDataBlock@bufferBlock(COMRAM[4]), I2C_Write2ByteRegister@data(COMRAM[2]), I2C_Write1ByteRegister@data(COMRAM[1]), I2C_Read2ByteRegister@returnValue(COMRAM[2]), 
		 -> NULL(NULL[0]), I2C_Read1ByteRegister@returnValue(COMRAM[1]), 

    NULL$0	PTR void  size(2) Largest target is 5
		 -> I2C_ReadDataBlock@bufferBlock(COMRAM[4]), I2C_Write2ByteRegister@data(COMRAM[2]), I2C_Write1ByteRegister@data(COMRAM[1]), I2C_Read2ByteRegister@returnValue(COMRAM[2]), 
		 -> NULL(NULL[0]), I2C_Read1ByteRegister@returnValue(COMRAM[1]), 

    cb$0	PTR void  size(2) Largest target is 5
		 -> I2C_ReadDataBlock@bufferBlock(COMRAM[4]), I2C_Write2ByteRegister@data(COMRAM[2]), I2C_Write1ByteRegister@data(COMRAM[1]), I2C_Read2ByteRegister@returnValue(COMRAM[2]), 
		 -> NULL(NULL[0]), I2C_Read1ByteRegister@returnValue(COMRAM[1]), 

    S1030$0$0	PTR void  size(2) Largest target is 5
		 -> I2C_ReadDataBlock@bufferBlock(COMRAM[4]), I2C_Write2ByteRegister@data(COMRAM[2]), I2C_Write1ByteRegister@data(COMRAM[1]), I2C_Read2ByteRegister@returnValue(COMRAM[2]), 
		 -> NULL(NULL[0]), I2C_Read1ByteRegister@returnValue(COMRAM[1]), 

    I2C_SetCallback@ptr	PTR void  size(2) Largest target is 5
		 -> I2C_ReadDataBlock@bufferBlock(COMRAM[4]), I2C_Write2ByteRegister@data(COMRAM[2]), I2C_Write1ByteRegister@data(COMRAM[1]), I2C_Read2ByteRegister@returnValue(COMRAM[2]), 
		 -> NULL(NULL[0]), I2C_Read1ByteRegister@returnValue(COMRAM[1]), 

    I2C_SetCallback@cb	PTR FTN(PTR void ,)enum E363 size(2) Largest target is 1
		 -> NULL(), rdBlkRegCompleteHandler(), wr2RegCompleteHandler(), wr1RegCompleteHandler(), 
		 -> rd2RegCompleteHandler(), rd1RegCompleteHandler(), 

    I2C_SetDataCompleteCallback@ptr	PTR void  size(2) Largest target is 5
		 -> I2C_ReadDataBlock@bufferBlock(COMRAM[4]), I2C_Write2ByteRegister@data(COMRAM[2]), I2C_Write1ByteRegister@data(COMRAM[1]), I2C_Read2ByteRegister@returnValue(COMRAM[2]), 
		 -> NULL(NULL[0]), I2C_Read1ByteRegister@returnValue(COMRAM[1]), 

    I2C_SetDataCompleteCallback@cb	PTR FTN(PTR void ,)enum E363 size(2) Largest target is 1
		 -> NULL(), rdBlkRegCompleteHandler(), wr2RegCompleteHandler(), wr1RegCompleteHandler(), 
		 -> rd2RegCompleteHandler(), rd1RegCompleteHandler(), 

    I2C_SetBuffer@buffer	PTR void  size(2) Largest target is 5
		 -> I2C_Read1ByteRegister@returnValue.data(COMRAM[3]), I2C_Read2ByteRegister@returnValue.data(COMRAM[3]), I2C_Write1ByteRegister@data.data(COMRAM[3]), I2C_Write2ByteRegister@data.data(COMRAM[3]), 
		 -> I2C_ReadDataBlock@reg(COMRAM[1]), I2C_ReadDataBlock@bufferBlock(COMRAM[4]), bufferBlock.data(COMRAM[3]), I2C_Write2ByteRegister@reg(COMRAM[1]), 
		 -> I2C_Write2ByteRegister@data(COMRAM[2]), I2C_Write1ByteRegister@reg(COMRAM[1]), I2C_Write1ByteRegister@data(COMRAM[1]), I2C_Read2ByteRegister@reg(COMRAM[1]), 
		 -> I2C_Read2ByteRegister@returnValue(COMRAM[2]), NULL(NULL[0]), I2C_Read1ByteRegister@reg(COMRAM[1]), I2C_Read1ByteRegister@returnValue(COMRAM[1]), 

    S1030$data_ptr	PTR unsigned char  size(2) Largest target is 5
		 -> I2C_ReadDataBlock@reg(COMRAM[1]), I2C_ReadDataBlock@bufferBlock(COMRAM[4]), I2C_Write2ByteRegister@reg(COMRAM[1]), I2C_Write2ByteRegister@data(COMRAM[2]), 
		 -> I2C_Write1ByteRegister@reg(COMRAM[1]), I2C_Write1ByteRegister@data(COMRAM[1]), I2C_Read2ByteRegister@reg(COMRAM[1]), I2C_Read2ByteRegister@returnValue(COMRAM[2]), 
		 -> NULL(NULL[0]), I2C_Read1ByteRegister@reg(COMRAM[1]), I2C_Read1ByteRegister@returnValue(COMRAM[1]), 

    I2C_Status.data_ptr	PTR unsigned char  size(2) Largest target is 5
		 -> I2C_Read1ByteRegister@returnValue.data(COMRAM[3]), I2C_Read2ByteRegister@returnValue.data(COMRAM[3]), I2C_Write1ByteRegister@data.data(COMRAM[3]), I2C_Write2ByteRegister@data.data(COMRAM[3]), 
		 -> I2C_ReadDataBlock@reg(COMRAM[1]), I2C_ReadDataBlock@bufferBlock(COMRAM[4]), bufferBlock.data(COMRAM[3]), I2C_Write2ByteRegister@reg(COMRAM[1]), 
		 -> I2C_Write2ByteRegister@data(COMRAM[2]), I2C_Write1ByteRegister@reg(COMRAM[1]), I2C_Write1ByteRegister@data(COMRAM[1]), I2C_Read2ByteRegister@reg(COMRAM[1]), 
		 -> I2C_Read2ByteRegister@returnValue(COMRAM[2]), NULL(NULL[0]), I2C_Read1ByteRegister@reg(COMRAM[1]), I2C_Read1ByteRegister@returnValue(COMRAM[1]), 

    S1030$callbackPayload	PTR void [6] size(2) Largest target is 5
		 -> I2C_ReadDataBlock@bufferBlock(COMRAM[4]), I2C_Write2ByteRegister@data(COMRAM[2]), I2C_Write1ByteRegister@data(COMRAM[1]), I2C_Read2ByteRegister@returnValue(COMRAM[2]), 
		 -> NULL(NULL[0]), I2C_Read1ByteRegister@returnValue(COMRAM[1]), 

    I2C_Status.callbackPayload	PTR void [6] size(2) Largest target is 5
		 -> I2C_ReadDataBlock@bufferBlock(COMRAM[4]), I2C_Write2ByteRegister@data(COMRAM[2]), I2C_Write1ByteRegister@data(COMRAM[1]), I2C_Read2ByteRegister@returnValue(COMRAM[2]), 
		 -> NULL(NULL[0]), I2C_Read1ByteRegister@returnValue(COMRAM[1]), 

    S1030$callbackTable	PTR FTN(PTR void ,)enum E363[6] size(2) Largest target is 1
		 -> I2C_CallbackReturnReset(), I2C_CallbackReturnStop(), NULL(), rdBlkRegCompleteHandler(), 
		 -> wr2RegCompleteHandler(), wr1RegCompleteHandler(), rd2RegCompleteHandler(), rd1RegCompleteHandler(), 

    I2C_Status.callbackTable	PTR FTN(PTR void ,)enum E363[6] size(2) Largest target is 1
		 -> I2C_CallbackReturnReset(), I2C_CallbackReturnStop(), NULL(), rdBlkRegCompleteHandler(), 
		 -> wr2RegCompleteHandler(), wr1RegCompleteHandler(), rd2RegCompleteHandler(), rd1RegCompleteHandler(), 

    i2c_fsmStateTable	const PTR FTN()enum E3121[16] size(2) Largest target is 1
		 -> I2C_DO_ADDRESS_NACK(), I2C_DO_RESET(), I2C_DO_RX_NACK_RESTART(), I2C_DO_RX_NACK_STOP(), 
		 -> I2C_DO_RX_ACK(), I2C_DO_SEND_STOP(), I2C_DO_SEND_RESTART(), I2C_DO_SEND_RESTART_WRITE(), 
		 -> I2C_DO_SEND_RESTART_READ(), I2C_DO_TX_EMPTY(), I2C_DO_RCEN(), I2C_DO_RX(), 
		 -> I2C_DO_TX(), I2C_DO_SEND_ADR_WRITE(), I2C_DO_SEND_ADR_READ(), I2C_DO_IDLE(), 

    MSSP_InterruptHandler	PTR FTN()void  size(2) Largest target is 1
		 -> I2C_MasterIsr(), NULL(), 

    EUSART_SetErrorHandler@interruptHandler	PTR FTN()void  size(2) Largest target is 1
		 -> EUSART_DefaultErrorHandler(), 

    EUSART_ErrorHandler	PTR FTN()void  size(2) Largest target is 1
		 -> NULL(), EUSART_DefaultErrorHandler(), 

    EUSART_SetOverrunErrorHandler@interruptHandler	PTR FTN()void  size(2) Largest target is 1
		 -> EUSART_DefaultOverrunErrorHandler(), 

    EUSART_OverrunErrorHandler	PTR FTN()void  size(2) Largest target is 1
		 -> NULL(), EUSART_DefaultOverrunErrorHandler(), 

    EUSART_SetFramingErrorHandler@interruptHandler	PTR FTN()void  size(2) Largest target is 1
		 -> EUSART_DefaultFramingErrorHandler(), 

    EUSART_FramingErrorHandler	PTR FTN()void  size(2) Largest target is 1
		 -> NULL(), EUSART_DefaultFramingErrorHandler(), 

    rdBlkRegCompleteHandler@ptr.data	PTR unsigned char  size(2) Largest target is 0

    rdBlkRegCompleteHandler@ptr	PTR void  size(2) Largest target is 5
		 -> I2C_ReadDataBlock@bufferBlock(COMRAM[4]), I2C_Write2ByteRegister@data(COMRAM[2]), I2C_Write1ByteRegister@data(COMRAM[1]), I2C_Read2ByteRegister@returnValue(COMRAM[2]), 
		 -> NULL(NULL[0]), I2C_Read1ByteRegister@returnValue(COMRAM[1]), 

    wr2RegCompleteHandler@ptr	PTR void  size(2) Largest target is 5
		 -> I2C_ReadDataBlock@bufferBlock(COMRAM[4]), I2C_Write2ByteRegister@data(COMRAM[2]), I2C_Write1ByteRegister@data(COMRAM[1]), I2C_Read2ByteRegister@returnValue(COMRAM[2]), 
		 -> NULL(NULL[0]), I2C_Read1ByteRegister@returnValue(COMRAM[1]), 

    wr1RegCompleteHandler@ptr	PTR void  size(2) Largest target is 5
		 -> I2C_ReadDataBlock@bufferBlock(COMRAM[4]), I2C_Write2ByteRegister@data(COMRAM[2]), I2C_Write1ByteRegister@data(COMRAM[1]), I2C_Read2ByteRegister@returnValue(COMRAM[2]), 
		 -> NULL(NULL[0]), I2C_Read1ByteRegister@returnValue(COMRAM[1]), 

    rd2RegCompleteHandler@ptr	PTR void  size(2) Largest target is 5
		 -> I2C_ReadDataBlock@bufferBlock(COMRAM[4]), I2C_Write2ByteRegister@data(COMRAM[2]), I2C_Write1ByteRegister@data(COMRAM[1]), I2C_Read2ByteRegister@returnValue(COMRAM[2]), 
		 -> NULL(NULL[0]), I2C_Read1ByteRegister@returnValue(COMRAM[1]), 

    rd1RegCompleteHandler@ptr	PTR void  size(2) Largest target is 5
		 -> I2C_ReadDataBlock@bufferBlock(COMRAM[4]), I2C_Write2ByteRegister@data(COMRAM[2]), I2C_Write1ByteRegister@data(COMRAM[1]), I2C_Read2ByteRegister@returnValue(COMRAM[2]), 
		 -> NULL(NULL[0]), I2C_Read1ByteRegister@returnValue(COMRAM[1]), 

    S97$data	PTR unsigned char  size(2) Largest target is 0

    bufferBlock.data	PTR unsigned char  size(2) Largest target is 0


Critical Paths under _main in COMRAM

    None.

Critical Paths under _INTERRUPT_InterruptManager in COMRAM

    _I2C_MasterIsr->_I2C_MasterFsm
    _I2C_MasterFsm->_I2C_DO_ADDRESS_NACK
    _I2C_MasterFsm->_I2C_DO_RX
    _I2C_MasterFsm->_I2C_DO_TX
    _I2C_MasterFsm->_I2C_DO_TX_EMPTY
    _I2C_DO_TX_EMPTY->_I2C_CallbackReturnReset
    _I2C_DO_TX_EMPTY->_I2C_CallbackReturnStop
    _I2C_DO_TX_EMPTY->_rd1RegCompleteHandler
    _I2C_DO_TX_EMPTY->_rd2RegCompleteHandler
    _I2C_DO_TX_EMPTY->_rdBlkRegCompleteHandler
    _I2C_DO_TX_EMPTY->_wr1RegCompleteHandler
    _I2C_DO_TX_EMPTY->_wr2RegCompleteHandler
    _I2C_DO_TX->_I2C_CallbackReturnReset
    _I2C_DO_TX->_I2C_CallbackReturnStop
    _I2C_DO_TX->_rd1RegCompleteHandler
    _I2C_DO_TX->_rd2RegCompleteHandler
    _I2C_DO_TX->_rdBlkRegCompleteHandler
    _I2C_DO_TX->_wr1RegCompleteHandler
    _I2C_DO_TX->_wr2RegCompleteHandler
    _I2C_DO_SEND_ADR_WRITE->_I2C_MasterSendTxData
    _I2C_DO_RX->_I2C_CallbackReturnReset
    _I2C_DO_RX->_I2C_CallbackReturnStop
    _I2C_DO_RX->_rd1RegCompleteHandler
    _I2C_DO_RX->_rd2RegCompleteHandler
    _I2C_DO_RX->_rdBlkRegCompleteHandler
    _I2C_DO_RX->_wr1RegCompleteHandler
    _I2C_DO_RX->_wr2RegCompleteHandler
    _I2C_DO_ADDRESS_NACK->_I2C_CallbackReturnReset
    _I2C_DO_ADDRESS_NACK->_I2C_CallbackReturnStop
    _I2C_DO_ADDRESS_NACK->_rd1RegCompleteHandler
    _I2C_DO_ADDRESS_NACK->_rd2RegCompleteHandler
    _I2C_DO_ADDRESS_NACK->_rdBlkRegCompleteHandler
    _I2C_DO_ADDRESS_NACK->_wr1RegCompleteHandler
    _I2C_DO_ADDRESS_NACK->_wr2RegCompleteHandler
    _wr2RegCompleteHandler->_I2C_SetDataCompleteCallback
    _wr1RegCompleteHandler->_I2C_SetDataCompleteCallback
    _rdBlkRegCompleteHandler->_I2C_SetDataCompleteCallback
    _rd2RegCompleteHandler->_I2C_SetDataCompleteCallback
    _rd1RegCompleteHandler->_I2C_SetDataCompleteCallback
    _I2C_SetDataCompleteCallback->_I2C_SetCallback

Critical Paths under _main in BANK0

    _EUSART_Initialize->_EUSART_SetErrorHandler
    _EUSART_Initialize->_EUSART_SetFramingErrorHandler
    _EUSART_Initialize->_EUSART_SetOverrunErrorHandler

Critical Paths under _INTERRUPT_InterruptManager in BANK0

    None.

Critical Paths under _main in BANK1

    None.

Critical Paths under _INTERRUPT_InterruptManager in BANK1

    None.

Critical Paths under _main in BANK2

    None.

Critical Paths under _INTERRUPT_InterruptManager in BANK2

    None.

Critical Paths under _main in BANK3

    None.

Critical Paths under _INTERRUPT_InterruptManager in BANK3

    None.

Critical Paths under _main in BANK4

    None.

Critical Paths under _INTERRUPT_InterruptManager in BANK4

    None.

Critical Paths under _main in BANK5

    None.

Critical Paths under _INTERRUPT_InterruptManager in BANK5

    None.

Critical Paths under _main in BANK6

    None.

Critical Paths under _INTERRUPT_InterruptManager in BANK6

    None.

Critical Paths under _main in BANK7

    None.

Critical Paths under _INTERRUPT_InterruptManager in BANK7

    None.

Critical Paths under _main in BANK8

    None.

Critical Paths under _INTERRUPT_InterruptManager in BANK8

    None.

Critical Paths under _main in BANK9

    None.

Critical Paths under _INTERRUPT_InterruptManager in BANK9

    None.

Critical Paths under _main in BANK10

    None.

Critical Paths under _INTERRUPT_InterruptManager in BANK10

    None.

Critical Paths under _main in BANK11

    None.

Critical Paths under _INTERRUPT_InterruptManager in BANK11

    None.

Critical Paths under _main in BANK12

    None.

Critical Paths under _INTERRUPT_InterruptManager in BANK12

    None.

Critical Paths under _main in BANK13

    None.

Critical Paths under _INTERRUPT_InterruptManager in BANK13

    None.

Critical Paths under _main in BANK14

    None.

Critical Paths under _INTERRUPT_InterruptManager in BANK14

    None.

Critical Paths under _main in BANK15

    None.

Critical Paths under _INTERRUPT_InterruptManager in BANK15

    None.

Call Graph Tables:

 ---------------------------------------------------------------------------------
 (Depth) Function   	        Calls       Base Space   Used Autos Params    Refs
 ---------------------------------------------------------------------------------
 (0) _main                                                 0     0      0     385
                       _EUSART_Write
                  _SYSTEM_Initialize
 ---------------------------------------------------------------------------------
 (1) _SYSTEM_Initialize                                    0     0      0     363
                  _EUSART_Initialize
                     _I2C_Initialize
               _INTERRUPT_Initialize
              _OSCILLATOR_Initialize
             _PIN_MANAGER_Initialize
 ---------------------------------------------------------------------------------
 (2) _PIN_MANAGER_Initialize                               0     0      0       0
 ---------------------------------------------------------------------------------
 (2) _OSCILLATOR_Initialize                                0     0      0       0
 ---------------------------------------------------------------------------------
 (2) _INTERRUPT_Initialize                                 0     0      0       0
 ---------------------------------------------------------------------------------
 (2) _I2C_Initialize                                       0     0      0       0
 ---------------------------------------------------------------------------------
 (2) _EUSART_Initialize                                    0     0      0     363
             _EUSART_SetErrorHandler
      _EUSART_SetFramingErrorHandler
      _EUSART_SetOverrunErrorHandler
 ---------------------------------------------------------------------------------
 (3) _EUSART_SetOverrunErrorHandler                        2     0      2     121
                                              0 BANK0      2     0      2
 ---------------------------------------------------------------------------------
 (3) _EUSART_SetFramingErrorHandler                        2     0      2     121
                                              0 BANK0      2     0      2
 ---------------------------------------------------------------------------------
 (3) _EUSART_SetErrorHandler                               2     0      2     121
                                              0 BANK0      2     0      2
 ---------------------------------------------------------------------------------
 (1) _EUSART_Write                                         1     1      0      22
                                              0 BANK0      1     1      0
 ---------------------------------------------------------------------------------
 Estimated maximum stack depth 3
 ---------------------------------------------------------------------------------
 (Depth) Function   	        Calls       Base Space   Used Autos Params    Refs
 ---------------------------------------------------------------------------------
 (4) _INTERRUPT_InterruptManager                          10    10      0   88353
                                             15 COMRAM    10    10      0
                                NULL *
                      _I2C_MasterIsr *
 ---------------------------------------------------------------------------------
 (5) _I2C_MasterIsr                                        0     0      0   88353
                      _I2C_MasterFsm
 ---------------------------------------------------------------------------------
 (6) _I2C_MasterFsm                                        2     2      0   88353
                                             13 COMRAM     2     2      0
                _I2C_DO_ADDRESS_NACK *
                        _I2C_DO_IDLE *
                        _I2C_DO_RCEN *
                       _I2C_DO_RESET *
                          _I2C_DO_RX *
                      _I2C_DO_RX_ACK *
             _I2C_DO_RX_NACK_RESTART *
                _I2C_DO_RX_NACK_STOP *
               _I2C_DO_SEND_ADR_READ *
              _I2C_DO_SEND_ADR_WRITE *
                _I2C_DO_SEND_RESTART *
           _I2C_DO_SEND_RESTART_READ *
          _I2C_DO_SEND_RESTART_WRITE *
                   _I2C_DO_SEND_STOP *
                          _I2C_DO_TX *
                    _I2C_DO_TX_EMPTY *
                 _I2C_MasterClearIrq
                   _I2C_MasterIsNack
 ---------------------------------------------------------------------------------
 (7) _I2C_MasterClearIrq                                   0     0      0       0
 ---------------------------------------------------------------------------------
 (7) _I2C_DO_TX_EMPTY                                      2     2      0   22077
                                             11 COMRAM     2     2      0
                                NULL *
            _I2C_CallbackReturnReset *
             _I2C_CallbackReturnStop *
                _I2C_DO_SEND_RESTART
                   _I2C_DO_SEND_STOP
                   _I2C_MasterSetIrq
              _rd1RegCompleteHandler *
              _rd2RegCompleteHandler *
            _rdBlkRegCompleteHandler *
              _wr1RegCompleteHandler *
              _wr2RegCompleteHandler *
 ---------------------------------------------------------------------------------
 (8) _I2C_MasterSetIrq                                     0     0      0       0
 ---------------------------------------------------------------------------------
 (7) _I2C_DO_TX                                            2     2      0   22092
                                             11 COMRAM     2     2      0
                                NULL *
            _I2C_CallbackReturnReset *
             _I2C_CallbackReturnStop *
           _I2C_DO_SEND_RESTART_READ
          _I2C_DO_SEND_RESTART_WRITE
                   _I2C_DO_SEND_STOP
                   _I2C_MasterIsNack
               _I2C_MasterSendTxData
              _rd1RegCompleteHandler *
              _rd2RegCompleteHandler *
            _rdBlkRegCompleteHandler *
              _wr1RegCompleteHandler *
              _wr2RegCompleteHandler *
 ---------------------------------------------------------------------------------
 (7) _I2C_MasterIsNack                                     0     0      0       0
 ---------------------------------------------------------------------------------
 (8) _I2C_DO_SEND_RESTART_WRITE                            0     0      0       0
            _I2C_MasterEnableRestart
 ---------------------------------------------------------------------------------
 (8) _I2C_DO_SEND_RESTART_READ                             0     0      0       0
            _I2C_MasterEnableRestart
 ---------------------------------------------------------------------------------
 (7) _I2C_DO_SEND_ADR_WRITE                                0     0      0      15
               _I2C_MasterSendTxData
 ---------------------------------------------------------------------------------
 (7) _I2C_DO_SEND_ADR_READ                                 0     0      0      15
               _I2C_MasterSendTxData
 ---------------------------------------------------------------------------------
 (8) _I2C_MasterSendTxData                                 1     1      0      15
                                              0 COMRAM     1     1      0
 ---------------------------------------------------------------------------------
 (7) _I2C_DO_RX_ACK                                        0     0      0       0
                  _I2C_MasterSendAck
 ---------------------------------------------------------------------------------
 (7) _I2C_DO_RX                                            2     2      0   22077
                                             11 COMRAM     2     2      0
                                NULL *
            _I2C_CallbackReturnReset *
             _I2C_CallbackReturnStop *
             _I2C_DO_RX_NACK_RESTART
                _I2C_DO_RX_NACK_STOP
                _I2C_MasterGetRxData
                  _I2C_MasterSendAck
              _rd1RegCompleteHandler *
              _rd2RegCompleteHandler *
            _rdBlkRegCompleteHandler *
              _wr1RegCompleteHandler *
              _wr2RegCompleteHandler *
 ---------------------------------------------------------------------------------
 (8) _I2C_MasterSendAck                                    0     0      0       0
 ---------------------------------------------------------------------------------
 (8) _I2C_MasterGetRxData                                  0     0      0       0
 ---------------------------------------------------------------------------------
 (7) _I2C_DO_RX_NACK_STOP                                  0     0      0       0
                 _I2C_MasterSendNack
 ---------------------------------------------------------------------------------
 (7) _I2C_DO_RX_NACK_RESTART                               0     0      0       0
                 _I2C_MasterSendNack
 ---------------------------------------------------------------------------------
 (8) _I2C_MasterSendNack                                   0     0      0       0
 ---------------------------------------------------------------------------------
 (7) _I2C_DO_RESET                                         0     0      0       0
 ---------------------------------------------------------------------------------
 (7) _I2C_DO_RCEN                                          0     0      0       0
                  _I2C_MasterStartRx
 ---------------------------------------------------------------------------------
 (8) _I2C_MasterStartRx                                    0     0      0       0
 ---------------------------------------------------------------------------------
 (7) _I2C_DO_IDLE                                          0     0      0       0
 ---------------------------------------------------------------------------------
 (7) _I2C_DO_ADDRESS_NACK                                  2     2      0   22077
                                             11 COMRAM     2     2      0
                                NULL *
            _I2C_CallbackReturnReset *
             _I2C_CallbackReturnStop *
                _I2C_DO_SEND_RESTART
                   _I2C_DO_SEND_STOP
              _rd1RegCompleteHandler *
              _rd2RegCompleteHandler *
            _rdBlkRegCompleteHandler *
              _wr1RegCompleteHandler *
              _wr2RegCompleteHandler *
 ---------------------------------------------------------------------------------
 (8) _wr2RegCompleteHandler                                2     0      2    4368
                                              9 COMRAM     2     0      2
                      _I2C_SetBuffer
        _I2C_SetDataCompleteCallback
 ---------------------------------------------------------------------------------
 (8) _wr1RegCompleteHandler                                2     0      2    4368
                                              9 COMRAM     2     0      2
                      _I2C_SetBuffer
        _I2C_SetDataCompleteCallback
 ---------------------------------------------------------------------------------
 (8) _rdBlkRegCompleteHandler                              2     0      2    4390
                                              9 COMRAM     2     0      2
                      _I2C_SetBuffer
        _I2C_SetDataCompleteCallback
 ---------------------------------------------------------------------------------
 (8) _rd2RegCompleteHandler                                2     0      2    4368
                                              9 COMRAM     2     0      2
                      _I2C_SetBuffer
        _I2C_SetDataCompleteCallback
 ---------------------------------------------------------------------------------
 (8) _rd1RegCompleteHandler                                2     0      2    4368
                                              9 COMRAM     2     0      2
                      _I2C_SetBuffer
        _I2C_SetDataCompleteCallback
 ---------------------------------------------------------------------------------
 (9) _I2C_SetDataCompleteCallback                          4     0      4    2478
                                              5 COMRAM     4     0      4
                    _I2C_SetCallback
 ---------------------------------------------------------------------------------
 (10) _I2C_SetCallback                                     5     1      4     914
                                              0 COMRAM     5     1      4
 ---------------------------------------------------------------------------------
 (9) _I2C_SetBuffer                                        4     0      4    1868
                                              0 COMRAM     4     0      4
 ---------------------------------------------------------------------------------
 (8) _I2C_DO_SEND_STOP                                     0     0      0       0
                     _I2C_MasterStop
 ---------------------------------------------------------------------------------
 (9) _I2C_MasterStop                                       0     0      0       0
 ---------------------------------------------------------------------------------
 (8) _I2C_DO_SEND_RESTART                                  0     0      0       0
            _I2C_MasterEnableRestart
 ---------------------------------------------------------------------------------
 (9) _I2C_MasterEnableRestart                              0     0      0       0
 ---------------------------------------------------------------------------------
 (8) _I2C_CallbackReturnStop                               2     0      2       0
                                              9 COMRAM     2     0      2
 ---------------------------------------------------------------------------------
 (8) _I2C_CallbackReturnReset                              2     0      2     215
                                              9 COMRAM     2     0      2
 ---------------------------------------------------------------------------------
 (8) NULL(Fake)                                            2     0      2       0
 ---------------------------------------------------------------------------------
 Estimated maximum stack depth 10
 ---------------------------------------------------------------------------------

 Call Graph Graphs:

 _main (ROOT)
   _EUSART_Write
   _SYSTEM_Initialize
     _EUSART_Initialize
       _EUSART_SetErrorHandler
       _EUSART_SetFramingErrorHandler
       _EUSART_SetOverrunErrorHandler
     _I2C_Initialize
     _INTERRUPT_Initialize
     _OSCILLATOR_Initialize
     _PIN_MANAGER_Initialize

 _INTERRUPT_InterruptManager (ROOT)
   NULL(Fake) *
   _I2C_MasterIsr *
     _I2C_MasterFsm
       _I2C_DO_ADDRESS_NACK *
         NULL(Fake) *
         _I2C_CallbackReturnReset *
         _I2C_CallbackReturnStop *
         _I2C_DO_SEND_RESTART *
           _I2C_MasterEnableRestart
         _I2C_DO_SEND_STOP *
           _I2C_MasterStop
         _rd1RegCompleteHandler *
           _I2C_SetBuffer
           _I2C_SetDataCompleteCallback
             _I2C_SetCallback
         _rd2RegCompleteHandler *
           _I2C_SetBuffer
           _I2C_SetDataCompleteCallback
         _rdBlkRegCompleteHandler *
           _I2C_SetBuffer
           _I2C_SetDataCompleteCallback
         _wr1RegCompleteHandler *
           _I2C_SetBuffer
           _I2C_SetDataCompleteCallback
         _wr2RegCompleteHandler *
           _I2C_SetBuffer
           _I2C_SetDataCompleteCallback
       _I2C_DO_IDLE *
       _I2C_DO_RCEN *
         _I2C_MasterStartRx
       _I2C_DO_RESET *
       _I2C_DO_RX *
         NULL(Fake) *
         _I2C_CallbackReturnReset *
         _I2C_CallbackReturnStop *
         _I2C_DO_RX_NACK_RESTART *
           _I2C_MasterSendNack
         _I2C_DO_RX_NACK_STOP *
           _I2C_MasterSendNack
         _I2C_MasterGetRxData *
         _I2C_MasterSendAck *
         _rd1RegCompleteHandler *
         _rd2RegCompleteHandler *
         _rdBlkRegCompleteHandler *
         _wr1RegCompleteHandler *
         _wr2RegCompleteHandler *
       _I2C_DO_RX_ACK *
         _I2C_MasterSendAck
       _I2C_DO_RX_NACK_RESTART *
       _I2C_DO_RX_NACK_STOP *
       _I2C_DO_SEND_ADR_READ *
         _I2C_MasterSendTxData
       _I2C_DO_SEND_ADR_WRITE *
         _I2C_MasterSendTxData
       _I2C_DO_SEND_RESTART *
       _I2C_DO_SEND_RESTART_READ *
         _I2C_MasterEnableRestart
       _I2C_DO_SEND_RESTART_WRITE *
         _I2C_MasterEnableRestart
       _I2C_DO_SEND_STOP *
       _I2C_DO_TX *
         NULL(Fake) *
         _I2C_CallbackReturnReset *
         _I2C_CallbackReturnStop *
         _I2C_DO_SEND_RESTART_READ *
         _I2C_DO_SEND_RESTART_WRITE *
         _I2C_DO_SEND_STOP *
         _I2C_MasterIsNack *
         _I2C_MasterSendTxData *
         _rd1RegCompleteHandler *
         _rd2RegCompleteHandler *
         _rdBlkRegCompleteHandler *
         _wr1RegCompleteHandler *
         _wr2RegCompleteHandler *
       _I2C_DO_TX_EMPTY *
         NULL(Fake) *
         _I2C_CallbackReturnReset *
         _I2C_CallbackReturnStop *
         _I2C_DO_SEND_RESTART *
         _I2C_DO_SEND_STOP *
         _I2C_MasterSetIrq *
         _rd1RegCompleteHandler *
         _rd2RegCompleteHandler *
         _rdBlkRegCompleteHandler *
         _wr1RegCompleteHandler *
         _wr2RegCompleteHandler *
       _I2C_MasterClearIrq *
       _I2C_MasterIsNack *

 Address spaces:
Name               Size   Autos  Total    Cost      Usage
BIGRAM             F5F      0       0      52        0.0%
EEDATA             400      0       0       0        0.0%
BITBANK14          100      0       0      33        0.0%
BANK14             100      0       0      34        0.0%
BITBANK13          100      0       0      31        0.0%
BANK13             100      0       0      32        0.0%
BITBANK12          100      0       0      29        0.0%
BANK12             100      0       0      30        0.0%
BITBANK11          100      0       0      26        0.0%
BANK11             100      0       0      27        0.0%
BITBANK10          100      0       0      24        0.0%
BANK10             100      0       0      25        0.0%
BITBANK9           100      0       0      22        0.0%
BANK9              100      0       0      23        0.0%
BITBANK8           100      0       0      20        0.0%
BANK8              100      0       0      21        0.0%
BITBANK7           100      0       0      18        0.0%
BANK7              100      0       0      19        0.0%
BITBANK6           100      0       0      16        0.0%
BANK6              100      0       0      17        0.0%
BITBANK5           100      0       0      14        0.0%
BANK5              100      0       0      15        0.0%
BITBANK4           100      0       0      12        0.0%
BANK4              100      0       0      13        0.0%
BITBANK3           100      0       0      10        0.0%
BANK3              100      0       0      11        0.0%
BITBANK2           100      0       0       8        0.0%
BANK2              100      0       0       9        0.0%
BITBANK1           100      0       0       6        0.0%
BANK1              100      0       0       7        0.0%
BITBANK0            A0      0       0       4        0.0%
BANK0               A0      2      34       5       32.5%
BITBANK15           60      0       0      35        0.0%
BANK15              60      0       0      36        0.0%
BITCOMRAM           5E      0       0       0        0.0%
COMRAM              5E     19      54       1       89.4%
BITBIGSFRhllh       1D      0       0      39        0.0%
BITBIGSFRllllll     1C      0       0      51        0.0%
BITBIGSFRhlllll      C      0       0      42        0.0%
BITBIGSFRlllllh      9      0       0      49        0.0%
BITBIGSFRhh          7      0       0      37        0.0%
BITBIGSFRlhh         7      0       0      43        0.0%
BITBIGSFRhllllh      6      0       0      41        0.0%
BITBIGSFRlllhhl      4      0       0      47        0.0%
BITBIGSFRlllhll      4      0       0      48        0.0%
BITBIGSFRllhlh       4      0       0      44        0.0%
BITBIGSFRhlllh       2      0       0      40        0.0%
BITBIGSFRhlh         2      0       0      38        0.0%
BITBIGSFRlllhhh      1      0       0      46        0.0%
BITBIGSFRllllll      1      0       0      50        0.0%
BITBIGSFRllhll       1      0       0      45        0.0%
BIGSFR               0      0       0     200        0.0%
BITSFR               0      0       0     200        0.0%
SFR                  0      0       0     200        0.0%
STACK                0      0       0       2        0.0%
NULL                 0      0       0       0        0.0%
ABS                  0      0      88      28        0.0%
DATA                 0      0      88       3        0.0%
CODE                 0      0       0       0        0.0%


Microchip Technology PIC18 Macro Assembler V2.41 build 20230208172133 
Symbol Table                                                                                   Mon Aug 28 18:41:30 2023

                       ??_I2C_DO_SEND_ADR_READ 0036                        ??_I2C_DO_SEND_ADR_WRITE 0037  
                                  _SSPSTATbits 0FC7                          ??_I2C_DO_SEND_RESTART 0036  
                                          l312 1542                                            l171 14EC  
                                          l147 1382                                            l315 1590  
                                          l332 1622                                            l174 14FE  
                                          l192 15AE                                            l186 15A4  
                                          l290 13F2                                            l452 1556  
                                          l189 159A                                            l717 1526  
                                          l718 1526                                            u970 14FA  
                                          u971 14F6                         fp__I2C_DO_RX_NACK_STOP 0000  
               ?_EUSART_SetFramingErrorHandler 0092                                            prod 0FF3  
                                          tosl 0FFD                                            wreg 0FE8  
                     ??_I2C_CallbackReturnStop 0041                                   _I2C_DO_RESET 15B0  
                      ??_rd2RegCompleteHandler 0041                                           l2710 1592  
                                         l2712 15A6                                           l2720 1370  
                                         l2722 137E                                           l2714 1340  
                                         l2730 13E4                                           l2708 159C  
                                         l2716 1354                                           l2740 1554  
                                         l2732 13E6                                           l2724 13C4  
                                         l2718 1362                                           l2742 1588  
                                         l2734 13F0                                           l2726 13DC  
                                         l2750 1532                                           l2744 14EC  
                                         l2736 1620                                           l2728 13DE  
                                         l2752 1536                                           l2746 14FA  
                                         l2738 1544                                           l2754 153A  
                                         l2770 151C                                           l2756 153E  
                                         l2748 152E                                           l2772 151E  
                                         l2774 1520                                           l2768 1518  
                                         _LATA 0F89                                           _LATB 0F8A  
                                         _LATC 0F8B                                           _LATD 0F8C  
                                         _LATE 0F8D                                           i2l92 1476  
                                         i2l95 144A                                           i2l98 141E  
                                         _WPUB 0F7C                        ??_wr2RegCompleteHandler 0041  
                                         _main 1518                       ?_I2C_CallbackReturnReset 003F  
                                         fsr2h 0FDA                                           indf2 0FDF  
                                         fsr2l 0FD9                                           btemp 0055  
                                         prodh 0FF4                                           prodl 0FF3  
                                         start 00C4                   fp__I2C_DO_SEND_RESTART_WRITE 0000  
                                 ___param_bank 0000                                  ?_EUSART_Write 0036  
                                _I2C_DO_RX_ACK 15DE                  __end_of_OSCILLATOR_Initialize 1592  
                                        ?_main 0036                                          _EEADR 0FA9  
                                        _ANSEL 0F7E                                          i2l101 14A2  
                                        i2l104 13C2                                          i2l502 1272  
                                        i2l343 0098                                          i2l512 15CC  
                                        i2l600 133E                                          i2l521 10AA  
                                        i2l505 1612                                          i2l338 0078  
                                        i2l611 1636                                          i2l515 1586  
                                        i2l339 0098                                          i2l524 10DE  
                                        i2l509 12DA                                          i2l630 160C  
                                        i2l518 1578                                          i2l608 163A  
                                        i2l633 1642                                          i2l537 1114  
                                        i2l482 1516                                          i2l538 1182  
                                        i2l627 162E                                          i2l651 1618  
                                        i2l555 11FC                                          i2l645 163E  
                                        i2l549 15C2                                          i2l573 1604  
                                        i2l654 161E                                          i2l582 15EC  
                                        i2l479 14E6                                          i2l639 1632  
                                        i2l591 15D4                                          i2l648 156A  
                                        i2l576 15FC                                          i2l672 1626  
                                        i2l585 15E4                                          i2l594 15B8  
                                        i2l675 162A                                          i2l579 15F4  
                                        i2l588 15DC                                          _RCREG 0FAE  
                                        _RCSTA 0FAB                                          _SPBRG 0FAF  
                            ??_I2C_DO_TX_EMPTY 0041                                          _TRISA 0F92  
                                        _TRISB 0F93                                          _TRISC 0F94  
                                        _TRISD 0F95                                          _TRISE 0F96  
                                        _TXREG 0FAD                                          _TXSTA 0FAC  
                            __end_of_I2C_DO_RX 1184                              __end_of_I2C_DO_TX 10E0  
                             fp__I2C_MasterIsr 0000                        _I2C_MasterEnableRestart 1640  
                                        pclath 0FFA                                          pclatu 0FFB  
                                        tablat 0FF5                               ?_I2C_SetCallback 0036  
                                        ttemp5 0056                                          ttemp6 0059  
                                        ttemp7 005D                                          status 0FD8  
                                        wtemp8 0056                              ?_I2C_DO_SEND_STOP 0036  
                           ??_I2C_DO_SEND_STOP 0036                       fp__rd1RegCompleteHandler 0000  
                              __initialization 14A4                                   __end_of_main 152E  
                     fp__wr1RegCompleteHandler 0000                      ?_I2C_DO_SEND_RESTART_READ 0036  
                               ??_EUSART_Write 0092                                 ?_I2C_DO_RX_ACK 0036  
                  ?_INTERRUPT_InterruptManager 0036                                         ??_main 0094  
                            ?_I2C_MasterIsNack 0036                                  __activetblptr 0003  
                            ?_I2C_MasterSetIrq 0036                             ??_I2C_MasterIsNack 0036  
                           ??_I2C_MasterSetIrq 0036              _EUSART_DefaultFramingErrorHandler 0000  
                   _EUSART_OverrunErrorHandler 0051                __end_of_I2C_CallbackReturnReset 1638  
                                       _EEADRH 0FAA                                         _EEDATA 0FA8  
                                       _EECON2 0FA7                  I2C_SetDataCompleteCallback@cb 003B  
                                       _ANSELH 0F7F                                         i2l1412 1640  
                                       i2l2300 1478                                         i2l1414 163C  
                                       i2l2302 148C                                         i2l2310 13AC  
                                       i2l1502 1630                                         i2l1510 1628  
                                       i2l2304 14A0                                         i2l2312 13C0  
                                       i2l1512 1638                                         i2l1416 161A  
                                       i2l1504 15EE                                         i2l2330 1042  
                                       i2l2322 1022                                         i2l1506 15F2  
                                       i2l2410 12DC                                         i2l2260 1200  
                                       i2l2308 1384                                         i2l1516 1634  
                                       i2l1460 1558                                         i2l2404 11A4  
                                       i2l2340 1052                                         i2l2412 12DE  
                                       i2l2500 129A                                         i2l2270 14D4  
                                       i2l2262 1212                                         i2l2342 10AC  
                                       i2l2334 104A                                         i2l2326 103A  
                                       i2l2414 12E6                                         i2l2502 129E  
                                       i2l2272 14DC                                         i2l2264 1246  
                                       i2l2280 1474                                         i2l1464 1608  
                                       i2l2344 10BE                                         i2l2360 10F2  
                                       i2l1472 15F6                                         i2l1480 15EA  
                                       i2l2424 12F6                                         i2l1528 1624  
                                       i2l2274 14E4                                         i2l2266 1500  
                                       i2l2346 10D6                                         i2l2370 111A  
                                       i2l2362 110A                                         i2l1466 15FE  
                                       i2l1474 15FA                                         i2l1490 15CE  
                                       i2l2418 12EE                                         i2l2268 14C6  
                                       i2l2276 144C                                         i2l2284 1420  
                                       i2l2292 13F4                                         i2l1484 162C  
                                       i2l1564 15C4                                         i2l1572 157A  
                                       i2l1580 156C                                         i2l2348 10DC  
                                       i2l2380 112A                                         i2l2364 110E  
                                       i2l2356 10E0                                         i2l1652 15BA  
                                       i2l1468 1602                                         i2l1492 15D2  
                                       i2l2532 160E                                         i2l2620 0086  
                                       i2l2612 0032                                         i2l2278 1460  
                                       i2l2286 1434                                         i2l2294 1408  
                                       i2l1566 15C6                                         i2l1574 157C  
                                       i2l1582 156E                                         i2l2374 1122  
                                       i2l2358 10EE                                         i2l1654 15BC  
                                       i2l1478 15E6                                         i2l2614 0040  
                                       i2l2288 1448                                         i2l2296 141C  
                                       i2l1488 1614                                         i2l2392 1192  
                                       i2l1568 15CA                                         i2l1576 1584  
                                       i2l1584 1576                                         i2l1656 15C0  
                                       i2l1496 15D6                                         i2l2616 004E  
                                       i2l2394 1196                                         i2l2386 1184  
                                       i2l1498 15DA                                         i2l1690 15B0  
                                       i2l2618 005C                                         i2l2388 118A  
                                       i2l1684 15DE                                         i2l1692 15B2  
                                       i2l2398 119C                                         i2l1686 15E2  
                                       i2l1694 15B6                                         i2l2494 1274  
                                       i2l2496 1278                                         i2l2498 1286  
                                       i2l2792 1328                                         i2l2794 115C  
                                       i2l2796 1084                                         i2l2798 11D6  
                                       _TABLAT 0FF5                                         _OSCCON 0FD3  
                                       _SPBRGH 0FB0                                         i2u3_40 1568  
                                       i2u3_41 1562                                         i2u3_46 156A  
                                       _SSPADD 0FC8                                         _SSPBUF 0FC9  
                          _I2C_MasterGetRxData 162C                              rtc_get_value@F476 002C  
                                _I2C_MasterFsm 1274                                  _I2C_MasterIsr 160E  
                                       clear_0 14AA                                         clear_1 14B6  
                            I2C_SetCallback@cb 0036                        fp__I2C_DO_SEND_ADR_READ 0000  
                                       isa$std 0001                                  _I2C_SetBuffer 14C6  
                          _I2C_DO_ADDRESS_NACK 12DC                           ?_I2C_MasterGetRxData 0036  
                                 __mediumconst 0000                                         tblptrh 0FF7  
                                       tblptrl 0FF6                                         tblptru 0FF8  
                    ??_I2C_MasterEnableRestart 0036                              _SYSTEM_Initialize 152E  
                                   __accesstop 0060                        __end_of__initialization 14BC  
                           ?_SYSTEM_Initialize 0036                                  ___rparam_used 0001  
                         ?_I2C_DO_ADDRESS_NACK 0036                        _rdBlkRegCompleteHandler 1384  
                   fp__rdBlkRegCompleteHandler 0000                                 __pcstackCOMRAM 0036  
                               ?_I2C_MasterFsm 0036                                 ?_I2C_MasterIsr 0036  
                              ??_I2C_DO_RX_ACK 0036                         _I2C_CallbackReturnStop 1638  
                          ??_SYSTEM_Initialize 0094                                 ?_I2C_SetBuffer 0036  
                __end_of_I2C_DO_SEND_ADR_WRITE 157A                     ?_I2C_DO_SEND_RESTART_WRITE 0036  
                        ??_I2C_MasterGetRxData 0036                     __end_of_I2C_MasterClearIrq 1628  
              ??_EUSART_SetOverrunErrorHandler 0094                      __end_of_SYSTEM_Initialize 1544  
                            _I2C_MasterSendAck 1614                                     __pbssBANK0 0060  
                         __end_of_EUSART_Write 1500                                  ??_I2C_DO_IDLE 0036  
                                ??_I2C_DO_RCEN 0036                  __end_of_rd2RegCompleteHandler 144C  
                 __end_of_I2C_MasterSendTxData 160E                             ?_I2C_MasterSendAck 0036  
                            _I2C_MasterStartRx 1630                                     __pnvCOMRAM 004F  
                        ??_I2C_DO_ADDRESS_NACK 0041                  __end_of_wr2RegCompleteHandler 14A4  
                          _I2C_DO_RX_NACK_STOP 15D6                          _rd1RegCompleteHandler 144C  
                           ?_I2C_MasterStartRx 0036                     __end_of_I2C_MasterSendNack 1620  
                        _wr1RegCompleteHandler 13F4                            ??_I2C_MasterSendAck 0036  
                     rd1RegCompleteHandler@ptr 003F                    __end_of_I2C_DO_SEND_RESTART 15F6  
                              _I2C_DO_TX_EMPTY 1184                            I2C_SetBuffer@buffer 0036  
                          ??_I2C_MasterStartRx 0036                                        _BAUDCON 0FB8  
               I2C_SetDataCompleteCallback@ptr 003D                       ??_I2C_DO_RX_NACK_RESTART 0036  
            __end_of_I2C_DO_SEND_RESTART_WRITE 15FE                           ?_I2C_DO_RX_NACK_STOP 0036  
                                      _TBLPTRH 0FF7                                        _TBLPTRL 0FF6  
                                      _TBLPTRU 0FF8                                        i2u61_40 1212  
                                      i2u61_41 120E                      __end_of_I2C_MasterSendAck 161A  
                                      i2u62_40 14D4                                        i2u62_41 14D0  
                                      _OSCTUNE 0F9B                                        i2u63_40 1036  
                                      i2u71_40 1286                                        i2u63_41 1032  
                                      i2u71_41 1282                                        i2u72_40 129A  
                                      i2u72_41 1296                                        i2u65_40 10D6  
                                      i2u64_48 1060                                        i2u65_41 10D2  
                                      i2u64_49 1072                                        i2u66_40 110A  
                                      i2u73_48 12C6                                        i2u90_40 005C  
                                      i2u66_41 1106                                        i2u73_49 12D8  
                                      i2u90_41 0058                                        i2u67_48 1138  
                                      i2u92_40 0086                                        i2u91_48 0062  
                                      i2u67_49 114A                                        i2u92_41 0082  
                                      i2u91_49 0074                                        i2u68_48 11B2  
                                      i2u93_40 0094                                        i2u68_49 11C4  
                                      i2u93_41 0090                                        i2u69_48 1304  
                                      i2u69_49 1316                                        i2u88_40 0040  
                                      i2u88_41 003C                                        i2u89_40 004E  
                                      i2u89_41 004A                       ??_EUSART_SetErrorHandler 0094  
                                      _SSPCON1 0FC6                                        _SSPCON2 0FC5  
                                      _SSPSTAT 0FC7                      __end_of_I2C_MasterStartRx 1634  
                 ?_I2C_SetDataCompleteCallback 003B                                      _I2C_DO_RX 10E0  
                                    _I2C_DO_TX 1022               __end_of_I2C_DO_SEND_RESTART_READ 1606  
                    ??_rdBlkRegCompleteHandler 0041                                ??_I2C_MasterFsm 0043  
                              ??_I2C_MasterIsr 0045                                        __Hparam 0000  
                                      __Lparam 0000                            __end_of_I2C_DO_IDLE 15CE  
                          __end_of_I2C_DO_RCEN 15C4                                ??_I2C_SetBuffer 003A  
                      I2C_SetBuffer@bufferSize 0038                                   __psmallconst 1000  
                                      __pcinit 14A4                                 _I2C_MasterStop 163C  
                               _I2C_Initialize 1544                                        __ramtop 1000  
                                      __ptext0 1518                                        __ptext1 152E  
                                      __ptext2 13C4                                        __ptext3 1588  
                                      __ptext4 1620                                        __ptext5 1544  
                                      __ptext6 1340                                        __ptext7 1592  
                                      __ptext8 159C                                        __ptext9 15A6  
                        ??_I2C_DO_RX_NACK_STOP 0036                          _OSCILLATOR_Initialize 1588  
                                      _reading 0025                             I2C_SetCallback@idx 003A  
                     ??_PIN_MANAGER_Initialize 0092                  I2C_CallbackReturnReset@funPtr 003F  
                           I2C_SetCallback@ptr 0038                       wr1RegCompleteHandler@ptr 003F  
                     fp__I2C_DO_SEND_ADR_WRITE 0000                           end_of_initialization 14BC  
                                   ?_I2C_DO_RX 0036                                     ?_I2C_DO_TX 0036  
        __end_of_EUSART_SetOverrunErrorHandler 159C                  _EUSART_SetOverrunErrorHandler 1592  
                       ?_rd1RegCompleteHandler 003F                        __end_of_I2C_DO_TX_EMPTY 11FE  
                            _EUSART_Initialize 1340                         ?_wr1RegCompleteHandler 003F  
                     fp__rd2RegCompleteHandler 0000                             ?_EUSART_Initialize 0036  
                                    _RCSTAbits 0FAB                                        postdec2 0FDD  
                     fp__wr2RegCompleteHandler 0000                                        postinc0 0FEE  
                                      postinc2 0FDE                         __end_of_I2C_MasterStop 1640  
                       __end_of_I2C_Initialize 1558                      fp__I2C_CallbackReturnStop 0000  
                          ??_EUSART_Initialize 0094                __end_of_rdBlkRegCompleteHandler 13C4  
                         _I2C_MasterSendTxData 1606                                fp__I2C_DO_RESET 0000  
                    __end_of_EUSART_Initialize 1384                                    _I2C_DO_IDLE 15C4  
                                  _I2C_DO_RCEN 15BA                     rdBlkRegCompleteHandler@ptr 003F  
                                    _TXSTAbits 0FAC                        ?_I2C_CallbackReturnStop 003F  
                     _I2C_DO_SEND_RESTART_READ 15FE                    fp__I2C_DO_SEND_RESTART_READ 0000  
                 I2C_CallbackReturnStop@funPtr 003F                   __end_of_INTERRUPT_Initialize 1624  
                              ?_I2C_MasterStop 0036                                ?_I2C_Initialize 0036  
                      _I2C_CallbackReturnReset 1634                     fp__I2C_CallbackReturnReset 0000  
                   _EUSART_DefaultErrorHandler 0000                                   _EUSART_Write 14E8  
                        ?_I2C_MasterSendTxData 0036                         ?_OSCILLATOR_Initialize 0036  
                  ??_I2C_DO_SEND_RESTART_WRITE 0036                            start_initialization 14A4  
                                ?_I2C_DO_RESET 0036                                    ??_I2C_DO_RX 0041  
                                  ??_I2C_DO_TX 0041                 __end_of_I2C_CallbackReturnStop 163C  
                       _I2C_DO_RX_NACK_RESTART 15CE                               ?_I2C_DO_TX_EMPTY 0036  
                           _I2C_MasterClearIrq 1624                 ?_EUSART_SetOverrunErrorHandler 0092  
                   _EUSART_FramingErrorHandler 0053                         _EUSART_SetErrorHandler 15A6  
                          ?_I2C_MasterClearIrq 0036                    __end_of_I2C_MasterGetRxData 1630  
                        __end_of_I2C_DO_RX_ACK 15E6                               _I2C_DO_SEND_STOP 15E6  
                            ??_I2C_SetCallback 003A                             _I2C_MasterSendNack 161A  
                     ?_I2C_MasterEnableRestart 0036                              _i2c_fsmStateTable 1001  
                       fp__I2C_DO_SEND_RESTART 0000                          _I2C_DO_SEND_ADR_WRITE 156C  
                                  __pbssCOMRAM 0001                                  __pcstackBANK0 0092  
                               ??_I2C_DO_RESET 0036                            ?_I2C_MasterSendNack 0036  
                 __end_of_I2C_DO_SEND_ADR_READ 1588                           ??_I2C_MasterClearIrq 0036  
                  __end_of_I2C_DO_ADDRESS_NACK 1340                               _I2C_MasterIsNack 1558  
                    _I2C_DO_SEND_RESTART_WRITE 15F6                               _I2C_MasterSetIrq 1628  
                        _rd2RegCompleteHandler 1420                         _PIN_MANAGER_Initialize 13C4  
                        _wr2RegCompleteHandler 1478                      ??_I2C_CallbackReturnReset 0041  
                         ??_I2C_MasterSendNack 0036                       rd2RegCompleteHandler@ptr 003F  
                                    __pintcode 0008                         ??_I2C_MasterSendTxData 0036  
                    __end_of_i2c_fsmStateTable 1021                   ??_INTERRUPT_InterruptManager 0045  
                                 fp__I2C_DO_RX 0000                                   fp__I2C_DO_TX 0000  
                                  __smallconst 1000                        ??_rd1RegCompleteHandler 0041  
                         _INTERRUPT_Initialize 1620                        ??_wr1RegCompleteHandler 0041  
       EUSART_SetErrorHandler@interruptHandler 0092                                       _PIE1bits 0F9D  
                                     _PIE2bits 0FA0                              _eusartRxLastError 0035  
                                     _PIR1bits 0F9E                                    _bufferWrite 0060  
              ??_EUSART_SetFramingErrorHandler 0094                                       _PIR2bits 0FA1  
                        __end_of_I2C_MasterFsm 12DC                          __end_of_I2C_MasterIsr 1614  
                                     _RCONbits 0FD0                    __end_of_I2C_DO_RX_NACK_STOP 15DE  
            _EUSART_DefaultOverrunErrorHandler 0000                __end_of_I2C_MasterEnableRestart 1644  
                               fp__I2C_DO_IDLE 0000                                 fp__I2C_DO_RCEN 0000  
                        __end_of_I2C_SetBuffer 14E8                         ?_I2C_DO_SEND_ADR_WRITE 0036  
                     I2C_MasterSendTxData@data 0036                       wr2RegCompleteHandler@ptr 003F  
                                  _INTCON2bits 0FF1                     ??_I2C_DO_SEND_RESTART_READ 0036  
                        ?_INTERRUPT_Initialize 0036                       ?_rdBlkRegCompleteHandler 003F  
                                   _I2C_Status 0001                                   ?_I2C_DO_IDLE 0036  
                                 ?_I2C_DO_RCEN 0036                         ?_rd2RegCompleteHandler 003F  
                                   _EECON1bits 0FA6                         ?_wr2RegCompleteHandler 003F  
                             ??_I2C_MasterStop 0036                               ??_I2C_Initialize 0092  
                    fp__I2C_DO_RX_NACK_RESTART 0000                                       __Hrparam 0000  
                                     __Lrparam 0000                           __end_of_I2C_DO_RESET 15BA  
                      ??_OSCILLATOR_Initialize 0092                            _EUSART_ErrorHandler 004F  
                         _I2C_DO_SEND_ADR_READ 157A                            fp__I2C_DO_SEND_STOP 0000  
                                     __ptext10 14E8                                       __ptext20 15E6  
                                     __ptext12 160E                                       __ptext21 15EE  
                                     __ptext13 1274                                       __ptext30 1184  
                                     __ptext22 15F6                                       __ptext14 1624  
                                     __ptext31 1628                                       __ptext23 15FE  
                                     __ptext15 12DC                                       __ptext40 1384  
                                     __ptext32 1558                                       __ptext24 15BA  
                                     __ptext16 15B0                                       __ptext41 13F4  
                                     __ptext33 1606                                       __ptext25 10E0  
                                     __ptext17 15CE                                       __ptext50 0000  
                                     __ptext42 1420                                       __ptext34 1614  
                                     __ptext26 1022                                       __ptext18 15D6  
                                     __ptext43 144C                                       __ptext35 162C  
                                     __ptext27 156C                                       __ptext19 15DE  
                                     __ptext44 1478                                       __ptext36 161A  
                                     __ptext28 157A                                       __ptext45 1500  
                                     __ptext37 1630                                       __ptext29 15C4  
                                     __ptext46 11FE                                       __ptext38 1634  
                                     __ptext47 14C6                                       __ptext39 1638  
                                     __ptext48 163C                                       __ptext49 1640  
          __end_of_I2C_SetDataCompleteCallback 1518                    _I2C_SetDataCompleteCallback 1500  
                      ?_I2C_DO_RX_NACK_RESTART 0036                       __end_of_I2C_DO_SEND_STOP 15EE  
                      ?_EUSART_SetErrorHandler 0092                                _I2C_SetCallback 11FE  
                ??_I2C_SetDataCompleteCallback 003F  EUSART_SetOverrunErrorHandler@interruptHandler 0092  
                                     isa$xinst 0000                                       int$flags 0055  
                        ?_I2C_DO_SEND_ADR_READ 0036             __end_of_INTERRUPT_InterruptManager 00C4  
                   _INTERRUPT_InterruptManager 0008          __end_of_EUSART_SetFramingErrorHandler 15A6  
                _EUSART_SetFramingErrorHandler 159C                       __end_of_I2C_MasterIsNack 156C  
                     __end_of_I2C_MasterSetIrq 162C                                     _INTCONbits 0FF2  
                       ??_INTERRUPT_Initialize 0092                 __end_of_I2C_DO_RX_NACK_RESTART 15D6  
                                     intlevel2 0000                        ?_PIN_MANAGER_Initialize 0036  
               __end_of_EUSART_SetErrorHandler 15B0                            _I2C_DO_SEND_RESTART 15EE  
                       fp__I2C_DO_ADDRESS_NACK 0000  EUSART_SetFramingErrorHandler@interruptHandler 0092  
                           fp__I2C_DO_TX_EMPTY 0000                           ?_I2C_DO_SEND_RESTART 0036  
                                  _SSPCON1bits 0FC6                                    _SSPCON2bits 0FC5  
                           EUSART_Write@txData 0092                        __end_of_I2C_SetCallback 1274  
               __end_of_PIN_MANAGER_Initialize 13F4                  __end_of_rd1RegCompleteHandler 1478  
                             fp__I2C_DO_RX_ACK 0000                  __end_of_wr1RegCompleteHandler 1420  
                        _MSSP_InterruptHandler 0033  
